 Asteroids

 Timestamp is 67051d90 (Tue Oct  8 07:54:56 2024)

 Preferred load address is 0000000140000000

 Start         Length     Name                   Class
 0001:00000000 00040fa0H .text$mn                CODE
 0001:00040fa0 00000040H .text$mn$00             CODE
 0001:00040fe0 0000063dH .text$x                 CODE
 0002:00000000 00000308H .idata$5                DATA
 0002:00000308 00000028H .00cfg                  DATA
 0002:00000330 00000008H .CRT$XCA                DATA
 0002:00000338 00000008H .CRT$XCAA               DATA
 0002:00000340 00000008H .CRT$XCZ                DATA
 0002:00000348 00000008H .CRT$XIA                DATA
 0002:00000350 00000008H .CRT$XIAA               DATA
 0002:00000358 00000008H .CRT$XIAC               DATA
 0002:00000360 00000020H .CRT$XIC                DATA
 0002:00000380 00000008H .CRT$XIZ                DATA
 0002:00000388 00000008H .CRT$XPA                DATA
 0002:00000390 00000010H .CRT$XPX                DATA
 0002:000003a0 00000008H .CRT$XPXA               DATA
 0002:000003a8 00000008H .CRT$XPZ                DATA
 0002:000003b0 00000008H .CRT$XTA                DATA
 0002:000003b8 00000008H .CRT$XTZ                DATA
 0002:000003c0 00000000H .gehcont$y              DATA
 0002:000003c0 00000000H .gfids$y                DATA
 0002:000003c0 00011940H .rdata                  DATA
 0002:00011d00 00000000H .rdata$CastGuardVftablesA DATA
 0002:00011d00 00000000H .rdata$CastGuardVftablesC DATA
 0002:00011d00 00000274H .rdata$r                DATA
 0002:00011f74 00000048H .rdata$voltmd           DATA
 0002:00011fbc 00000344H .rdata$zzzdbg           DATA
 0002:00012300 00000008H .rtc$IAA                DATA
 0002:00012308 00000008H .rtc$IZZ                DATA
 0002:00012310 00000008H .rtc$TAA                DATA
 0002:00012318 00000008H .rtc$TZZ                DATA
 0002:00012320 00001348H .xdata                  DATA
 0002:00013668 0000014cH .xdata$x                DATA
 0002:000137b4 00000000H .edata                  DATA
 0002:000137b4 00000050H .idata$2                DATA
 0002:00013804 00000014H .idata$3                DATA
 0002:00013818 00000308H .idata$4                DATA
 0002:00013b20 000006bcH .idata$6                DATA
 0003:00000000 00000a60H .data                   DATA
 0003:00000a60 000000a8H .data$r                 DATA
 0003:00000b08 00000028H .data$rs                DATA
 0003:00000b30 000018a0H .bss                    DATA
 0004:00000000 00003234H .pdata                  DATA
 0005:00000000 000000f4H _RDATA                  DATA

  Address         Publics by Value              Rva+Base               Lib:Object

 0000:00000000       __x64_code_ranges_to_entry_points_count 0000000000000000     <absolute>
 0000:00000000       ___safe_se_handler_table   0000000000000000     <absolute>
 0000:00000000       __guard_iat_table          0000000000000000     <absolute>
 0000:00000000       __guard_iat_count          0000000000000000     <absolute>
 0000:00000000       __guard_longjmp_count      0000000000000000     <absolute>
 0000:00000000       __dynamic_value_reloc_table 0000000000000000     <absolute>
 0000:00000000       __guard_longjmp_table      0000000000000000     <absolute>
 0000:00000000       __x64_code_ranges_to_entry_points 0000000000000000     <absolute>
 0000:00000000       __hybrid_auxiliary_iat     0000000000000000     <absolute>
 0000:00000000       __hybrid_auxiliary_iat_copy 0000000000000000     <absolute>
 0000:00000000       __arm64x_redirection_metadata 0000000000000000     <absolute>
 0000:00000000       __guard_fids_count         0000000000000000     <absolute>
 0000:00000000       __arm64x_extra_rfe_table   0000000000000000     <absolute>
 0000:00000000       __AbsoluteZero             0000000000000000     <absolute>
 0000:00000000       __hybrid_code_map          0000000000000000     <absolute>
 0000:00000000       __guard_check_icall_a64n_fptr 0000000000000000     <absolute>
 0000:00000000       __arm64x_extra_rfe_table_size 0000000000000000     <absolute>
 0000:00000000       ___safe_se_handler_count   0000000000000000     <absolute>
 0000:00000000       __guard_fids_table         0000000000000000     <absolute>
 0000:00000000       __arm64x_redirection_metadata_count 0000000000000000     <absolute>
 0000:00000000       __guard_eh_cont_count      0000000000000000     <absolute>
 0000:00000000       __enclave_config           0000000000000000     <absolute>
 0000:00000000       __guard_eh_cont_table      0000000000000000     <absolute>
 0000:00000000       __arm64x_native_entrypoint 0000000000000000     <absolute>
 0000:00000000       __hybrid_code_map_count    0000000000000000     <absolute>
 0000:00000100       __guard_flags              0000000000000100     <absolute>
 0000:00000000       __ImageBase                0000000140000000     <linker-defined>
 0001:00000000       WinMain                    0000000140001000 f   Win32_Shah.obj
 0001:00000840       ?Min@@YAMMMM@Z             0000000140001840 f   Win32_Shah.obj
 0001:000008c0       ?Max@@YAMMMM@Z             00000001400018c0 f   Win32_Shah.obj
 0001:00000940       ?CalcCentroid@@YA?AUVector2f@@U1@00@Z 0000000140001940 f   Win32_Shah.obj
 0001:000009c0       ?CalcSizeRelativeToCentroid@@YA?AUVector2f@@U1@0@Z 00000001400019c0 f   Win32_Shah.obj
 0001:00000a20       ?degreesToRadians@@YAMM@Z  0000000140001a20 f   Win32_Shah.obj
 0001:00000a40       ?radians_to_degrees@@YAMM@Z 0000000140001a40 f   Win32_Shah.obj
 0001:00000a60       ?Createrotationmatrix@@YAXMPEAM@Z 0000000140001a60 f   Win32_Shah.obj
 0001:00000b00       ?matrixmul@@YAXPEAMHH0HH0@Z 0000000140001b00 f   Win32_Shah.obj
 0001:00000c10       ?PlotPixel@@YAXPEAUVideoBuffer@@HHI@Z 0000000140001c10 f   Win32_Shah.obj
 0001:00000cc0       ?GetLogicalWidthAndHeight@@YA?AUVector2f@@PEAUVideoBuffer@@@Z 0000000140001cc0 f   Win32_Shah.obj
 0001:00000d90       ?MapToPixel@@YAXPEAUVideoBuffer@@MMPEAH1@Z 0000000140001d90 f   Win32_Shah.obj
 0001:00000ee0       ?MapDistanceToPixel@@YA?AUVector2f@@PEAUVideoBuffer@@M@Z 0000000140001ee0 f   Win32_Shah.obj
 0001:00000fb0       ?Drawcircle@@YAXPEAUVideoBuffer@@UCircle@@@Z 0000000140001fb0 f   Win32_Shah.obj
 0001:00001150       ?BresenhamLine@@YAXPEAUVideoBuffer@@MMMM@Z 0000000140002150 f   Win32_Shah.obj
 0001:00001310       ?clamp@@YAHHHH@Z           0000000140002310 f   Win32_Shah.obj
 0001:00001350       ?RenderRectInPixels@@YAXIPEAUVideoBuffer@@HHHH@Z 0000000140002350 f   Win32_Shah.obj
 0001:000014a0       ?DrawBox@@YAXPEAUVideoBuffer@@MMMMI@Z 00000001400024a0 f   Win32_Shah.obj
 0001:00001570       ?drawline@@YAXPEAUVideoBuffer@@MMMMI@Z 0000000140002570 f   Win32_Shah.obj
 0001:00001910       ?WarpPoints@@YAXPEAUVideoBuffer@@PEAUVector2f@@@Z 0000000140002910 f   Win32_Shah.obj
 0001:00001a80       ?DrawTriangle@@YAXPEAUVideoBuffer@@PEAUPlayerSpaceShip@@@Z 0000000140002a80 f   Win32_Shah.obj
 0001:00001b40       ?CreateShipCollider@@YAXUPlayerSpaceShip@@PEAUBox@@@Z 0000000140002b40 f   Win32_Shah.obj
 0001:00001c10       ?CreateAsteroidCollider@@YAXPEAUVideoBuffer@@UCircle@@PEAUBox@@@Z 0000000140002c10 f   Win32_Shah.obj
 0001:00001e20       ?CheckAABBCollisions@@YAHPEAUVideoBuffer@@UBox@@1@Z 0000000140002e20 f   Win32_Shah.obj
 0001:00001ee0       ?WarpCircle@@YAXUVector2f@@PEAUCircle@@@Z 0000000140002ee0 f   Win32_Shah.obj
 0001:00001f60       ?GameUpdateAndRender@@YAXPEAUGame_Input@@PEAUVideoBuffer@@PEAUGame_State@@@Z 0000000140002f60 f   Win32_Shah.obj
 0001:00003510       ?Win32ResizeDibSection@@YAXPEAUWin32_VideoBuffer@@HH@Z 0000000140004510 f   Win32_Shah.obj
 0001:000036a0       ?MainWindowCallBack@@YA_JPEAUHWND__@@I_K_J@Z 00000001400046a0 f   Win32_Shah.obj
 0001:00003770       ?RenderColor@@YAXIPEAUWin32_VideoBuffer@@@Z 0000000140004770 f   Win32_Shah.obj
 0001:00003820       ?atan2@@YAMMM@Z            0000000140004820 f i Win32_Shah.obj
 0001:00003850       ?cos@@YAMM@Z               0000000140004850 f i Win32_Shah.obj
 0001:00003870       ?sin@@YAMM@Z               0000000140004870 f i Win32_Shah.obj
 0001:00003890       ?sqrt@@YAMM@Z              0000000140004890 f i Win32_Shah.obj
 0001:000038b0       ??2@YAPEAX_K@Z             00000001400048b0 f   LIBCMTD:new_scalar.obj
 0001:00003900       __GSHandlerCheck           0000000140004900 f   LIBCMTD:gshandler.obj
 0001:00003940       __GSHandlerCheckCommon     0000000140004940 f   LIBCMTD:gshandler.obj
 0001:00003a50       __security_check_cookie    0000000140004a50 f   LIBCMTD:amdsecgs.obj
 0001:00003d20       ?configure_argv@__scrt_narrow_argv_policy@@SAHXZ 0000000140004d20 f i LIBCMTD:exe_winmain.obj
 0001:00003d40       ?initialize_environment@__scrt_narrow_environment_policy@@SAHXZ 0000000140004d40 f i LIBCMTD:exe_winmain.obj
 0001:00003d90       ?set_app_type@__scrt_winmain_policy@@SAXXZ 0000000140004d90 f i LIBCMTD:exe_winmain.obj
 0001:00003db0       ?set_commode@__scrt_file_policy@@SAXXZ 0000000140004db0 f i LIBCMTD:exe_winmain.obj
 0001:00003dd0       ?set_fmode@__scrt_file_policy@@SAXXZ 0000000140004dd0 f i LIBCMTD:exe_winmain.obj
 0001:00003df0       WinMainCRTStartup          0000000140004df0 f   LIBCMTD:exe_winmain.obj
 0001:00003e10       ??0bad_alloc@std@@AEAA@QEBD@Z 0000000140004e10 f i LIBCMTD:throw_bad_alloc.obj
 0001:00003e50       ??0bad_alloc@std@@QEAA@AEBV01@@Z 0000000140004e50 f i LIBCMTD:throw_bad_alloc.obj
 0001:00003e90       ??0bad_alloc@std@@QEAA@XZ  0000000140004e90 f i LIBCMTD:throw_bad_alloc.obj
 0001:00003ed0       ??0bad_array_new_length@std@@QEAA@AEBV01@@Z 0000000140004ed0 f i LIBCMTD:throw_bad_alloc.obj
 0001:00003f10       ??0bad_array_new_length@std@@QEAA@XZ 0000000140004f10 f i LIBCMTD:throw_bad_alloc.obj
 0001:00003f50       ??0exception@std@@QEAA@AEBV01@@Z 0000000140004f50 f i LIBCMTD:throw_bad_alloc.obj
 0001:00003fb0       ??0exception@std@@QEAA@QEBDH@Z 0000000140004fb0 f i LIBCMTD:throw_bad_alloc.obj
 0001:00004000       ??1bad_exception@std@@UEAA@XZ 0000000140005000 f i libvcruntimed:frame.obj
 0001:00004000       ??1bad_alloc@std@@UEAA@XZ  0000000140005000 f i LIBCMTD:throw_bad_alloc.obj
 0001:00004020       ??1bad_array_new_length@std@@UEAA@XZ 0000000140005020 f i LIBCMTD:throw_bad_alloc.obj
 0001:00004040       ??1exception@std@@UEAA@XZ  0000000140005040 f i LIBCMTD:throw_bad_alloc.obj
 0001:00004070       ??_Ebad_alloc@std@@UEAAPEAXI@Z 0000000140005070 f i LIBCMTD:throw_bad_alloc.obj
 0001:00004070       ??_Gbad_alloc@std@@UEAAPEAXI@Z 0000000140005070 f i LIBCMTD:throw_bad_alloc.obj
 0001:00004070       ??_Gbad_exception@std@@UEAAPEAXI@Z 0000000140005070 f i libvcruntimed:frame.obj
 0001:00004070       ??_Ebad_exception@std@@UEAAPEAXI@Z 0000000140005070 f i libvcruntimed:frame.obj
 0001:000040b0       ??_Ebad_array_new_length@std@@UEAAPEAXI@Z 00000001400050b0 f i LIBCMTD:throw_bad_alloc.obj
 0001:000040b0       ??_Gbad_array_new_length@std@@UEAAPEAXI@Z 00000001400050b0 f i LIBCMTD:throw_bad_alloc.obj
 0001:000040f0       ??_Gexception@std@@UEAAPEAXI@Z 00000001400050f0 f i LIBCMTD:throw_bad_alloc.obj
 0001:000040f0       ??_Eexception@std@@UEAAPEAXI@Z 00000001400050f0 f i LIBCMTD:throw_bad_alloc.obj
 0001:00004130       ?__scrt_throw_std_bad_alloc@@YAXXZ 0000000140005130 f   LIBCMTD:throw_bad_alloc.obj
 0001:00004160       ?__scrt_throw_std_bad_array_new_length@@YAXXZ 0000000140005160 f   LIBCMTD:throw_bad_alloc.obj
 0001:00004190       ?what@exception@std@@UEBAPEBDXZ 0000000140005190 f i LIBCMTD:throw_bad_alloc.obj
 0001:000041d0       __raise_securityfailure    00000001400051d0 f   LIBCMTD:gs_report.obj
 0001:00004210       __report_gsfailure         0000000140005210 f   LIBCMTD:gs_report.obj
 0001:000042f0       __report_rangecheckfailure 00000001400052f0 f   LIBCMTD:gs_report.obj
 0001:00004310       __report_securityfailure   0000000140005310 f   LIBCMTD:gs_report.obj
 0001:00004670       NtCurrentTeb               0000000140005670 f i LIBCMTD:utility.obj
 0001:00004680       __scrt_acquire_startup_lock 0000000140005680 f   LIBCMTD:utility.obj
 0001:000046f0       __scrt_initialize_crt      00000001400056f0 f   LIBCMTD:utility.obj
 0001:00004740       __scrt_initialize_onexit_tables 0000000140005740 f   LIBCMTD:utility.obj
 0001:00004850       __scrt_is_nonwritable_in_current_image 0000000140005850 f   LIBCMTD:utility.obj
 0001:000048e0       __scrt_release_startup_lock 00000001400058e0 f   LIBCMTD:utility.obj
 0001:00004910       __scrt_uninitialize_crt    0000000140005910 f   LIBCMTD:utility.obj
 0001:00004950       _onexit                    0000000140005950 f   LIBCMTD:utility.obj
 0001:000049d0       atexit                     00000001400059d0 f   LIBCMTD:utility.obj
 0001:00004ad0       __security_init_cookie     0000000140005ad0 f   LIBCMTD:gs_support.obj
 0001:00004b50       _matherr                   0000000140005b50 f   LIBCMTD:matherr.obj
 0001:00004b50       ?get_current_state_index@__crt_state_management@@YA_KAEBV__crt_scoped_get_last_error_reset@@@Z 0000000140005b50 f   libucrtd:invalid_parameter.obj
 0001:00004b60       _get_startup_argv_mode     0000000140005b60 f   LIBCMTD:argv_mode.obj
 0001:00004b70       _get_startup_commit_mode   0000000140005b70 f   LIBCMTD:commit_mode.obj
 0001:00004b70       _get_startup_new_mode      0000000140005b70 f   LIBCMTD:new_mode.obj
 0001:00004b70       __scrt_initialize_winrt    0000000140005b70 f   LIBCMTD:utility_desktop.obj
 0001:00004b70       ?get_current_state_index@__crt_state_management@@YA_KXZ 0000000140005b70 f   libucrtd:new_handler.obj
 0001:00004b70       __scrt_stub_for_initialize_mta 0000000140005b70 f   LIBCMTD:utility_desktop.obj
 0001:00004b70       __scrt_exe_initialize_mta  0000000140005b70 f   LIBCMTD:utility_desktop.obj
 0001:00004b70       _get_startup_thread_locale_mode 0000000140005b70 f   LIBCMTD:thread_locale.obj
 0001:00004b70       ?get_invalid_value@__crt_hmodule_traits@@SAPEAUHINSTANCE__@@XZ 0000000140005b70 f   libucrtd:exit.obj
 0001:00004b80       _get_startup_file_mode     0000000140005b80 f   LIBCMTD:file_mode.obj
 0001:00004b90       ?__scrt_initialize_type_info@@YAXXZ 0000000140005b90 f   LIBCMTD:tncleanup.obj
 0001:00004bb0       _should_initialize_environment 0000000140005bb0 f   LIBCMTD:env_mode.obj
 0001:00004bc0       _initialize_invalid_parameter_handler 0000000140005bc0 f   LIBCMTD:invalid_parameter_handler.obj
 0001:00004bc0       _initialize_denormal_control 0000000140005bc0 f   LIBCMTD:denormal_control.obj
 0001:00004bd0       __local_stdio_printf_options 0000000140005bd0 f i LIBCMTD:default_local_stdio_options.obj
 0001:00004be0       __local_stdio_scanf_options 0000000140005be0 f i LIBCMTD:default_local_stdio_options.obj
 0001:00004bf0       __scrt_initialize_default_local_stdio_options 0000000140005bf0 f   LIBCMTD:default_local_stdio_options.obj
 0001:00004c40       __scrt_is_user_matherr_present 0000000140005c40 f   LIBCMTD:matherr_detection.obj
 0001:00004c70       __scrt_get_dyn_tls_init_callback 0000000140005c70 f   LIBCMTD:dyn_tls_init.obj
 0001:00004c80       __scrt_get_dyn_tls_dtor_callback 0000000140005c80 f   LIBCMTD:dyn_tls_dtor.obj
 0001:00004c90       __crt_debugger_hook        0000000140005c90 f   LIBCMTD:utility_desktop.obj
 0001:00004ca0       __scrt_fastfail            0000000140005ca0 f   LIBCMTD:utility_desktop.obj
 0001:00004e40       __scrt_get_show_window_mode 0000000140005e40 f   LIBCMTD:utility_desktop.obj
 0001:00004ea0       __scrt_initialize_mta      0000000140005ea0 f   LIBCMTD:utility_desktop.obj
 0001:00004eb0       __scrt_is_managed_app      0000000140005eb0 f   LIBCMTD:utility_desktop.obj
 0001:00004f60       __scrt_set_unhandled_exception_filter 0000000140005f60 f   LIBCMTD:utility_desktop.obj
 0001:00004f80       __scrt_unhandled_exception_filter 0000000140005f80 f   LIBCMTD:utility_desktop.obj
 0001:00005020       _RTC_Initialize            0000000140006020 f   LIBCMTD:initsect.obj
 0001:00005070       _RTC_Terminate             0000000140006070 f   LIBCMTD:initsect.obj
 0001:000050c0       ??1?$__crt_simd_cleanup_guard@$0A@@@QEAA@XZ 00000001400060c0 f i libucrtd:strnlen.obj
 0001:000050c0       ??1scoped_global_state_reset@__crt_state_management@@QEAA@XZ 00000001400060c0 f i libucrtd:onexit.obj
 0001:000050c0       _guard_check_icall_nop     00000001400060c0 f i LIBCMTD:guard_support.obj
 0001:000050d0       ReadNoFence64              00000001400060d0 f i LIBCMTD:guard_support.obj
 0001:000050f0       ReadPointerNoFence         00000001400060f0 f i LIBCMTD:guard_support.obj
 0001:00005110       _guard_icall_checks_enforced 0000000140006110 f i LIBCMTD:guard_support.obj
 0001:00005150       ??3@YAXPEAX_K@Z            0000000140006150 f   LIBCMTD:delete_scalar_size.obj
 0001:00005170       ??1type_info@@UEAA@XZ      0000000140006170 f   LIBCMTD:std_type_info_static.obj
 0001:00005190       ??_Etype_info@@UEAAPEAXI@Z 0000000140006190 f i LIBCMTD:std_type_info_static.obj
 0001:00005190       ??_Gtype_info@@UEAAPEAXI@Z 0000000140006190 f i LIBCMTD:std_type_info_static.obj
 0001:000051d0       __isa_available_init       00000001400061d0 f   LIBCMTD:cpu_disp.obj
 0001:00005570       __scrt_is_ucrt_dll_in_use  0000000140006570 f   LIBCMTD:ucrt_detection.obj
 0001:000055a0       ??3@YAXPEAX@Z              00000001400065a0 f   LIBCMTD:delete_scalar.obj
 0001:000055c0       __C_specific_handler       00000001400065c0 f   libvcruntimed:riscchandler.obj
 0001:00005a30       ??$?RD@__crt_public_free_policy@@QEBAXQEBD@Z 0000000140006a30 f i libvcruntimed:std_exception.obj
 0001:00005a50       ??0?$__crt_scoped_stack_ptr_tag@_W@@QEAA@QEA_W@Z 0000000140006a50 f i libucrtd:getstringtypea.obj
 0001:00005a50       ??0?$__crt_unique_heap_ptr@P6AXXZU__crt_internal_free_policy@@@@QEAA@QEAP6AXXZ@Z 0000000140006a50 f i libucrtd:onexit.obj
 0001:00005a50       ??0?$__crt_unique_heap_ptr@PEAU__crt_stdio_stream_data@@U__crt_internal_free_policy@@@@QEAA@QEAPEAU__crt_stdio_stream_data@@@Z 0000000140006a50 f i libucrtd:_file.obj
 0001:00005a50       ??0?$__crt_unique_heap_ptr@U__vcrt_ptd@@U__crt_internal_free_policy@@@@QEAA@QEAU__vcrt_ptd@@@Z 0000000140006a50 f i libvcruntimed:per_thread_data.obj
 0001:00005a50       ??0?$__crt_unique_heap_ptr@DU__crt_internal_free_policy@@@@QEAA@QEAD@Z 0000000140006a50 f i libvcruntimed:std_type_info.obj
 0001:00005a50       ??0?$__crt_scoped_stack_ptr@_W@@QEAA@U?$__crt_scoped_stack_ptr_tag@_W@@@Z 0000000140006a50 f i libucrtd:getstringtypea.obj
 0001:00005a50       ??0__crt_stdio_stream@@QEAA@QEAU_iobuf@@@Z 0000000140006a50 f i libucrtd:output.obj
 0001:00005a50       ??0?$__crt_unique_heap_ptr@U__crt_lowio_handle_data@@U__crt_internal_free_policy@@@@QEAA@QEAU__crt_lowio_handle_data@@@Z 0000000140006a50 f i libucrtd:osfinfo.obj
 0001:00005a50       ??0?$string_output_adapter@D@__crt_stdio_output@@QEAA@QEAU?$string_output_adapter_context@D@1@@Z 0000000140006a50 f i libucrtd:output.obj
 0001:00005a50       ??0?$__crt_unique_heap_ptr@PEADU__crt_internal_free_policy@@@@QEAA@QEAPEAD@Z 0000000140006a50 f i libucrtd:argv_parsing.obj
 0001:00005a50       ??0?$__crt_unique_heap_ptr@U__acrt_ptd@@U__crt_internal_free_policy@@@@QEAA@QEAU__acrt_ptd@@@Z 0000000140006a50 f i libucrtd:per_thread_data.obj
 0001:00005a50       ??0?$string_output_adapter@_W@__crt_stdio_output@@QEAA@QEAU?$string_output_adapter_context@_W@1@@Z 0000000140006a50 f i libucrtd:output.obj
 0001:00005a50       ??0?$__crt_unique_heap_ptr@U__crt_multibyte_data@@U__crt_internal_free_policy@@@@QEAA@QEAU__crt_multibyte_data@@@Z 0000000140006a50 f i libucrtd:wsetlocale.obj
 0001:00005a50       ??0?$__crt_unique_heap_ptr@DU__crt_public_free_policy@@@@QEAA@QEAD@Z 0000000140006a50 f i libvcruntimed:std_exception.obj
 0001:00005a50       ??0?$__crt_unique_heap_ptr@EU__crt_internal_free_policy@@@@QEAA@QEAE@Z 0000000140006a50 f i libucrtd:argv_parsing.obj
 0001:00005a50       ??0?$__crt_unique_handle_t@U__crt_hmodule_traits@@@@QEAA@QEAUHINSTANCE__@@@Z 0000000140006a50 f i libucrtd:exit.obj
 0001:00005a50       ??0?$__crt_unique_handle_t@U__crt_findfile_traits@@@@QEAA@QEAX@Z 0000000140006a50 f i libucrtd:argv_wildcards.obj
 0001:00005a50       ??0__crt_stdio_stream@@QEAA@QEAU__crt_stdio_stream_data@@@Z 0000000140006a50 f i libucrtd:fflush.obj
 0001:00005a70       ??1?$__crt_unique_heap_ptr@DU__crt_public_free_policy@@@@QEAA@XZ 0000000140006a70 f i libvcruntimed:std_exception.obj
 0001:00005a90       ??B?$__crt_unique_heap_ptr@U__vcrt_ptd@@U__crt_internal_free_policy@@@@QEBA_NXZ 0000000140006a90 f i libvcruntimed:per_thread_data.obj
 0001:00005a90       ??B?$__crt_unique_heap_ptr@PEADU__crt_internal_free_policy@@@@QEBA_NXZ 0000000140006a90 f i libucrtd:environment_initialization.obj
 0001:00005a90       ??B?$__crt_unique_heap_ptr@EU__crt_internal_free_policy@@@@QEBA_NXZ 0000000140006a90 f i libucrtd:argv_parsing.obj
 0001:00005a90       ??B?$__crt_unique_heap_ptr@DU__crt_internal_free_policy@@@@QEBA_NXZ 0000000140006a90 f i libvcruntimed:std_type_info.obj
 0001:00005a90       ??B?$__crt_unique_heap_ptr@U__crt_multibyte_data@@U__crt_internal_free_policy@@@@QEBA_NXZ 0000000140006a90 f i libucrtd:wsetlocale.obj
 0001:00005a90       ??B?$__crt_unique_heap_ptr@U__acrt_ptd@@U__crt_internal_free_policy@@@@QEBA_NXZ 0000000140006a90 f i libucrtd:per_thread_data.obj
 0001:00005a90       ??B?$__crt_unique_heap_ptr@U__crt_lowio_handle_data@@U__crt_internal_free_policy@@@@QEBA_NXZ 0000000140006a90 f i libucrtd:osfinfo.obj
 0001:00005a90       ??B?$__crt_unique_heap_ptr@DU__crt_public_free_policy@@@@QEBA_NXZ 0000000140006a90 f i libvcruntimed:std_exception.obj
 0001:00005ab0       ?detach@?$__crt_unique_heap_ptr@P6AXXZU__crt_internal_free_policy@@@@QEAAPEAP6AXXZXZ 0000000140006ab0 f i libucrtd:onexit.obj
 0001:00005ab0       ?detach@?$__crt_unique_heap_ptr@U__vcrt_ptd@@U__crt_internal_free_policy@@@@QEAAPEAU__vcrt_ptd@@XZ 0000000140006ab0 f i libvcruntimed:per_thread_data.obj
 0001:00005ab0       ?detach@?$__crt_unique_heap_ptr@PEAU__crt_stdio_stream_data@@U__crt_internal_free_policy@@@@QEAAPEAPEAU__crt_stdio_stream_data@@XZ 0000000140006ab0 f i libucrtd:_file.obj
 0001:00005ab0       ?detach@?$__crt_unique_heap_ptr@U__acrt_ptd@@U__crt_internal_free_policy@@@@QEAAPEAU__acrt_ptd@@XZ 0000000140006ab0 f i libucrtd:per_thread_data.obj
 0001:00005ab0       ?detach@?$__crt_unique_heap_ptr@DU__crt_internal_free_policy@@@@QEAAPEADXZ 0000000140006ab0 f i libucrtd:environment_initialization.obj
 0001:00005ab0       ?detach@?$__crt_unique_heap_ptr@EU__crt_internal_free_policy@@@@QEAAPEAEXZ 0000000140006ab0 f i libucrtd:argv_parsing.obj
 0001:00005ab0       ?detach@?$__crt_unique_heap_ptr@U__crt_multibyte_data@@U__crt_internal_free_policy@@@@QEAAPEAU__crt_multibyte_data@@XZ 0000000140006ab0 f i libucrtd:wsetlocale.obj
 0001:00005ab0       ?detach@?$__crt_unique_heap_ptr@DU__crt_public_free_policy@@@@QEAAPEADXZ 0000000140006ab0 f i libvcruntimed:std_exception.obj
 0001:00005ab0       ?detach@?$__crt_unique_heap_ptr@PEADU__crt_internal_free_policy@@@@QEAAPEAPEADXZ 0000000140006ab0 f i libucrtd:argv_parsing.obj
 0001:00005ab0       ?detach@?$__crt_unique_heap_ptr@U__crt_lowio_handle_data@@U__crt_internal_free_policy@@@@QEAAPEAU__crt_lowio_handle_data@@XZ 0000000140006ab0 f i libucrtd:osfinfo.obj
 0001:00005ae0       ?get@?$__crt_scoped_stack_ptr@_W@@QEBAPEA_WXZ 0000000140006ae0 f i libucrtd:getstringtypea.obj
 0001:00005ae0       ?get@?$__crt_unique_heap_ptr@U__acrt_ptd@@U__crt_internal_free_policy@@@@QEBAPEAU__acrt_ptd@@XZ 0000000140006ae0 f i libucrtd:per_thread_data.obj
 0001:00005ae0       ?get@?$__crt_unique_heap_ptr@PEADU__crt_internal_free_policy@@@@QEBAPEAPEADXZ 0000000140006ae0 f i libucrtd:argv_parsing.obj
 0001:00005ae0       ?get@?$__crt_unique_heap_ptr@DU__crt_internal_free_policy@@@@QEBAPEADXZ 0000000140006ae0 f i libvcruntimed:std_type_info.obj
 0001:00005ae0       ?get@?$__crt_unique_heap_ptr@U__crt_lowio_handle_data@@U__crt_internal_free_policy@@@@QEBAPEAU__crt_lowio_handle_data@@XZ 0000000140006ae0 f i libucrtd:osfinfo.obj
 0001:00005ae0       ?get@?$__crt_unique_heap_ptr@EU__crt_internal_free_policy@@@@QEBAPEAEXZ 0000000140006ae0 f i libucrtd:argv_parsing.obj
 0001:00005ae0       ?get@?$__crt_unique_heap_ptr@U__vcrt_ptd@@U__crt_internal_free_policy@@@@QEBAPEAU__vcrt_ptd@@XZ 0000000140006ae0 f i libvcruntimed:per_thread_data.obj
 0001:00005ae0       ?public_stream@__crt_stdio_stream@@QEBAPEAU_iobuf@@XZ 0000000140006ae0 f i libucrtd:output.obj
 0001:00005ae0       ?get@?$__crt_unique_handle_t@U__crt_findfile_traits@@@@QEBAPEAXXZ 0000000140006ae0 f i libucrtd:argv_wildcards.obj
 0001:00005ae0       ?get@?$__crt_unique_handle_t@U__crt_hmodule_traits@@@@QEBAPEAUHINSTANCE__@@XZ 0000000140006ae0 f i libucrtd:exit.obj
 0001:00005ae0       ?save_state@?$c_string_character_source@D@__crt_strtox@@QEBAPEBDXZ 0000000140006ae0 f i libucrtd:output.obj
 0001:00005ae0       ?save_state@?$c_string_character_source@_W@__crt_strtox@@QEBAPEB_WXZ 0000000140006ae0 f i libucrtd:output.obj
 0001:00005ae0       ?get@?$__crt_unique_heap_ptr@U__crt_multibyte_data@@U__crt_internal_free_policy@@@@QEBAPEAU__crt_multibyte_data@@XZ 0000000140006ae0 f i libucrtd:wsetlocale.obj
 0001:00005ae0       ??C__crt_stdio_stream@@QEBAPEAU__crt_stdio_stream_data@@XZ 0000000140006ae0 f i libucrtd:output.obj
 0001:00005ae0       ?get@?$__crt_unique_heap_ptr@DU__crt_public_free_policy@@@@QEBAPEADXZ 0000000140006ae0 f i libvcruntimed:std_exception.obj
 0001:00005af0       ?is_valid@?$__crt_unique_heap_ptr@EU__crt_internal_free_policy@@@@QEBA_NXZ 0000000140006af0 f i libucrtd:argv_parsing.obj
 0001:00005af0       ?is_valid@?$__crt_unique_heap_ptr@U__crt_lowio_handle_data@@U__crt_internal_free_policy@@@@QEBA_NXZ 0000000140006af0 f i libucrtd:osfinfo.obj
 0001:00005af0       ?is_valid@?$__crt_unique_heap_ptr@U__crt_multibyte_data@@U__crt_internal_free_policy@@@@QEBA_NXZ 0000000140006af0 f i libucrtd:wsetlocale.obj
 0001:00005af0       ?is_valid@?$__crt_unique_heap_ptr@DU__crt_public_free_policy@@@@QEBA_NXZ 0000000140006af0 f i libvcruntimed:std_exception.obj
 0001:00005af0       ?is_valid@?$__crt_unique_heap_ptr@DU__crt_internal_free_policy@@@@QEBA_NXZ 0000000140006af0 f i libvcruntimed:std_type_info.obj
 0001:00005af0       ?is_valid@?$__crt_unique_heap_ptr@PEADU__crt_internal_free_policy@@@@QEBA_NXZ 0000000140006af0 f i libucrtd:environment_initialization.obj
 0001:00005af0       ?valid@__crt_stdio_stream@@QEBA_NXZ 0000000140006af0 f i libucrtd:output.obj
 0001:00005af0       ?is_valid@?$__crt_unique_heap_ptr@U__acrt_ptd@@U__crt_internal_free_policy@@@@QEBA_NXZ 0000000140006af0 f i libucrtd:per_thread_data.obj
 0001:00005af0       ??B?$__crt_scoped_stack_ptr@_W@@QEBA_NXZ 0000000140006af0 f i libucrtd:lcmapstringa.obj
 0001:00005af0       ?is_valid@?$__crt_unique_heap_ptr@U__vcrt_ptd@@U__crt_internal_free_policy@@@@QEBA_NXZ 0000000140006af0 f i libvcruntimed:per_thread_data.obj
 0001:00005b20       ?release@?$__crt_unique_heap_ptr@DU__crt_public_free_policy@@@@QEAAXXZ 0000000140006b20 f i libvcruntimed:std_exception.obj
 0001:00005b50       __std_exception_copy       0000000140006b50 f   libvcruntimed:std_exception.obj
 0001:00005c90       __std_exception_destroy    0000000140006c90 f   libvcruntimed:std_exception.obj
 0001:00005cd0       _CxxThrowException         0000000140006cd0 f   libvcruntimed:throw.obj
 0001:00005e00       __vcrt_initialize          0000000140006e00 f   libvcruntimed:initialization.obj
 0001:00005e40       __vcrt_uninitialize        0000000140006e40 f   libvcruntimed:initialization.obj
 0001:00005e60       ??$?RU__crt_lowio_handle_data@@@__crt_internal_free_policy@@QEBAXQEBU__crt_lowio_handle_data@@@Z 0000000140006e60 f i libucrtd:osfinfo.obj
 0001:00005e60       ??$?RU__crt_multibyte_data@@@__crt_internal_free_policy@@QEBAXQEBU__crt_multibyte_data@@@Z 0000000140006e60 f i libucrtd:wsetlocale.obj
 0001:00005e60       ??$?RPEAU__crt_stdio_stream_data@@@__crt_internal_free_policy@@QEBAXQEBQEAU__crt_stdio_stream_data@@@Z 0000000140006e60 f i libucrtd:_file.obj
 0001:00005e60       ??$?RP6AXXZ@__crt_internal_free_policy@@QEBAXQEBQ6AXXZ@Z 0000000140006e60 f i libucrtd:onexit.obj
 0001:00005e60       ??$?RE@__crt_internal_free_policy@@QEBAXQEBE@Z 0000000140006e60 f i libucrtd:argv_parsing.obj
 0001:00005e60       ??$?RU__acrt_ptd@@@__crt_internal_free_policy@@QEBAXQEBU__acrt_ptd@@@Z 0000000140006e60 f i libucrtd:per_thread_data.obj
 0001:00005e60       ??$?RU__vcrt_ptd@@@__crt_internal_free_policy@@QEBAXQEBU__vcrt_ptd@@@Z 0000000140006e60 f i libvcruntimed:per_thread_data.obj
 0001:00005e60       ??$?RPEAD@__crt_internal_free_policy@@QEBAXQEBQEAD@Z 0000000140006e60 f i libucrtd:argv_parsing.obj
 0001:00005e60       ??$?RD@__crt_internal_free_policy@@QEBAXQEBD@Z 0000000140006e60 f i libvcruntimed:std_type_info.obj
 0001:00005e90       ??1?$__crt_unique_heap_ptr@U__vcrt_ptd@@U__crt_internal_free_policy@@@@QEAA@XZ 0000000140006e90 f i libvcruntimed:per_thread_data.obj
 0001:00005e90       ??1?$__crt_unique_heap_ptr@DU__crt_internal_free_policy@@@@QEAA@XZ 0000000140006e90 f i libvcruntimed:std_type_info.obj
 0001:00005e90       ??1?$__crt_unique_heap_ptr@PEADU__crt_internal_free_policy@@@@QEAA@XZ 0000000140006e90 f i libucrtd:argv_parsing.obj
 0001:00005e90       ??1?$__crt_unique_heap_ptr@PEAU__crt_stdio_stream_data@@U__crt_internal_free_policy@@@@QEAA@XZ 0000000140006e90 f i libucrtd:_file.obj
 0001:00005e90       ??1?$__crt_unique_heap_ptr@EU__crt_internal_free_policy@@@@QEAA@XZ 0000000140006e90 f i libucrtd:argv_parsing.obj
 0001:00005e90       ??1?$__crt_unique_heap_ptr@P6AXXZU__crt_internal_free_policy@@@@QEAA@XZ 0000000140006e90 f i libucrtd:onexit.obj
 0001:00005e90       ??1?$__crt_unique_heap_ptr@U__crt_multibyte_data@@U__crt_internal_free_policy@@@@QEAA@XZ 0000000140006e90 f i libucrtd:wsetlocale.obj
 0001:00005e90       ??1?$__crt_unique_heap_ptr@U__crt_lowio_handle_data@@U__crt_internal_free_policy@@@@QEAA@XZ 0000000140006e90 f i libucrtd:osfinfo.obj
 0001:00005e90       ??1?$__crt_unique_heap_ptr@U__acrt_ptd@@U__crt_internal_free_policy@@@@QEAA@XZ 0000000140006e90 f i libucrtd:per_thread_data.obj
 0001:00005eb0       ?__crt_interlocked_read_64@@YA_JPED_J@Z 0000000140006eb0 f i libvcruntimed:std_type_info.obj
 0001:00005ed0       ?release@?$__crt_unique_heap_ptr@U__crt_multibyte_data@@U__crt_internal_free_policy@@@@QEAAXXZ 0000000140006ed0 f i libucrtd:wsetlocale.obj
 0001:00005ed0       ?release@?$__crt_unique_heap_ptr@U__crt_lowio_handle_data@@U__crt_internal_free_policy@@@@QEAAXXZ 0000000140006ed0 f i libucrtd:osfinfo.obj
 0001:00005ed0       ?release@?$__crt_unique_heap_ptr@U__acrt_ptd@@U__crt_internal_free_policy@@@@QEAAXXZ 0000000140006ed0 f i libucrtd:per_thread_data.obj
 0001:00005ed0       ?release@?$__crt_unique_heap_ptr@PEAU__crt_stdio_stream_data@@U__crt_internal_free_policy@@@@QEAAXXZ 0000000140006ed0 f i libucrtd:_file.obj
 0001:00005ed0       ?release@?$__crt_unique_heap_ptr@U__vcrt_ptd@@U__crt_internal_free_policy@@@@QEAAXXZ 0000000140006ed0 f i libvcruntimed:per_thread_data.obj
 0001:00005ed0       ?release@?$__crt_unique_heap_ptr@DU__crt_internal_free_policy@@@@QEAAXXZ 0000000140006ed0 f i libvcruntimed:std_type_info.obj
 0001:00005ed0       ?release@?$__crt_unique_heap_ptr@PEADU__crt_internal_free_policy@@@@QEAAXXZ 0000000140006ed0 f i libucrtd:argv_parsing.obj
 0001:00005ed0       ?release@?$__crt_unique_heap_ptr@P6AXXZU__crt_internal_free_policy@@@@QEAAXXZ 0000000140006ed0 f i libucrtd:onexit.obj
 0001:00005ed0       ?release@?$__crt_unique_heap_ptr@EU__crt_internal_free_policy@@@@QEAAXXZ 0000000140006ed0 f i libucrtd:argv_parsing.obj
 0001:00005f00       __std_type_info_compare    0000000140006f00 f   libvcruntimed:std_type_info.obj
 0001:00005f40       __DestructExceptionObject  0000000140006f40 f   libvcruntimed:ehhelpers.obj
 0001:00006040       ?_CallMemberFunction0@@YAXQEAX0@Z 0000000140007040 f i libvcruntimed:ehhelpers.obj
 0001:00006110       _IsExceptionObjectToBeDestroyed 0000000140007110 f   libvcruntimed:ehhelpers.obj
 0001:00006160       __AdjustPointer            0000000140007160 f   libvcruntimed:ehhelpers.obj
 0001:000061e0       __FrameUnwindFilter        00000001400071e0 f   libvcruntimed:ehhelpers.obj
 0001:00006290       __current_exception        0000000140007290 f   libvcruntimed:ehhelpers.obj
 0001:000062b0       __current_exception_context 00000001400072b0 f   libvcruntimed:ehhelpers.obj
 0001:000062e0       _NLG_Notify                00000001400072e0 f   libvcruntimed:notify.obj
 0001:00006300       __NLG_Dispatch2            0000000140007300 f   libvcruntimed:notify.obj
 0001:00006310       __NLG_Return2              0000000140007310 f   libvcruntimed:notify.obj
 0001:00006320       __except_validate_context_record 0000000140007320 f   libvcruntimed:jbcxrval.obj
 0001:00006400       __vcrt_freefls             0000000140007400 f   libvcruntimed:per_thread_data.obj
 0001:00006440       __vcrt_getptd              0000000140007440 f   libvcruntimed:per_thread_data.obj
 0001:00006470       __vcrt_getptd_noexit       0000000140007470 f   libvcruntimed:per_thread_data.obj
 0001:00006610       __vcrt_initialize_ptd      0000000140007610 f   libvcruntimed:per_thread_data.obj
 0001:00006660       __vcrt_uninitialize_ptd    0000000140007660 f   libvcruntimed:per_thread_data.obj
 0001:00006690       __vcrt_initialize_locks    0000000140007690 f   libvcruntimed:locks.obj
 0001:00006700       __vcrt_uninitialize_locks  0000000140007700 f   libvcruntimed:locks.obj
 0001:00006760       _vsprintf_s_l              0000000140007760 f i libvcruntimed:undname.obj
 0001:000067d0       sprintf_s                  00000001400077d0 f i libvcruntimed:undname.obj
 0001:00006830       ??$__crt_interlocked_exchange_pointer@XPEAX@@YAPEAXPEDSEAXQEAX@Z 0000000140007830 f i libvcruntimed:winapi_downlevel.obj
 0001:00006830       ??$__crt_interlocked_exchange_pointer@UHINSTANCE__@@PEAX@@YAPEAUHINSTANCE__@@PEDSEAU0@QEAX@Z 0000000140007830 f i libvcruntimed:winapi_downlevel.obj
 0001:00006830       ??$__crt_interlocked_exchange_pointer@UHINSTANCE__@@PEAU1@@@YAPEAUHINSTANCE__@@PEDSEAU0@QEAU0@@Z 0000000140007830 f i libvcruntimed:winapi_downlevel.obj
 0001:00006850       ??$__crt_interlocked_read_pointer@UHINSTANCE__@@@@YAPEAUHINSTANCE__@@PEDSEAU0@@Z 0000000140007850 f i libvcruntimed:winapi_downlevel.obj
 0001:00006850       ??$__crt_interlocked_read_pointer@X@@YAPEAXPEDSEAX@Z 0000000140007850 f i libvcruntimed:winapi_downlevel.obj
 0001:00006870       ?get_invalid_value@__crt_findfile_traits@@SAPEAXXZ 0000000140007870 f   libucrtd:argv_wildcards.obj
 0001:00006d60       __vcrt_FlsAlloc            0000000140007d60 f   libvcruntimed:winapi_downlevel.obj
 0001:00006db0       __vcrt_FlsFree             0000000140007db0 f   libvcruntimed:winapi_downlevel.obj
 0001:00006e00       __vcrt_FlsGetValue         0000000140007e00 f   libvcruntimed:winapi_downlevel.obj
 0001:00006e50       __vcrt_FlsSetValue         0000000140007e50 f   libvcruntimed:winapi_downlevel.obj
 0001:00006eb0       __vcrt_InitializeCriticalSectionEx 0000000140007eb0 f   libvcruntimed:winapi_downlevel.obj
 0001:00006f30       memcpy_repmovs             0000000140007f30 f   libvcruntimed:memcpy.obj
 0001:00006f50       memcpy                     0000000140007f50 f   libvcruntimed:memcpy.obj
 0001:00006f50       memmove                    0000000140007f50 f   libvcruntimed:memcpy.obj
 0001:000075d0       ??$?0AEAViterator@TryBlockMap@__FrameHandler3@@AEAV012@$0A@@?$pair@Viterator@TryBlockMap@__FrameHandler3@@V123@@std@@QEAA@AEAViterator@TryBlockMap@__FrameHandler3@@0@Z 00000001400085d0 f i libvcruntimed:risctrnsctrl.obj
 0001:000076e0       ??$_CallSETranslator@V__FrameHandler3@@@@YAHPEAUEHExceptionRecord@@PEA_KPEAU_CONTEXT@@PEAU_xDISPATCHER_CONTEXT@@PEBU_s_FuncInfo@@K1H@Z 00000001400086e0 f i libvcruntimed:risctrnsctrl.obj
 0001:00007770       ?debug_info@?$__crt_win32_buffer@DU__crt_win32_buffer_internal_dynamic_resizing@@@@QEBAAEBV__crt_win32_buffer_empty_debug_info@@XZ 0000000140008770 f i libucrtd:argv_wildcards.obj
 0001:00007770       ?dangerous_get_state_array@?$dual_state_global@H@__crt_state_management@@QEAAPEAHXZ 0000000140008770 f i libucrtd:txtmode.obj
 0001:00007770       ?debug_info@?$__crt_win32_buffer@DU__crt_win32_buffer_no_resizing@@@@QEBAAEBV__crt_win32_buffer_empty_debug_info@@XZ 0000000140008770 f i libucrtd:getmodulefilenamea.obj
 0001:00007770       ?dangerous_get_state_array@?$dual_state_global@PEAE@__crt_state_management@@QEAAPEAPEAEXZ 0000000140008770 f i libucrtd:mbctype.obj
 0001:00007770       ?dangerous_get_state_array@?$dual_state_global@P6AXPEB_W00I_K@Z@__crt_state_management@@QEAAPEAP6AXPEB_W00I_K@ZXZ 0000000140008770 f i libucrtd:invalid_parameter.obj
 0001:00007770       ?dangerous_get_state_array@?$dual_state_global@PEAU__crt_locale_data@@@__crt_state_management@@QEAAPEAPEAU__crt_locale_data@@XZ 0000000140008770 f i libucrtd:per_thread_data.obj
 0001:00007770       ?debug_info@?$__crt_win32_buffer@_WU__crt_win32_buffer_internal_dynamic_resizing@@@@QEBAAEBV__crt_win32_buffer_empty_debug_info@@XZ 0000000140008770 f i libucrtd:argv_wildcards.obj
 0001:00007770       ?get_address_of@?$__crt_unique_handle_t@U__crt_hmodule_traits@@@@QEAAPEAPEAUHINSTANCE__@@XZ 0000000140008770 f i libucrtd:exit.obj
 0001:00007770       ?get_address_of@?$__crt_unique_heap_ptr@PEADU__crt_internal_free_policy@@@@QEAAPEAPEAPEADXZ 0000000140008770 f i libucrtd:argv_parsing.obj
 0001:00007770       ??$forward@AEAViterator@TryBlockMap@__FrameHandler3@@@std@@YAAEAViterator@TryBlockMap@__FrameHandler3@@AEAV123@@Z 0000000140008770 f i libvcruntimed:risctrnsctrl.obj
 0001:00007770       ?dangerous_get_state_array@?$dual_state_global@PEAU__crt_multibyte_data@@@__crt_state_management@@QEAAPEAPEAU__crt_multibyte_data@@XZ 0000000140008770 f i libucrtd:mbctype.obj
 0001:00007780       ??0iterator@HandlerMap@__FrameHandler3@@QEAA@AEAV12@I@Z 0000000140008780 f i libvcruntimed:frame.obj
 0001:00007780       ??0iterator@TryBlockMap@__FrameHandler3@@QEAA@AEAV12@I@Z 0000000140008780 f i libvcruntimed:risctrnsctrl.obj
 0001:000077b0       ?CatchTryBlock@__FrameHandler3@@SAPEBU_s_TryBlockMapEntry@@PEBU_s_FuncInfo@@H@Z 00000001400087b0 f   libvcruntimed:risctrnsctrl.obj
 0001:00007840       ?ExecutionInCatch@__FrameHandler3@@SA_NPEAU_xDISPATCHER_CONTEXT@@PEBU_s_FuncInfo@@@Z 0000000140008840 f   libvcruntimed:risctrnsctrl.obj
 0001:00007890       ?FrameUnwindToEmptyState@__FrameHandler3@@SAXPEA_KPEAU_xDISPATCHER_CONTEXT@@PEBU_s_FuncInfo@@@Z 0000000140008890 f   libvcruntimed:risctrnsctrl.obj
 0001:00007930       ?GetEstablisherFrame@__FrameHandler3@@SAPEA_KPEA_KPEAU_xDISPATCHER_CONTEXT@@PEBU_s_FuncInfo@@0@Z 0000000140008930 f   libvcruntimed:risctrnsctrl.obj
 0001:00007aa0       ?GetRangeOfTrysToCheck@__FrameHandler3@@SA?AU?$pair@Viterator@TryBlockMap@__FrameHandler3@@V123@@std@@AEAVTryBlockMap@1@HPEAU_xDISPATCHER_CONTEXT@@PEBU_s_FuncInfo@@H@Z 0000000140008aa0 f   libvcruntimed:risctrnsctrl.obj
 0001:00007ce0       ?UnwindNestedFrames@__FrameHandler3@@SAXPEA_KPEAUEHExceptionRecord@@PEAU_CONTEXT@@0PEAXPEBU_s_FuncInfo@@HHPEBU_s_HandlerType@@PEAU_xDISPATCHER_CONTEXT@@E@Z 0000000140008ce0 f   libvcruntimed:risctrnsctrl.obj
 0001:00007e50       _CreateFrameInfo           0000000140008e50 f   libvcruntimed:risctrnsctrl.obj
 0001:00007ec0       _FindAndUnlinkFrame        0000000140008ec0 f   libvcruntimed:risctrnsctrl.obj
 0001:00007f40       _GetImageBase              0000000140008f40 f   libvcruntimed:risctrnsctrl.obj
 0001:00007f60       _GetThrowImageBase         0000000140008f60 f   libvcruntimed:risctrnsctrl.obj
 0001:00007f80       _SetImageBase              0000000140008f80 f   libvcruntimed:risctrnsctrl.obj
 0001:00007fa0       _SetThrowImageBase         0000000140008fa0 f   libvcruntimed:risctrnsctrl.obj
 0001:00007fc0       __CxxFrameHandler3         0000000140008fc0 f   libvcruntimed:risctrnsctrl.obj
 0001:000080a0       ?GetCurrentState@__FrameHandler3@@SAHPEA_KPEAU_xDISPATCHER_CONTEXT@@PEBU_s_FuncInfo@@@Z 00000001400090a0 f   libvcruntimed:ehstate.obj
 0001:00008100       ?GetUnwindTryBlock@__FrameHandler3@@SAHPEA_KPEAU_xDISPATCHER_CONTEXT@@PEBU_s_FuncInfo@@@Z 0000000140009100 f   libvcruntimed:ehstate.obj
 0001:00008150       ?SetState@__FrameHandler3@@SAXPEA_KPEBU_s_FuncInfo@@H@Z 0000000140009150 f   libvcruntimed:ehstate.obj
 0001:00008180       ?SetUnwindTryBlock@__FrameHandler3@@SAXPEA_KPEAU_xDISPATCHER_CONTEXT@@PEBU_s_FuncInfo@@H@Z 0000000140009180 f   libvcruntimed:ehstate.obj
 0001:000081f0       ?StateFromControlPc@__FrameHandler3@@SAHPEBU_s_FuncInfo@@PEAU_xDISPATCHER_CONTEXT@@@Z 00000001400091f0 f   libvcruntimed:ehstate.obj
 0001:00008230       ?StateFromIp@__FrameHandler3@@SAHPEBU_s_FuncInfo@@PEAU_xDISPATCHER_CONTEXT@@_K@Z 0000000140009230 f   libvcruntimed:ehstate.obj
 0001:00008320       ?__RVAtoRealOffset@@YA_KPEAU_xDISPATCHER_CONTEXT@@H@Z 0000000140009320 f i libvcruntimed:ehstate.obj
 0001:000094f0       ??$TypeMatchHelper@V__FrameHandler3@@@@YAHPEBU_s_HandlerType@@PEBU_s_CatchableType@@PEBU_s_ThrowInfo@@@Z 000000014000a4f0 f i libvcruntimed:frame.obj
 0001:000096f0       ??$__InternalCxxFrameHandler@V__FrameHandler3@@@@YA?AW4_EXCEPTION_DISPOSITION@@PEAUEHExceptionRecord@@PEA_KPEAU_CONTEXT@@PEAU_xDISPATCHER_CONTEXT@@PEBU_s_FuncInfo@@H1E@Z 000000014000a6f0 f i libvcruntimed:frame.obj
 0001:00009b60       ??0HandlerMap@__FrameHandler3@@QEAA@PEBU_s_TryBlockMapEntry@@_KI@Z 000000014000ab60 f i libvcruntimed:frame.obj
 0001:00009bb0       ??0TryBlockMap@__FrameHandler3@@QEAA@PEBU_s_FuncInfo@@_K@Z 000000014000abb0 f i libvcruntimed:frame.obj
 0001:00009be0       ??0bad_exception@std@@QEAA@AEBV01@@Z 000000014000abe0 f i libvcruntimed:frame.obj
 0001:00009c20       ??0bad_exception@std@@QEAA@XZ 000000014000ac20 f i libvcruntimed:frame.obj
 0001:00009c60       ??8iterator@HandlerMap@__FrameHandler3@@QEBA_NAEBV012@@Z 000000014000ac60 f i libvcruntimed:frame.obj
 0001:00009ca0       ??8type_info@@QEBA_NAEBV0@@Z 000000014000aca0 f i libvcruntimed:frame.obj
 0001:00009cf0       ??9iterator@HandlerMap@__FrameHandler3@@QEBA_NAEBV012@@Z 000000014000acf0 f i libvcruntimed:frame.obj
 0001:00009d30       ??Diterator@HandlerMap@__FrameHandler3@@QEAA?BU_s_HandlerType@@XZ 000000014000ad30 f i libvcruntimed:frame.obj
 0001:00009d70       ??Diterator@TryBlockMap@__FrameHandler3@@QEAA?BU_s_TryBlockMapEntry@@XZ 000000014000ad70 f i libvcruntimed:frame.obj
 0001:00009dc0       ??Eiterator@HandlerMap@__FrameHandler3@@QEAAAEAV012@XZ 000000014000adc0 f i libvcruntimed:frame.obj
 0001:00009dc0       ??Eiterator@TryBlockMap@__FrameHandler3@@QEAAAEAV012@XZ 000000014000adc0 f i libvcruntimed:frame.obj
 0001:00009de0       ??Miterator@TryBlockMap@__FrameHandler3@@QEBA_NAEBV012@@Z 000000014000ade0 f i libvcruntimed:frame.obj
 0001:00009e20       ?BuildCatchObject@__FrameHandler3@@SAXPEAUEHExceptionRecord@@PEAXPEBU_s_HandlerType@@PEBU_s_CatchableType@@@Z 000000014000ae20 f   libvcruntimed:frame.obj
 0001:00009e60       ?CxxCallCatchBlock@__FrameHandler3@@SAPEAXPEAU_EXCEPTION_RECORD@@@Z 000000014000ae60 f   libvcruntimed:frame.obj
 0001:0000a1c0       ?FrameUnwindToState@__FrameHandler3@@SAXPEA_KPEAU_xDISPATCHER_CONTEXT@@PEBU_s_FuncInfo@@H@Z 000000014000b1c0 f   libvcruntimed:frame.obj
 0001:0000a410       ?GetHandlerSearchState@__FrameHandler3@@SAHPEA_KPEAU_xDISPATCHER_CONTEXT@@PEBU_s_FuncInfo@@@Z 000000014000b410 f i libvcruntimed:frame.obj
 0001:0000a4c0       ?GetMaxState@__FrameHandler3@@SAHPEAU_xDISPATCHER_CONTEXT@@PEBU_s_FuncInfo@@@Z 000000014000b4c0 f i libvcruntimed:frame.obj
 0001:0000a6c0       __TypeMatch                000000014000b6c0 f   libvcruntimed:frame.obj
 0001:0000a6c0       ?TypeMatch@__FrameHandler3@@SAHPEBU_s_HandlerType@@PEBU_s_CatchableType@@PEBU_s_ThrowInfo@@@Z 000000014000b6c0 f   libvcruntimed:frame.obj
 0001:0000a6f0       ?_CallMemberFunction1@@YAXQEAX00@Z 000000014000b6f0 f i libvcruntimed:frame.obj
 0001:0000a730       ?_CallMemberFunction2@@YAXQEAX00H@Z 000000014000b730 f i libvcruntimed:frame.obj
 0001:0000a7c0       ?begin@HandlerMap@__FrameHandler3@@QEAA?AViterator@12@XZ 000000014000b7c0 f i libvcruntimed:frame.obj
 0001:0000a7f0       ?end@HandlerMap@__FrameHandler3@@QEAA?AViterator@12@XZ 000000014000b7f0 f i libvcruntimed:frame.obj
 0001:0000a820       ?getESTypes@__FrameHandler3@@SAPEBU_s_ESTypeList@@PEBU_s_FuncInfo@@@Z 000000014000b820 f i libvcruntimed:frame.obj
 0001:0000a860       ?getLastEntry@HandlerMap@__FrameHandler3@@QEAAPEBU_s_HandlerType@@XZ 000000014000b860 f i libvcruntimed:frame.obj
 0001:0000a880       ?getMagicNum@__FrameHandler3@@SAIPEBU_s_FuncInfo@@@Z 000000014000b880 f i libvcruntimed:frame.obj
 0001:0000a8a0       ?getNumTryBlocks@TryBlockMap@__FrameHandler3@@QEAAIXZ 000000014000b8a0 f i libvcruntimed:frame.obj
 0001:0000a8c0       ?isEHs@__FrameHandler3@@SA_NPEBU_s_FuncInfo@@@Z 000000014000b8c0 f i libvcruntimed:frame.obj
 0001:0000a900       ?isNoExcept@__FrameHandler3@@SA_NPEBU_s_FuncInfo@@@Z 000000014000b900 f i libvcruntimed:frame.obj
 0001:0000a940       __vcrt_EncodePointer       000000014000b940 f i libvcruntimed:frame.obj
 0001:0000a970       memset_repmovs             000000014000b970 f   libvcruntimed:memset.obj
 0001:0000a990       memset                     000000014000b990 f   libvcruntimed:memset.obj
 0001:0000ab30       _CallSettingFrame          000000014000bb30 f   libvcruntimed:handlers.obj
 0001:0000ab80       _CallSettingFrame_LookupContinuationIndex 000000014000bb80 f   libvcruntimed:handlers.obj
 0001:0000abb0       _CallSettingFrame_NotifyContinuationAddr 000000014000bbb0 f   libvcruntimed:handlers.obj
 0001:0000abe0       _CallSettingFrameEncoded   000000014000bbe0 f   libvcruntimed:handlers.obj
 0001:0000ac30       atan2f                     000000014000bc30 f   libucrtd:atan2f.obj
 0001:0000b730       cosf                       000000014000c730 f   libucrtd:cosf.obj
 0001:0000bc30       sinf                       000000014000cc30 f   libucrtd:sinf.obj
 0001:0000c330       sqrtf                      000000014000d330 f   libucrtd:sqrtf.obj
 0001:0000c470       ??$__crt_fast_decode_pointer@P6AXPEAXK0@Z@@YAP6AXPEAXK0@ZQ6AX0K0@Z@Z 000000014000d470 f i libucrtd:exit.obj
 0001:0000c470       ??$__crt_fast_decode_pointer@P6AXXZ@@YAP6AXXZQ6AXXZ@Z 000000014000d470 f i libucrtd:onexit.obj
 0001:0000c470       ??$__crt_fast_decode_pointer@PEAP6AXXZ@@YAPEAP6AXXZQEAP6AXXZ@Z 000000014000d470 f i libucrtd:onexit.obj
 0001:0000c470       ??$__crt_fast_decode_pointer@PEAX@@YAPEAXQEAX@Z 000000014000d470 f i libucrtd:winapi_thunks.obj
 0001:0000c470       ??$__crt_fast_decode_pointer@P6AXH@Z@@YAP6AXH@ZQ6AXH@Z@Z 000000014000d470 f i libucrtd:signal.obj
 0001:0000c470       ??$__crt_fast_decode_pointer@P6AXPEB_W00I_K@Z@@YAP6AXPEB_W00I_K@ZQ6AX000I1@Z@Z 000000014000d470 f i libucrtd:invalid_parameter.obj
 0001:0000c470       ??$__crt_fast_decode_pointer@P6AH_K@Z@@YAP6AH_K@ZQ6AH0@Z@Z 000000014000d470 f i libucrtd:new_handler.obj
 0001:0000c470       ??$__crt_fast_decode_pointer@P6AHPEAU_exception@@@Z@@YAP6AHPEAU_exception@@@ZQ6AH0@Z@Z 000000014000d470 f i libucrtd:matherr.obj
 0001:0000c4b0       ?__crt_fast_encode_pointer@@YA?AU__crt_fast_encoded_nullptr_t@@$$T@Z 000000014000d4b0 f i libucrtd:new_handler.obj
 0001:0000c4d0       ?__crt_rotate_pointer_value@@YA_K_KH@Z 000000014000d4d0 f i libucrtd:new_handler.obj
 0001:0000c4f0       ?initialize@?$dual_state_global@PEAU__crt_multibyte_data@@@__crt_state_management@@QEAAXQEAU__crt_multibyte_data@@@Z 000000014000d4f0 f i libucrtd:mbctype.obj
 0001:0000c4f0       ?initialize@?$dual_state_global@P6AXH@Z@__crt_state_management@@QEAAXQ6AXH@Z@Z 000000014000d4f0 f i libucrtd:signal.obj
 0001:0000c4f0       ?initialize@?$dual_state_global@P6AH_K@Z@__crt_state_management@@QEAAXQ6AH_K@Z@Z 000000014000d4f0 f i libucrtd:new_handler.obj
 0001:0000c4f0       ?initialize@?$dual_state_global@PEAPEAD@__crt_state_management@@QEAAXQEAPEAD@Z 000000014000d4f0 f i libucrtd:environment_initialization.obj
 0001:0000c4f0       ?initialize@?$dual_state_global@P6AHPEAU_exception@@@Z@__crt_state_management@@QEAAXQ6AHPEAU_exception@@@Z@Z 000000014000d4f0 f i libucrtd:matherr.obj
 0001:0000c4f0       ?initialize@?$dual_state_global@PEAU__crt_locale_data@@@__crt_state_management@@QEAAXQEAU__crt_locale_data@@@Z 000000014000d4f0 f i libucrtd:initialization.obj
 0001:0000c540       ?value@?$dual_state_global@P6AH_K@Z@__crt_state_management@@QEAAAEAP6AH_K@ZXZ 000000014000d540 f i libucrtd:new_handler.obj
 0001:0000c540       ?value@?$dual_state_global@P6AHPEAU_exception@@@Z@__crt_state_management@@QEAAAEAP6AHPEAU_exception@@@ZXZ 000000014000d540 f i libucrtd:matherr.obj
 0001:0000c540       ?value@?$dual_state_global@P6AXH@Z@__crt_state_management@@QEAAAEAP6AXH@ZXZ 000000014000d540 f i libucrtd:signal.obj
 0001:0000c540       ?value@?$dual_state_global@PEAE@__crt_state_management@@QEAAAEAPEAEXZ 000000014000d540 f i libucrtd:mbctype.obj
 0001:0000c540       ?value@?$dual_state_global@PEAPEAD@__crt_state_management@@QEAAAEAPEAPEADXZ 000000014000d540 f i libucrtd:environment_initialization.obj
 0001:0000c540       ?value@?$dual_state_global@PEAU__crt_locale_data@@@__crt_state_management@@QEAAAEAPEAU__crt_locale_data@@XZ 000000014000d540 f i libucrtd:wsetlocale.obj
 0001:0000c540       ?value@?$dual_state_global@PEAU__crt_multibyte_data@@@__crt_state_management@@QEAAAEAPEAU__crt_multibyte_data@@XZ 000000014000d540 f i libucrtd:mbctype.obj
 0001:0000c560       __acrt_initialize_new_handler 000000014000d560 f   libucrtd:new_handler.obj
 0001:0000c580       _callnewh                  000000014000d580 f   libucrtd:new_handler.obj
 0001:0000c5e0       _query_new_handler         000000014000d5e0 f   libucrtd:new_handler.obj
 0001:0000c620       malloc                     000000014000d620 f   libucrtd:malloc.obj
 0001:0000c6c0       _seh_filter_exe            000000014000d6c0 f   libucrtd:exception_filter.obj
 0001:0000cb60       __acrt_report_runtime_error 000000014000db60 f   libucrtd:report_runtime_error.obj
 0001:0000cde0       _invoke_watson_if_error    000000014000dde0 f i libucrtd:report_runtime_error.obj
 0001:0000ce30       _query_app_type            000000014000de30 f   libucrtd:report_runtime_error.obj
 0001:0000ce40       _set_app_type              000000014000de40 f   libucrtd:report_runtime_error.obj
 0001:0000ce50       ??$__crt_fast_encode_pointer@P6AXH@Z@@YAP6AXH@ZQ6AXH@Z@Z 000000014000de50 f i libucrtd:signal.obj
 0001:0000ce50       ??$__crt_fast_encode_pointer@P6AXPEAXK0@Z@@YAP6AXPEAXK0@ZQ6AX0K0@Z@Z 000000014000de50 f i libucrtd:exit.obj
 0001:0000ce50       ??$__crt_fast_encode_pointer@P6AXXZ@@YAP6AXXZQ6AXXZ@Z 000000014000de50 f i libucrtd:onexit.obj
 0001:0000ce50       ??$__crt_fast_encode_pointer@P6AHPEAU_exception@@@Z@@YAP6AHPEAU_exception@@@ZQ6AH0@Z@Z 000000014000de50 f i libucrtd:matherr.obj
 0001:0000ce50       ??$__crt_fast_encode_pointer@P6AHXZ@@YAP6AHXZQ6AHXZ@Z 000000014000de50 f i libucrtd:onexit.obj
 0001:0000ce50       ??$__crt_fast_encode_pointer@PEAX@@YAPEAXQEAX@Z 000000014000de50 f i libucrtd:initialization.obj
 0001:0000ce50       ??$__crt_fast_encode_pointer@PEAP6AXXZ@@YAPEAP6AXXZQEAP6AXXZ@Z 000000014000de50 f i libucrtd:onexit.obj
 0001:0000ce90       __acrt_has_user_matherr    000000014000de90 f   libucrtd:matherr.obj
 0001:0000ced0       __acrt_initialize_user_matherr 000000014000ded0 f   libucrtd:matherr.obj
 0001:0000cef0       __acrt_invoke_user_matherr 000000014000def0 f   libucrtd:matherr.obj
 0001:0000cf60       __setusermatherr           000000014000df60 f   libucrtd:matherr.obj
 0001:0000d330       ??$get_module_file_name@$$TAEAY0BAF@DH@?$__crt_char_traits@D@@SAK$$QEA$$TAEAY0BAF@D$$QEAH@Z 000000014000e330 f i libucrtd:argv_parsing.obj
 0001:0000d330       ??$get_module_file_name@AEAPEAUHINSTANCE__@@AEAY0BAF@DK@?$__crt_char_traits@D@@SAKAEAPEAUHINSTANCE__@@AEAY0BAF@D$$QEAK@Z 000000014000e330 f i libucrtd:dbgrpt.obj
 0001:0000d840       ??$set_program_name@PEAD@?$__crt_char_traits@D@@SAX$$QEAPEAD@Z 000000014000e840 f i libucrtd:argv_parsing.obj
 0001:0000d970       __acrt_allocate_buffer_for_argv 000000014000e970 f   libucrtd:argv_parsing.obj
 0001:0000da90       _configure_narrow_argv     000000014000ea90 f   libucrtd:argv_parsing.obj
 0001:0000dab0       _set_pgmptr                000000014000eab0 f i libucrtd:argv_parsing.obj
 0001:0000dee0       ??$get_environment_from_os@$$V@?$__crt_char_traits@D@@SAPEADXZ 000000014000eee0 f i libucrtd:environment_initialization.obj
 0001:0000def0       ??$tcscpy_s@PEADAEB_KAEAPEAD@?$__crt_char_traits@D@@SAH$$QEAPEADAEB_KAEAPEAD@Z 000000014000eef0 f i libucrtd:environment_initialization.obj
 0001:0000df30       ??$tcslen@AEAPEAD@?$__crt_char_traits@D@@SA_KAEAPEAD@Z 000000014000ef30 f i libucrtd:environment_initialization.obj
 0001:0000df30       ??$tcslen@AEBQEBD@?$__crt_char_traits@D@@SA_KAEBQEBD@Z 000000014000ef30 f i libucrtd:dbgrpt.obj
 0001:0000df50       ??$uninitialize@A6AXAEAPEAPEAD@_E@?$dual_state_global@PEAPEAD@__crt_state_management@@QEAAXA6AXAEAPEAPEAD@_E@Z 000000014000ef50 f i libucrtd:environment_initialization.obj
 0001:0000dfd0       ??$uninitialize@A6AXAEAPEAPEA_W@_E@?$dual_state_global@PEAPEA_W@__crt_state_management@@QEAAXA6AXAEAPEAPEA_W@_E@Z 000000014000efd0 f i libucrtd:environment_initialization.obj
 0001:0000e120       __dcrt_uninitialize_environments_nolock 000000014000f120 f   libucrtd:environment_initialization.obj
 0001:0000e170       _initialize_narrow_environment 000000014000f170 f   libucrtd:environment_initialization.obj
 0001:0000e2c0       _get_narrow_winmain_command_line 000000014000f2c0 f   libucrtd:argv_winmain.obj
 0001:0000e2d0       _initterm                  000000014000f2d0 f   libucrtd:initterm.obj
 0001:0000e340       _initterm_e                000000014000f340 f   libucrtd:initterm.obj
 0001:0000e3c0       ??$?B$$A6AXH@Z@__crt_fast_encoded_nullptr_t@@QEBAP6AXH@ZXZ 000000014000f3c0 f i libucrtd:signal.obj
 0001:0000e3c0       ??$?B$$A6AXPEAXK0@Z@__crt_fast_encoded_nullptr_t@@QEBAP6AXPEAXK0@ZXZ 000000014000f3c0 f i libucrtd:exit.obj
 0001:0000e3c0       ??$?BP6AXXZ@__crt_fast_encoded_nullptr_t@@QEBAPEAP6AXXZXZ 000000014000f3c0 f i libucrtd:onexit.obj
 0001:0000e3c0       ??$?B$$A6AXXZ@__crt_fast_encoded_nullptr_t@@QEBAP6AXXZXZ 000000014000f3c0 f i libucrtd:onexit.obj
 0001:0000e3c0       ??$?BX@__crt_fast_encoded_nullptr_t@@QEBAPEAXXZ 000000014000f3c0 f i libucrtd:initialization.obj
 0001:0000e480       ??$__crt_get_proc_address@P6AXI@Z@@YAP6AXI@ZQEAUHINSTANCE__@@QEBD@Z 000000014000f480 f i libucrtd:exit.obj
 0001:0000e4b0       ??$__crt_interlocked_read@J@@YAJPEDJ@Z 000000014000f4b0 f i libucrtd:exit.obj
 0001:0000e540       ??1?$__crt_unique_handle_t@U__crt_hmodule_traits@@@@QEAA@XZ 000000014000f540 f i libucrtd:exit.obj
 0001:0000e6c0       ?__acrt_select_exit_lock@@YA?AW4__acrt_lock_id@@XZ 000000014000f6c0 f i libucrtd:exit.obj
 0001:0000e6d0       ?__crt_interlocked_read_32@@YAHPEDH@Z 000000014000f6d0 f i libucrtd:exit.obj
 0001:0000e710       ?close@?$__crt_unique_handle_t@U__crt_hmodule_traits@@@@QEAAXXZ 000000014000f710 f i libucrtd:exit.obj
 0001:0000e750       ?close@__crt_hmodule_traits@@SA_NPEAUHINSTANCE__@@@Z 000000014000f750 f i libucrtd:exit.obj
 0001:0000ea40       __acrt_initialize_thread_local_exit_callback 000000014000fa40 f   libucrtd:exit.obj
 0001:0000ea60       _c_exit                    000000014000fa60 f   libucrtd:exit.obj
 0001:0000ea80       _cexit                     000000014000fa80 f   libucrtd:exit.obj
 0001:0000eaa0       _exit                      000000014000faa0 f   libucrtd:exit.obj
 0001:0000eac0       _register_thread_local_exe_atexit_callback 000000014000fac0 f   libucrtd:exit.obj
 0001:0000eb10       exit                       000000014000fb10 f   libucrtd:exit.obj
 0001:0000eb30       ?value@?$dual_state_global@J@__crt_state_management@@QEAAAEAJXZ 000000014000fb30 f i libucrtd:new_mode.obj
 0001:0000eb30       ?value@?$dual_state_global@H@__crt_state_management@@QEAAAEAHXZ 000000014000fb30 f i libucrtd:setmode.obj
 0001:0000eb50       _set_fmode                 000000014000fb50 f   libucrtd:setmode.obj
 0001:0000edb0       __acrt_disable_global_locale_sync 000000014000fdb0 f i libucrtd:wsetlocale.obj
 0001:0000ede0       __acrt_enable_global_locale_sync 000000014000fde0 f i libucrtd:wsetlocale.obj
 0001:0000ee10       __acrt_set_locale_changed  000000014000fe10 f   libucrtd:wsetlocale.obj
 0001:0000ee20       __acrt_uninitialize_locale 000000014000fe20 f   libucrtd:wsetlocale.obj
 0001:0000ee50       __ascii_tolower            000000014000fe50 f i libucrtd:wsetlocale.obj
 0001:0000ee70       __ascii_towlower           000000014000fe70 f i libucrtd:wsetlocale.obj
 0001:0000ee90       _configthreadlocale        000000014000fe90 f   libucrtd:wsetlocale.obj
 0001:0000eff0       _query_new_mode            000000014000fff0 f   libucrtd:new_mode.obj
 0001:0000f010       _set_new_mode              0000000140010010 f   libucrtd:new_mode.obj
 0001:0000f0e0       __p__commode               00000001400100e0 f   libucrtd:ncommode.obj
 0001:0000f7c0       _crt_atexit                00000001400107c0 f   libucrtd:onexit.obj
 0001:0000f7e0       _execute_onexit_table      00000001400107e0 f   libucrtd:onexit.obj
 0001:0000f820       _initialize_onexit_table   0000000140010820 f   libucrtd:onexit.obj
 0001:0000f8a0       _register_onexit_function  00000001400108a0 f   libucrtd:onexit.obj
 0001:0000f940       __acrt_uninitialize_command_line 0000000140010940 f   libucrtd:argv_data.obj
 0001:0000fbb0       __acrt_initialize          0000000140010bb0 f   libucrtd:initialization.obj
 0001:0000fbe0       __acrt_uninitialize        0000000140010be0 f   libucrtd:initialization.obj
 0001:0000fc10       terminate                  0000000140010c10 f   libucrtd:terminate.obj
 0001:0000fc60       ??0_LocaleUpdate@@QEAA@QEAU__crt_locale_pointers@@@Z 0000000140010c60 f i libucrtd:debug_heap.obj
 0001:0000fd80       ??1_LocaleUpdate@@QEAA@XZ  0000000140010d80 f i libucrtd:debug_heap.obj
 0001:0000fdb0       ?GetLocaleT@_LocaleUpdate@@QEAAPEAU__crt_locale_pointers@@XZ 0000000140010db0 f i libucrtd:debug_heap.obj
 0001:00012160       _CrtCheckMemory            0000000140013160 f   libucrtd:debug_heap.obj
 0001:000122f0       _CrtDumpMemoryLeaks        00000001400132f0 f   libucrtd:debug_heap.obj
 0001:000123b0       _CrtIsValidHeapPointer     00000001400133b0 f   libucrtd:debug_heap.obj
 0001:00012400       _CrtIsValidPointer         0000000140013400 f   libucrtd:debug_heap.obj
 0001:00012440       _CrtMemCheckpoint          0000000140013440 f   libucrtd:debug_heap.obj
 0001:000126c0       _CrtMemDumpAllObjectsSince 00000001400136c0 f   libucrtd:debug_heap.obj
 0001:00012720       _CrtSetDbgFlag             0000000140013720 f   libucrtd:debug_heap.obj
 0001:00012880       _CrtSetDumpClient          0000000140013880 f   libucrtd:debug_heap.obj
 0001:000128b0       __acrt_get_locale_data_prefix 00000001400138b0 f i libucrtd:debug_heap.obj
 0001:000128d0       __acrt_locale_changed      00000001400138d0 f i libucrtd:debug_heap.obj
 0001:00012900       _calloc_dbg                0000000140013900 f   libucrtd:debug_heap.obj
 0001:000129a0       _chvalidchk_l              00000001400139a0 f i libucrtd:debug_heap.obj
 0001:000129d0       _free_dbg                  00000001400139d0 f   libucrtd:debug_heap.obj
 0001:00012a40       _invoke_watson_if_oneof    0000000140013a40 f i libucrtd:debug_heap.obj
 0001:00012aa0       _ischartype_l              0000000140013aa0 f i libucrtd:debug_heap.obj
 0001:00012b30       _malloc_dbg                0000000140013b30 f   libucrtd:debug_heap.obj
 0001:00012b70       _msize_dbg                 0000000140013b70 f   libucrtd:debug_heap.obj
 0001:00012d10       _realloc_dbg               0000000140013d10 f   libucrtd:debug_heap.obj
 0001:00012d80       _recalloc_dbg              0000000140013d80 f   libucrtd:debug_heap.obj
 0001:00013c30       ??$get_module_file_name@AEAPEAUHINSTANCE__@@AEAY0BAF@_WK@?$__crt_char_traits@_W@@SAKAEAPEAUHINSTANCE__@@AEAY0BAF@_W$$QEAK@Z 0000000140014c30 f i libucrtd:dbgrpt.obj
 0001:00013c70       ??$tcscpy_s@AEAY0BAF@D_KPEBD@?$__crt_char_traits@D@@SAHAEAY0BAF@D$$QEA_K$$QEAPEBD@Z 0000000140014c70 f i libucrtd:dbgrpt.obj
 0001:00013cb0       ??$tcscpy_s@AEAY0BAF@_W_KPEB_W@?$__crt_char_traits@_W@@SAHAEAY0BAF@_W$$QEA_K$$QEAPEB_W@Z 0000000140014cb0 f i libucrtd:dbgrpt.obj
 0001:00013cf0       ??$tcslen@AEAY0BAF@D@?$__crt_char_traits@D@@SA_KAEAY0BAF@D@Z 0000000140014cf0 f i libucrtd:dbgrpt.obj
 0001:00013d10       ??$tcslen@AEAY0BAF@_W@?$__crt_char_traits@_W@@SA_KAEAY0BAF@_W@Z 0000000140014d10 f i libucrtd:dbgrpt.obj
 0001:00013d30       ??$tcslen@AEBQEB_W@?$__crt_char_traits@_W@@SA_KAEBQEB_W@Z 0000000140014d30 f i libucrtd:dbgrpt.obj
 0001:00013d90       _CrtDbgReport              0000000140014d90 f   libucrtd:dbgrpt.obj
 0001:00013e10       _CrtDbgReportW             0000000140014e10 f   libucrtd:dbgrpt.obj
 0001:00013e90       __acrt_MessageWindowA      0000000140014e90 f   libucrtd:dbgrpt.obj
 0001:00013ee0       __acrt_MessageWindowW      0000000140014ee0 f   libucrtd:dbgrpt.obj
 0001:00013f30       _snwprintf_s               0000000140014f30 f i libucrtd:dbgrpt.obj
 0001:00013fa0       _vsnwprintf_s_l            0000000140014fa0 f i libucrtd:dbgrpt.obj
 0001:00014020       free                       0000000140015020 f   libucrtd:free.obj
 0001:00014530       strcpy_s                   0000000140015530 f   libucrtd:strcpy_s.obj
 0001:00014570       strlen                     0000000140015570 f   libucrtd:strlen.obj
 0001:00014630       strcmp                     0000000140015630 f   libucrtd:strcmp.obj
 0001:000146a0       abort                      00000001400156a0 f   libucrtd:abort.obj
 0001:00014720       ??$initialize_from_array@$$BY00Q6AXPEB_W00I_K@Z@?$dual_state_global@P6AXPEB_W00I_K@Z@__crt_state_management@@QEAAXAEAY00Q6AXPEB_W00I_K@Z@Z 0000000140015720 f i libucrtd:invalid_parameter.obj
 0001:00014780       ??0?$cached@H@__crt_cached_ptd_host@@QEAA@XZ 0000000140015780 f i libucrtd:invalid_parameter.obj
 0001:00014780       ??0?$cached@K@__crt_cached_ptd_host@@QEAA@XZ 0000000140015780 f i libucrtd:invalid_parameter.obj
 0001:000147a0       ??0__crt_cached_ptd_host@@QEAA@QEAU__crt_locale_pointers@@@Z 00000001400157a0 f i libucrtd:invalid_parameter.obj
 0001:00014860       ??0__crt_scoped_get_last_error_reset@@QEAA@XZ 0000000140015860 f i libucrtd:invalid_parameter.obj
 0001:00014880       ??1__crt_cached_ptd_host@@QEAA@XZ 0000000140015880 f i libucrtd:invalid_parameter.obj
 0001:00014930       ??1__crt_scoped_get_last_error_reset@@QEAA@XZ 0000000140015930 f i libucrtd:invalid_parameter.obj
 0001:00014950       ?check_synchronize_global_state_index@__crt_cached_ptd_host@@AEAA_KAEBV__crt_scoped_get_last_error_reset@@@Z 0000000140015950 f i libucrtd:invalid_parameter.obj
 0001:00014990       ?check_synchronize_global_state_index@__crt_cached_ptd_host@@AEAA_KXZ 0000000140015990 f i libucrtd:invalid_parameter.obj
 0001:000149f0       ?check_synchronize_per_thread_data@__crt_cached_ptd_host@@AEAAPEAU__acrt_ptd@@XZ 00000001400159f0 f i libucrtd:invalid_parameter.obj
 0001:00014a30       ?force_synchronize_global_state_index@__crt_cached_ptd_host@@AEAA_KAEBV__crt_scoped_get_last_error_reset@@@Z 0000000140015a30 f i libucrtd:invalid_parameter.obj
 0001:00014a70       ?force_synchronize_per_thread_data@__crt_cached_ptd_host@@AEAAPEAU__acrt_ptd@@XZ 0000000140015a70 f i libucrtd:invalid_parameter.obj
 0001:00014ad0       ?get_current_global_state_index@__crt_cached_ptd_host@@QEAA_KXZ 0000000140015ad0 f i libucrtd:invalid_parameter.obj
 0001:00014af0       ?get_raw_ptd@__crt_cached_ptd_host@@QEAAPEAU__acrt_ptd@@XZ 0000000140015af0 f i libucrtd:invalid_parameter.obj
 0001:00014b10       ?get_raw_ptd_noexit@__crt_cached_ptd_host@@QEAAPEAU__acrt_ptd@@XZ 0000000140015b10 f i libucrtd:invalid_parameter.obj
 0001:00014b30       ?try_synchronize_per_thread_data@__crt_cached_ptd_host@@AEAAPEAU__acrt_ptd@@XZ 0000000140015b30 f i libucrtd:invalid_parameter.obj
 0001:00014b60       ?unsafe_value@?$cached@H@__crt_cached_ptd_host@@QEAAHXZ 0000000140015b60 f i libucrtd:invalid_parameter.obj
 0001:00014b60       ?unsafe_value@?$cached@K@__crt_cached_ptd_host@@QEAAKXZ 0000000140015b60 f i libucrtd:invalid_parameter.obj
 0001:00014b70       ?valid@?$cached@H@__crt_cached_ptd_host@@QEBA_NXZ 0000000140015b70 f i libucrtd:invalid_parameter.obj
 0001:00014b70       ?valid@?$cached@K@__crt_cached_ptd_host@@QEBA_NXZ 0000000140015b70 f i libucrtd:invalid_parameter.obj
 0001:00014b80       ?value@?$dual_state_global@P6AXPEB_W00I_K@Z@__crt_state_management@@QEAAAEAP6AXPEB_W00I_K@ZAEAV__crt_cached_ptd_host@@@Z 0000000140015b80 f i libucrtd:invalid_parameter.obj
 0001:00014bb0       __acrt_call_reportfault    0000000140015bb0 f   libucrtd:invalid_parameter.obj
 0001:00014ce0       __acrt_initialize_invalid_parameter_handler 0000000140015ce0 f   libucrtd:invalid_parameter.obj
 0001:00014d10       _invalid_parameter         0000000140015d10 f   libucrtd:invalid_parameter.obj
 0001:00014d80       _invalid_parameter_internal 0000000140015d80 f   libucrtd:invalid_parameter.obj
 0001:00014ed0       _invalid_parameter_noinfo  0000000140015ed0 f   libucrtd:invalid_parameter.obj
 0001:00014f00       _invoke_watson             0000000140015f00 f   libucrtd:invalid_parameter.obj
 0001:00014f60       ??$?0AEBV?$string_output_adapter@D@__crt_stdio_output@@AEB_KAEBQEBDAEAV__crt_cached_ptd_host@@AEBQEAD@?$format_validation_base@DV?$string_output_adapter@D@__crt_stdio_output@@@__crt_stdio_output@@IEAA@AEBV?$string_output_adapter@D@1@AEB_KAEBQEBDAEAV__crt_cached_ptd_host@@AEBQEAD@Z 0000000140015f60 f i libucrtd:output.obj
 0001:00014fb0       ??$?0AEBV?$string_output_adapter@D@__crt_stdio_output@@AEB_KAEBQEBDAEAV__crt_cached_ptd_host@@AEBQEAD@?$standard_base@DV?$string_output_adapter@D@__crt_stdio_output@@@__crt_stdio_output@@IEAA@AEBV?$string_output_adapter@D@1@AEB_KAEBQEBDAEAV__crt_cached_ptd_host@@AEBQEAD@Z 0000000140015fb0 f i libucrtd:output.obj
 0001:00015020       ??$?0AEBV?$string_output_adapter@_W@__crt_stdio_output@@AEB_KAEBQEB_WAEAV__crt_cached_ptd_host@@AEBQEAD@?$format_validation_base@_WV?$string_output_adapter@_W@__crt_stdio_output@@@__crt_stdio_output@@IEAA@AEBV?$string_output_adapter@_W@1@AEB_KAEBQEB_WAEAV__crt_cached_ptd_host@@AEBQEAD@Z 0000000140016020 f i libucrtd:output.obj
 0001:00015070       ??$?0AEBV?$string_output_adapter@_W@__crt_stdio_output@@AEB_KAEBQEB_WAEAV__crt_cached_ptd_host@@AEBQEAD@?$standard_base@_WV?$string_output_adapter@_W@__crt_stdio_output@@@__crt_stdio_output@@IEAA@AEBV?$string_output_adapter@_W@1@AEB_KAEBQEB_WAEAV__crt_cached_ptd_host@@AEBQEAD@Z 0000000140016070 f i libucrtd:output.obj
 0001:000150e0       ??$_tcstol_internal@DPEAPEAD$0A@@@YAJAEAV__crt_cached_ptd_host@@QEBDQEAPEADH@Z 00000001400160e0 f i libucrtd:output.obj
 0001:00015130       ??$_tcstol_internal@_WPEAPEA_W$0A@@@YAJAEAV__crt_cached_ptd_host@@QEB_WQEAPEA_WH@Z 0000000140016130 f i libucrtd:output.obj
 0001:00016d00       ??$count@D@formatting_buffer@__crt_stdio_output@@QEBA_KXZ 0000000140017d00 f i libucrtd:output.obj
 0001:00016d50       ??$count@_W@formatting_buffer@__crt_stdio_output@@QEBA_KXZ 0000000140017d50 f i libucrtd:output.obj
 0001:00016da0       ??$data@D@formatting_buffer@__crt_stdio_output@@QEAAPEADXZ 0000000140017da0 f i libucrtd:output.obj
 0001:00016da0       ??$data@_W@formatting_buffer@__crt_stdio_output@@QEAAPEA_WXZ 0000000140017da0 f i libucrtd:output.obj
 0001:00016df0       ??$ensure_buffer_is_big_enough@D@formatting_buffer@__crt_stdio_output@@QEAA_N_KAEAV__crt_cached_ptd_host@@@Z 0000000140017df0 f i libucrtd:output.obj
 0001:00016f30       ??$ensure_buffer_is_big_enough@_W@formatting_buffer@__crt_stdio_output@@QEAA_N_KAEAV__crt_cached_ptd_host@@@Z 0000000140017f30 f i libucrtd:output.obj
 0001:00017070       ??$extract_argument_from_va_list@C_J@?$standard_base@DV?$string_output_adapter@D@__crt_stdio_output@@@__crt_stdio_output@@IEAA_NAEA_J@Z 0000000140018070 f i libucrtd:output.obj
 0001:00017070       ??$extract_argument_from_va_list@C_J@?$standard_base@_WV?$string_output_adapter@_W@__crt_stdio_output@@@__crt_stdio_output@@IEAA_NAEA_J@Z 0000000140018070 f i libucrtd:output.obj
 0001:000170b0       ??$extract_argument_from_va_list@E_J@?$standard_base@_WV?$string_output_adapter@_W@__crt_stdio_output@@@__crt_stdio_output@@IEAA_NAEA_J@Z 00000001400180b0 f i libucrtd:output.obj
 0001:000170b0       ??$extract_argument_from_va_list@E_J@?$standard_base@DV?$string_output_adapter@D@__crt_stdio_output@@@__crt_stdio_output@@IEAA_NAEA_J@Z 00000001400180b0 f i libucrtd:output.obj
 0001:000170f0       ??$extract_argument_from_va_list@F_J@?$standard_base@DV?$string_output_adapter@D@__crt_stdio_output@@@__crt_stdio_output@@IEAA_NAEA_J@Z 00000001400180f0 f i libucrtd:output.obj
 0001:000170f0       ??$extract_argument_from_va_list@F_J@?$standard_base@_WV?$string_output_adapter@_W@__crt_stdio_output@@@__crt_stdio_output@@IEAA_NAEA_J@Z 00000001400180f0 f i libucrtd:output.obj
 0001:00017130       ??$extract_argument_from_va_list@GD@?$standard_base@DV?$string_output_adapter@D@__crt_stdio_output@@@__crt_stdio_output@@IEAA_NAEAD@Z 0000000140018130 f i libucrtd:output.obj
 0001:00017160       ??$extract_argument_from_va_list@G_J@?$standard_base@DV?$string_output_adapter@D@__crt_stdio_output@@@__crt_stdio_output@@IEAA_NAEA_J@Z 0000000140018160 f i libucrtd:output.obj
 0001:00017160       ??$extract_argument_from_va_list@G_J@?$standard_base@_WV?$string_output_adapter@_W@__crt_stdio_output@@@__crt_stdio_output@@IEAA_NAEA_J@Z 0000000140018160 f i libucrtd:output.obj
 0001:000171a0       ??$extract_argument_from_va_list@H_J@?$standard_base@_WV?$string_output_adapter@_W@__crt_stdio_output@@@__crt_stdio_output@@IEAA_NAEA_J@Z 00000001400181a0 f i libucrtd:output.obj
 0001:000171a0       ??$extract_argument_from_va_list@H_J@?$standard_base@DV?$string_output_adapter@D@__crt_stdio_output@@@__crt_stdio_output@@IEAA_NAEA_J@Z 00000001400181a0 f i libucrtd:output.obj
 0001:000171d0       ??$extract_argument_from_va_list@I_J@?$standard_base@DV?$string_output_adapter@D@__crt_stdio_output@@@__crt_stdio_output@@IEAA_NAEA_J@Z 00000001400181d0 f i libucrtd:output.obj
 0001:000171d0       ??$extract_argument_from_va_list@I_J@?$standard_base@_WV?$string_output_adapter@_W@__crt_stdio_output@@@__crt_stdio_output@@IEAA_NAEA_J@Z 00000001400181d0 f i libucrtd:output.obj
 0001:00017200       ??$extract_argument_from_va_list@PEAUansi_string@?1??type_case_Z@?$output_processor@DV?$string_output_adapter@D@__crt_stdio_output@@V?$format_validation_base@DV?$string_output_adapter@D@__crt_stdio_output@@@2@@__crt_stdio_output@@AEAA_NXZ@PEAU1?1??234@AEAA_NXZ@@?$standard_base@DV?$string_output_adapter@D@__crt_stdio_output@@@__crt_stdio_output@@IEAA_NAEAPEAUansi_string@?1??type_case_Z@?$output_processor@DV?$string_output_adapter@D@__crt_stdio_output@@V?$format_validation_base@DV?$string_output_adapter@D@__crt_stdio_output@@@2@@1@AEAA_NXZ@@Z 0000000140018200 f i libucrtd:output.obj
 0001:00017200       ??$extract_argument_from_va_list@PEAXPEAX@?$standard_base@_WV?$string_output_adapter@_W@__crt_stdio_output@@@__crt_stdio_output@@IEAA_NAEAPEAX@Z 0000000140018200 f i libucrtd:output.obj
 0001:00017200       ??$extract_argument_from_va_list@_J_J@?$standard_base@DV?$string_output_adapter@D@__crt_stdio_output@@@__crt_stdio_output@@IEAA_NAEA_J@Z 0000000140018200 f i libucrtd:output.obj
 0001:00017200       ??$extract_argument_from_va_list@PEAUansi_string@?1??type_case_Z@?$output_processor@_WV?$string_output_adapter@_W@__crt_stdio_output@@V?$format_validation_base@_WV?$string_output_adapter@_W@__crt_stdio_output@@@2@@__crt_stdio_output@@AEAA_NXZ@PEAU1?1??234@AEAA_NXZ@@?$standard_base@_WV?$string_output_adapter@_W@__crt_stdio_output@@@__crt_stdio_output@@IEAA_NAEAPEAUansi_string@?1??type_case_Z@?$output_processor@_WV?$string_output_adapter@_W@__crt_stdio_output@@V?$format_validation_base@_WV?$string_output_adapter@_W@__crt_stdio_output@@@2@@1@AEAA_NXZ@@Z 0000000140018200 f i libucrtd:output.obj
 0001:00017200       ??$extract_argument_from_va_list@_J_J@?$standard_base@_WV?$string_output_adapter@_W@__crt_stdio_output@@@__crt_stdio_output@@IEAA_NAEA_J@Z 0000000140018200 f i libucrtd:output.obj
 0001:00017200       ??$extract_argument_from_va_list@PEAXPEAX@?$standard_base@DV?$string_output_adapter@D@__crt_stdio_output@@@__crt_stdio_output@@IEAA_NAEAPEAX@Z 0000000140018200 f i libucrtd:output.obj
 0001:00017200       ??$extract_argument_from_va_list@PEADPEAD@?$standard_base@_WV?$string_output_adapter@_W@__crt_stdio_output@@@__crt_stdio_output@@IEAA_NAEAPEAD@Z 0000000140018200 f i libucrtd:output.obj
 0001:00017200       ??$extract_argument_from_va_list@_K_J@?$standard_base@_WV?$string_output_adapter@_W@__crt_stdio_output@@@__crt_stdio_output@@IEAA_NAEA_J@Z 0000000140018200 f i libucrtd:output.obj
 0001:00017200       ??$extract_argument_from_va_list@PEADPEAD@?$standard_base@DV?$string_output_adapter@D@__crt_stdio_output@@@__crt_stdio_output@@IEAA_NAEAPEAD@Z 0000000140018200 f i libucrtd:output.obj
 0001:00017200       ??$extract_argument_from_va_list@_K_J@?$standard_base@DV?$string_output_adapter@D@__crt_stdio_output@@@__crt_stdio_output@@IEAA_NAEA_J@Z 0000000140018200 f i libucrtd:output.obj
 0001:00017230       ??$extract_argument_from_va_list@U_CRT_DOUBLE@@U1@@?$standard_base@_WV?$string_output_adapter@_W@__crt_stdio_output@@@__crt_stdio_output@@IEAA_NAEAU_CRT_DOUBLE@@@Z 0000000140018230 f i libucrtd:output.obj
 0001:00017230       ??$extract_argument_from_va_list@U_CRT_DOUBLE@@U1@@?$standard_base@DV?$string_output_adapter@D@__crt_stdio_output@@@__crt_stdio_output@@IEAA_NAEAU_CRT_DOUBLE@@@Z 0000000140018230 f i libucrtd:output.obj
 0001:00017280       ??$extract_argument_from_va_list@_W_W@?$standard_base@DV?$string_output_adapter@D@__crt_stdio_output@@@__crt_stdio_output@@IEAA_NAEA_W@Z 0000000140018280 f i libucrtd:output.obj
 0001:00017280       ??$extract_argument_from_va_list@_W_W@?$standard_base@_WV?$string_output_adapter@_W@__crt_stdio_output@@@__crt_stdio_output@@IEAA_NAEA_W@Z 0000000140018280 f i libucrtd:output.obj
 0001:000172b0       ??$is_overflow_condition@K@__crt_strtox@@YA_NIK@Z 00000001400182b0 f i libucrtd:output.obj
 0001:00017320       ??$is_wide_character_specifier@D@__crt_stdio_output@@YA_N_KDW4length_modifier@0@@Z 0000000140018320 f i libucrtd:output.obj
 0001:000173c0       ??$is_wide_character_specifier@_W@__crt_stdio_output@@YA_N_K_WW4length_modifier@0@@Z 00000001400183c0 f i libucrtd:output.obj
 0001:00017490       ??$make_c_string_character_source@_WPEAPEA_W@__crt_strtox@@YA?AV?$c_string_character_source@_W@0@QEB_WQEAPEA_W@Z 0000000140018490 f i libucrtd:output.obj
 0001:00017490       ??$make_c_string_character_source@DPEAPEAD@__crt_strtox@@YA?AV?$c_string_character_source@D@0@QEBDQEAPEAD@Z 0000000140018490 f i libucrtd:output.obj
 0001:000174d0       ??$parse_integer@KV?$c_string_character_source@D@__crt_strtox@@$0A@@__crt_strtox@@YAKAEAV__crt_cached_ptd_host@@V?$c_string_character_source@D@0@H_N@Z 00000001400184d0 f i libucrtd:output.obj
 0001:00017950       ??$parse_integer@KV?$c_string_character_source@_W@__crt_strtox@@$0A@@__crt_strtox@@YAKAEAV__crt_cached_ptd_host@@V?$c_string_character_source@_W@0@H_N@Z 0000000140018950 f i libucrtd:output.obj
 0001:00017dd0       ??$read_va_arg@E@__crt_stdio_output@@YAEAEAPEAD@Z 0000000140018dd0 f i libucrtd:output.obj
 0001:00017dd0       ??$read_va_arg@C@__crt_stdio_output@@YACAEAPEAD@Z 0000000140018dd0 f i libucrtd:output.obj
 0001:00017e40       ??$read_va_arg@_W@__crt_stdio_output@@YA_WAEAPEAD@Z 0000000140018e40 f i libucrtd:output.obj
 0001:00017e40       ??$read_va_arg@G@__crt_stdio_output@@YAGAEAPEAD@Z 0000000140018e40 f i libucrtd:output.obj
 0001:00017e40       ??$read_va_arg@F@__crt_stdio_output@@YAFAEAPEAD@Z 0000000140018e40 f i libucrtd:output.obj
 0001:00017eb0       ??$read_va_arg@I@__crt_stdio_output@@YAIAEAPEAD@Z 0000000140018eb0 f i libucrtd:output.obj
 0001:00017eb0       ??$read_va_arg@H@__crt_stdio_output@@YAHAEAPEAD@Z 0000000140018eb0 f i libucrtd:output.obj
 0001:00017f10       ??$read_va_arg@U_CRT_DOUBLE@@@__crt_stdio_output@@YA?AU_CRT_DOUBLE@@AEAPEAD@Z 0000000140018f10 f i libucrtd:output.obj
 0001:00017f10       ??$read_va_arg@PEAUansi_string@?1??type_case_Z@?$output_processor@_WV?$string_output_adapter@_W@__crt_stdio_output@@V?$format_validation_base@_WV?$string_output_adapter@_W@__crt_stdio_output@@@2@@__crt_stdio_output@@AEAA_NXZ@@__crt_stdio_output@@YAPEAUansi_string@?1??type_case_Z@?$output_processor@_WV?$string_output_adapter@_W@__crt_stdio_output@@V?$format_validation_base@_WV?$string_output_adapter@_W@__crt_stdio_output@@@2@@0@AEAA_NXZ@AEAPEAD@Z 0000000140018f10 f i libucrtd:output.obj
 0001:00017f10       ??$read_va_arg@PEAUansi_string@?1??type_case_Z@?$output_processor@DV?$string_output_adapter@D@__crt_stdio_output@@V?$format_validation_base@DV?$string_output_adapter@D@__crt_stdio_output@@@2@@__crt_stdio_output@@AEAA_NXZ@@__crt_stdio_output@@YAPEAUansi_string@?1??type_case_Z@?$output_processor@DV?$string_output_adapter@D@__crt_stdio_output@@V?$format_validation_base@DV?$string_output_adapter@D@__crt_stdio_output@@@2@@0@AEAA_NXZ@AEAPEAD@Z 0000000140018f10 f i libucrtd:output.obj
 0001:00017f10       ??$read_va_arg@PEAD@__crt_stdio_output@@YAPEADAEAPEAD@Z 0000000140018f10 f i libucrtd:output.obj
 0001:00017f10       ??$read_va_arg@_J@__crt_stdio_output@@YA_JAEAPEAD@Z 0000000140018f10 f i libucrtd:output.obj
 0001:00017f10       ??$read_va_arg@_K@__crt_stdio_output@@YA_KAEAPEAD@Z 0000000140018f10 f i libucrtd:output.obj
 0001:00017f10       ??$read_va_arg@PEAX@__crt_stdio_output@@YAPEAXAEAPEAD@Z 0000000140018f10 f i libucrtd:output.obj
 0001:00017f80       ??$scratch_count@D@formatting_buffer@__crt_stdio_output@@QEBA_KXZ 0000000140018f80 f i libucrtd:output.obj
 0001:00017fa0       ??$scratch_data@D@formatting_buffer@__crt_stdio_output@@QEAAPEADXZ 0000000140018fa0 f i libucrtd:output.obj
 0001:00018010       ??$type_case_integer@$07@?$output_processor@DV?$string_output_adapter@D@__crt_stdio_output@@V?$format_validation_base@DV?$string_output_adapter@D@__crt_stdio_output@@@2@@__crt_stdio_output@@AEAA_N_N@Z 0000000140019010 f i libucrtd:output.obj
 0001:00018490       ??$type_case_integer@$07@?$output_processor@_WV?$string_output_adapter@_W@__crt_stdio_output@@V?$format_validation_base@_WV?$string_output_adapter@_W@__crt_stdio_output@@@2@@__crt_stdio_output@@AEAA_N_N@Z 0000000140019490 f i libucrtd:output.obj
 0001:00018910       ??$type_case_integer@$09@?$output_processor@DV?$string_output_adapter@D@__crt_stdio_output@@V?$format_validation_base@DV?$string_output_adapter@D@__crt_stdio_output@@@2@@__crt_stdio_output@@AEAA_N_N@Z 0000000140019910 f i libucrtd:output.obj
 0001:00018d90       ??$type_case_integer@$09@?$output_processor@_WV?$string_output_adapter@_W@__crt_stdio_output@@V?$format_validation_base@_WV?$string_output_adapter@_W@__crt_stdio_output@@@2@@__crt_stdio_output@@AEAA_N_N@Z 0000000140019d90 f i libucrtd:output.obj
 0001:00019210       ??$type_case_integer@$0BA@@?$output_processor@DV?$string_output_adapter@D@__crt_stdio_output@@V?$format_validation_base@DV?$string_output_adapter@D@__crt_stdio_output@@@2@@__crt_stdio_output@@AEAA_N_N@Z 000000014001a210 f i libucrtd:output.obj
 0001:00019690       ??$type_case_integer@$0BA@@?$output_processor@_WV?$string_output_adapter@_W@__crt_stdio_output@@V?$format_validation_base@_WV?$string_output_adapter@_W@__crt_stdio_output@@@2@@__crt_stdio_output@@AEAA_N_N@Z 000000014001a690 f i libucrtd:output.obj
 0001:00019b10       ??$type_case_integer_parse_into_buffer@I$07@?$output_processor@DV?$string_output_adapter@D@__crt_stdio_output@@V?$format_validation_base@DV?$string_output_adapter@D@__crt_stdio_output@@@2@@__crt_stdio_output@@AEAAXI_N@Z 000000014001ab10 f i libucrtd:output.obj
 0001:00019c40       ??$type_case_integer_parse_into_buffer@I$07@?$output_processor@_WV?$string_output_adapter@_W@__crt_stdio_output@@V?$format_validation_base@_WV?$string_output_adapter@_W@__crt_stdio_output@@@2@@__crt_stdio_output@@AEAAXI_N@Z 000000014001ac40 f i libucrtd:output.obj
 0001:00019d80       ??$type_case_integer_parse_into_buffer@I$09@?$output_processor@DV?$string_output_adapter@D@__crt_stdio_output@@V?$format_validation_base@DV?$string_output_adapter@D@__crt_stdio_output@@@2@@__crt_stdio_output@@AEAAXI_N@Z 000000014001ad80 f i libucrtd:output.obj
 0001:00019eb0       ??$type_case_integer_parse_into_buffer@I$09@?$output_processor@_WV?$string_output_adapter@_W@__crt_stdio_output@@V?$format_validation_base@_WV?$string_output_adapter@_W@__crt_stdio_output@@@2@@__crt_stdio_output@@AEAAXI_N@Z 000000014001aeb0 f i libucrtd:output.obj
 0001:00019ff0       ??$type_case_integer_parse_into_buffer@I$0BA@@?$output_processor@DV?$string_output_adapter@D@__crt_stdio_output@@V?$format_validation_base@DV?$string_output_adapter@D@__crt_stdio_output@@@2@@__crt_stdio_output@@AEAAXI_N@Z 000000014001aff0 f i libucrtd:output.obj
 0001:0001a120       ??$type_case_integer_parse_into_buffer@I$0BA@@?$output_processor@_WV?$string_output_adapter@_W@__crt_stdio_output@@V?$format_validation_base@_WV?$string_output_adapter@_W@__crt_stdio_output@@@2@@__crt_stdio_output@@AEAAXI_N@Z 000000014001b120 f i libucrtd:output.obj
 0001:0001a260       ??$type_case_integer_parse_into_buffer@_K$07@?$output_processor@DV?$string_output_adapter@D@__crt_stdio_output@@V?$format_validation_base@DV?$string_output_adapter@D@__crt_stdio_output@@@2@@__crt_stdio_output@@AEAAX_K_N@Z 000000014001b260 f i libucrtd:output.obj
 0001:0001a3a0       ??$type_case_integer_parse_into_buffer@_K$07@?$output_processor@_WV?$string_output_adapter@_W@__crt_stdio_output@@V?$format_validation_base@_WV?$string_output_adapter@_W@__crt_stdio_output@@@2@@__crt_stdio_output@@AEAAX_K_N@Z 000000014001b3a0 f i libucrtd:output.obj
 0001:0001a4e0       ??$type_case_integer_parse_into_buffer@_K$09@?$output_processor@DV?$string_output_adapter@D@__crt_stdio_output@@V?$format_validation_base@DV?$string_output_adapter@D@__crt_stdio_output@@@2@@__crt_stdio_output@@AEAAX_K_N@Z 000000014001b4e0 f i libucrtd:output.obj
 0001:0001a620       ??$type_case_integer_parse_into_buffer@_K$09@?$output_processor@_WV?$string_output_adapter@_W@__crt_stdio_output@@V?$format_validation_base@_WV?$string_output_adapter@_W@__crt_stdio_output@@@2@@__crt_stdio_output@@AEAAX_K_N@Z 000000014001b620 f i libucrtd:output.obj
 0001:0001a760       ??$type_case_integer_parse_into_buffer@_K$0BA@@?$output_processor@DV?$string_output_adapter@D@__crt_stdio_output@@V?$format_validation_base@DV?$string_output_adapter@D@__crt_stdio_output@@@2@@__crt_stdio_output@@AEAAX_K_N@Z 000000014001b760 f i libucrtd:output.obj
 0001:0001a8a0       ??$type_case_integer_parse_into_buffer@_K$0BA@@?$output_processor@_WV?$string_output_adapter@_W@__crt_stdio_output@@V?$format_validation_base@_WV?$string_output_adapter@_W@__crt_stdio_output@@@2@@__crt_stdio_output@@AEAAX_K_N@Z 000000014001b8a0 f i libucrtd:output.obj
 0001:0001a9e0       ??$write_multiple_characters@V?$string_output_adapter@D@__crt_stdio_output@@D@__crt_stdio_output@@YAXAEBV?$string_output_adapter@D@0@DHQEAHAEAV__crt_cached_ptd_host@@@Z 000000014001b9e0 f i libucrtd:output.obj
 0001:0001aa50       ??$write_multiple_characters@V?$string_output_adapter@_W@__crt_stdio_output@@D@__crt_stdio_output@@YAXAEBV?$string_output_adapter@_W@0@DHQEAHAEAV__crt_cached_ptd_host@@@Z 000000014001ba50 f i libucrtd:output.obj
 0001:0001aac0       ??0?$c_string_character_source@_W@__crt_strtox@@QEAA@QEB_WQEAPEB_W@Z 000000014001bac0 f i libucrtd:output.obj
 0001:0001aac0       ??0?$c_string_character_source@D@__crt_strtox@@QEAA@QEBDQEAPEBD@Z 000000014001bac0 f i libucrtd:output.obj
 0001:0001ab10       ??0?$common_data@D@__crt_stdio_output@@IEAA@AEAV__crt_cached_ptd_host@@@Z 000000014001bb10 f i libucrtd:output.obj
 0001:0001abd0       ??0?$common_data@_W@__crt_stdio_output@@IEAA@AEAV__crt_cached_ptd_host@@@Z 000000014001bbd0 f i libucrtd:output.obj
 0001:0001ac90       ??0?$output_adapter_data@DV?$string_output_adapter@D@__crt_stdio_output@@@__crt_stdio_output@@IEAA@AEBV?$string_output_adapter@D@1@_KQEBDAEAV__crt_cached_ptd_host@@QEAD@Z 000000014001bc90 f i libucrtd:output.obj
 0001:0001ad10       ??0?$output_adapter_data@_WV?$string_output_adapter@_W@__crt_stdio_output@@@__crt_stdio_output@@IEAA@AEBV?$string_output_adapter@_W@1@_KQEB_WAEAV__crt_cached_ptd_host@@QEAD@Z 000000014001bd10 f i libucrtd:output.obj
 0001:0001ad90       ??0?$output_processor@DV?$string_output_adapter@D@__crt_stdio_output@@V?$format_validation_base@DV?$string_output_adapter@D@__crt_stdio_output@@@2@@__crt_stdio_output@@QEAA@AEBV?$string_output_adapter@D@1@_KQEBDAEAV__crt_cached_ptd_host@@QEAD@Z 000000014001bd90 f i libucrtd:output.obj
 0001:0001ade0       ??0?$output_processor@_WV?$string_output_adapter@_W@__crt_stdio_output@@V?$format_validation_base@_WV?$string_output_adapter@_W@__crt_stdio_output@@@2@@__crt_stdio_output@@QEAA@AEBV?$string_output_adapter@_W@1@_KQEB_WAEAV__crt_cached_ptd_host@@QEAD@Z 000000014001bde0 f i libucrtd:output.obj
 0001:0001ae30       ??0formatting_buffer@__crt_stdio_output@@QEAA@XZ 000000014001be30 f i libucrtd:output.obj
 0001:0001ae70       ??0guard@?$cached@H@__crt_cached_ptd_host@@QEAA@AEAU12@@Z 000000014001be70 f i libucrtd:output.obj
 0001:0001aeb0       ??1?$c_string_character_source@D@__crt_strtox@@QEAA@XZ 000000014001beb0 f i libucrtd:output.obj
 0001:0001aeb0       ??1?$c_string_character_source@_W@__crt_strtox@@QEAA@XZ 000000014001beb0 f i libucrtd:output.obj
 0001:0001aee0       ??1?$common_data@D@__crt_stdio_output@@QEAA@XZ 000000014001bee0 f i libucrtd:output.obj
 0001:0001aee0       ??1?$common_data@_W@__crt_stdio_output@@QEAA@XZ 000000014001bee0 f i libucrtd:output.obj
 0001:0001af00       ??1?$format_validation_base@DV?$string_output_adapter@D@__crt_stdio_output@@@__crt_stdio_output@@QEAA@XZ 000000014001bf00 f i libucrtd:output.obj
 0001:0001af00       ??1?$format_validation_base@_WV?$string_output_adapter@_W@__crt_stdio_output@@@__crt_stdio_output@@QEAA@XZ 000000014001bf00 f i libucrtd:output.obj
 0001:0001af20       ??1?$output_adapter_data@DV?$string_output_adapter@D@__crt_stdio_output@@@__crt_stdio_output@@QEAA@XZ 000000014001bf20 f i libucrtd:output.obj
 0001:0001af20       ??1?$output_adapter_data@_WV?$string_output_adapter@_W@__crt_stdio_output@@@__crt_stdio_output@@QEAA@XZ 000000014001bf20 f i libucrtd:output.obj
 0001:0001af40       ??1?$output_processor@DV?$string_output_adapter@D@__crt_stdio_output@@V?$format_validation_base@DV?$string_output_adapter@D@__crt_stdio_output@@@2@@__crt_stdio_output@@QEAA@XZ 000000014001bf40 f i libucrtd:output.obj
 0001:0001af40       ??1?$output_processor@_WV?$string_output_adapter@_W@__crt_stdio_output@@V?$format_validation_base@_WV?$string_output_adapter@_W@__crt_stdio_output@@@2@@__crt_stdio_output@@QEAA@XZ 000000014001bf40 f i libucrtd:output.obj
 0001:0001af60       ??1?$standard_base@_WV?$string_output_adapter@_W@__crt_stdio_output@@@__crt_stdio_output@@QEAA@XZ 000000014001bf60 f i libucrtd:output.obj
 0001:0001af60       ??1?$standard_base@DV?$string_output_adapter@D@__crt_stdio_output@@@__crt_stdio_output@@QEAA@XZ 000000014001bf60 f i libucrtd:output.obj
 0001:0001af80       ??1formatting_buffer@__crt_stdio_output@@QEAA@XZ 000000014001bf80 f i libucrtd:output.obj
 0001:0001afb0       ??1guard@?$cached@H@__crt_cached_ptd_host@@QEAA@XZ 000000014001bfb0 f i libucrtd:output.obj
 0001:0001afe0       ??4?$__crt_unique_heap_ptr@DU__crt_internal_free_policy@@@@QEAAAEAV0@$$QEAV0@@Z 000000014001bfe0 f i libucrtd:output.obj
 0001:0001b020       ??A?$spectre_mitigated_lookup_table@Ustate_transition_pair@__crt_stdio_output@@$0IA@@__crt_stdio_output@@QEBAAEBUstate_transition_pair@1@_K@Z 000000014001c020 f i libucrtd:output.obj
 0001:0001b040       ?adjust_hexit@?$output_processor@DV?$string_output_adapter@D@__crt_stdio_output@@V?$format_validation_base@DV?$string_output_adapter@D@__crt_stdio_output@@@2@@__crt_stdio_output@@CADH_N@Z 000000014001c040 f i libucrtd:output.obj
 0001:0001b040       ?adjust_hexit@?$output_processor@_WV?$string_output_adapter@_W@__crt_stdio_output@@V?$format_validation_base@_WV?$string_output_adapter@_W@__crt_stdio_output@@@2@@__crt_stdio_output@@CADH_N@Z 000000014001c040 f i libucrtd:output.obj
 0001:0001b090       ?advance_to_next_pass@?$standard_base@DV?$string_output_adapter@D@__crt_stdio_output@@@__crt_stdio_output@@IEAA_NXZ 000000014001c090 f i libucrtd:output.obj
 0001:0001b090       ?advance_to_next_pass@?$standard_base@_WV?$string_output_adapter@_W@__crt_stdio_output@@@__crt_stdio_output@@IEAA_NXZ 000000014001c090 f i libucrtd:output.obj
 0001:0001b0e0       ?check@?$cached@H@__crt_cached_ptd_host@@QEBA_NH@Z 000000014001c0e0 f i libucrtd:output.obj
 0001:0001b120       ?create_guard@?$cached@H@__crt_cached_ptd_host@@QEAA?AVguard@12@XZ 000000014001c120 f i libucrtd:output.obj
 0001:0001b150       ?crop_zeroes@__crt_stdio_output@@YAXPEADQEAU__crt_locale_pointers@@@Z 000000014001c150 f i libucrtd:output.obj
 0001:0001b2a0       ?disable@guard@?$cached@H@__crt_cached_ptd_host@@QEAAXXZ 000000014001c2a0 f i libucrtd:output.obj
 0001:0001b2b0       ?enable@guard@?$cached@H@__crt_cached_ptd_host@@QEAAXXZ 000000014001c2b0 f i libucrtd:output.obj
 0001:0001b2c0       ?find_next_state@?$output_processor@DV?$string_output_adapter@D@__crt_stdio_output@@V?$format_validation_base@DV?$string_output_adapter@D@__crt_stdio_output@@@2@@__crt_stdio_output@@AEBA?AW4state@2@DW432@@Z 000000014001c2c0 f i libucrtd:output.obj
 0001:0001b360       ?find_next_state@?$output_processor@_WV?$string_output_adapter@_W@__crt_stdio_output@@V?$format_validation_base@_WV?$string_output_adapter@_W@__crt_stdio_output@@@2@@__crt_stdio_output@@AEBA?AW4state@2@_WW432@@Z 000000014001c360 f i libucrtd:output.obj
 0001:0001b400       ?force_decimal_point@__crt_stdio_output@@YAXPEADQEAU__crt_locale_pointers@@@Z 000000014001c400 f i libucrtd:output.obj
 0001:0001b500       ?get@?$c_string_character_source@D@__crt_strtox@@QEAADXZ 000000014001c500 f i libucrtd:output.obj
 0001:0001b540       ?get@?$c_string_character_source@_W@__crt_strtox@@QEAA_WXZ 000000014001c540 f i libucrtd:output.obj
 0001:0001b580       ?get_errno@__crt_cached_ptd_host@@QEAAAEAU?$cached@H@1@XZ 000000014001c580 f i libucrtd:output.obj
 0001:0001b590       ?get_flags@__crt_stdio_stream@@QEBAJXZ 000000014001c590 f i libucrtd:output.obj
 0001:0001b5c0       ?get_locale@__crt_cached_ptd_host@@QEAAPEAU__crt_locale_pointers@@XZ 000000014001c5c0 f i libucrtd:output.obj
 0001:0001b5f0       ?has_flag@?$output_processor@_WV?$string_output_adapter@_W@__crt_stdio_output@@V?$format_validation_base@_WV?$string_output_adapter@_W@__crt_stdio_output@@@2@@__crt_stdio_output@@AEBA_NI@Z 000000014001c5f0 f i libucrtd:output.obj
 0001:0001b5f0       ?has_flag@?$output_processor@DV?$string_output_adapter@D@__crt_stdio_output@@V?$format_validation_base@DV?$string_output_adapter@D@__crt_stdio_output@@@2@@__crt_stdio_output@@AEBA_NI@Z 000000014001c5f0 f i libucrtd:output.obj
 0001:0001b630       ?is_string_backed@__crt_stdio_stream@@QEBA_NXZ 000000014001c630 f i libucrtd:output.obj
 0001:0001b670       ?maximum_signed_value@__crt_strtox@@YAJK@Z 000000014001c670 f i libucrtd:output.obj
 0001:0001b680       ?minimum_signed_value@__crt_strtox@@YAJK@Z 000000014001c680 f i libucrtd:output.obj
 0001:0001b690       ?narrow_null_string@?$output_processor@DV?$string_output_adapter@D@__crt_stdio_output@@V?$format_validation_base@DV?$string_output_adapter@D@__crt_stdio_output@@@2@@__crt_stdio_output@@CAPEADXZ 000000014001c690 f i libucrtd:output.obj
 0001:0001b690       ?narrow_null_string@?$output_processor@_WV?$string_output_adapter@_W@__crt_stdio_output@@V?$format_validation_base@_WV?$string_output_adapter@_W@__crt_stdio_output@@@2@@__crt_stdio_output@@CAPEADXZ 000000014001c690 f i libucrtd:output.obj
 0001:0001b6a0       ?parse_digit@__crt_strtox@@YAID@Z 000000014001c6a0 f i libucrtd:output.obj
 0001:0001b710       ?parse_digit@__crt_strtox@@YAI_W@Z 000000014001c710 f i libucrtd:output.obj
 0001:0001b760       ?parse_int_from_format_string@?$output_processor@DV?$string_output_adapter@D@__crt_stdio_output@@V?$format_validation_base@DV?$string_output_adapter@D@__crt_stdio_output@@@2@@__crt_stdio_output@@AEAA_NQEAH@Z 000000014001c760 f i libucrtd:output.obj
 0001:0001b860       ?parse_int_from_format_string@?$output_processor@_WV?$string_output_adapter@_W@__crt_stdio_output@@V?$format_validation_base@_WV?$string_output_adapter@_W@__crt_stdio_output@@@2@@__crt_stdio_output@@AEAA_NQEAH@Z 000000014001c860 f i libucrtd:output.obj
 0001:0001b960       ?process@?$output_processor@DV?$string_output_adapter@D@__crt_stdio_output@@V?$format_validation_base@DV?$string_output_adapter@D@__crt_stdio_output@@@2@@__crt_stdio_output@@QEAAHXZ 000000014001c960 f i libucrtd:output.obj
 0001:0001bd20       ?process@?$output_processor@_WV?$string_output_adapter@_W@__crt_stdio_output@@V?$format_validation_base@_WV?$string_output_adapter@_W@__crt_stdio_output@@@2@@__crt_stdio_output@@QEAAHXZ 000000014001cd20 f i libucrtd:output.obj
 0001:0001c0e0       ?restore_state@?$c_string_character_source@D@__crt_strtox@@QEAA_NQEBD@Z 000000014001d0e0 f i libucrtd:output.obj
 0001:0001c0e0       ?restore_state@?$c_string_character_source@_W@__crt_strtox@@QEAA_NQEB_W@Z 000000014001d0e0 f i libucrtd:output.obj
 0001:0001c100       ?set@?$cached@K@__crt_cached_ptd_host@@QEAAKK@Z 000000014001d100 f i libucrtd:errno.obj
 0001:0001c100       ?set@?$cached@H@__crt_cached_ptd_host@@QEAAHH@Z 000000014001d100 f i libucrtd:output.obj
 0001:0001c130       ?set_flag@?$output_processor@_WV?$string_output_adapter@_W@__crt_stdio_output@@V?$format_validation_base@_WV?$string_output_adapter@_W@__crt_stdio_output@@@2@@__crt_stdio_output@@AEAAXI@Z 000000014001d130 f i libucrtd:output.obj
 0001:0001c130       ?set_flag@?$output_processor@DV?$string_output_adapter@D@__crt_stdio_output@@V?$format_validation_base@DV?$string_output_adapter@D@__crt_stdio_output@@@2@@__crt_stdio_output@@AEAAXI@Z 000000014001d130 f i libucrtd:output.obj
 0001:0001c150       ?validate_and_update_state_at_beginning_of_format_character@?$standard_base@_WV?$string_output_adapter@_W@__crt_stdio_output@@@__crt_stdio_output@@IEAA_NXZ 000000014001d150 f i libucrtd:output.obj
 0001:0001c150       ?validate_state_for_type_case_a@?$standard_base@DV?$string_output_adapter@D@__crt_stdio_output@@@__crt_stdio_output@@IEBA_NXZ 000000014001d150 f i libucrtd:output.obj
 0001:0001c150       ?validate_state_for_type_case_a@?$standard_base@_WV?$string_output_adapter@_W@__crt_stdio_output@@@__crt_stdio_output@@IEBA_NXZ 000000014001d150 f i libucrtd:output.obj
 0001:0001c150       ?validate_and_update_state_at_beginning_of_format_character@?$standard_base@DV?$string_output_adapter@D@__crt_stdio_output@@@__crt_stdio_output@@IEAA_NXZ 000000014001d150 f i libucrtd:output.obj
 0001:0001c150       ?should_format@?$standard_base@_WV?$string_output_adapter@_W@__crt_stdio_output@@@__crt_stdio_output@@IEAA_NXZ 000000014001d150 f i libucrtd:output.obj
 0001:0001c150       ?should_format@?$standard_base@DV?$string_output_adapter@D@__crt_stdio_output@@@__crt_stdio_output@@IEAA_NXZ 000000014001d150 f i libucrtd:output.obj
 0001:0001c160       ?should_skip_normal_state_processing@?$standard_base@_WV?$string_output_adapter@_W@__crt_stdio_output@@@__crt_stdio_output@@IEAA_NXZ 000000014001d160 f i libucrtd:output.obj
 0001:0001c160       ?should_skip_type_state_output@?$standard_base@_WV?$string_output_adapter@_W@__crt_stdio_output@@@__crt_stdio_output@@IEBA_NXZ 000000014001d160 f i libucrtd:output.obj
 0001:0001c160       ?should_skip_normal_state_processing@?$standard_base@DV?$string_output_adapter@D@__crt_stdio_output@@@__crt_stdio_output@@IEAA_NXZ 000000014001d160 f i libucrtd:output.obj
 0001:0001c160       ?should_skip_type_state_output@?$standard_base@DV?$string_output_adapter@D@__crt_stdio_output@@@__crt_stdio_output@@IEBA_NXZ 000000014001d160 f i libucrtd:output.obj
 0001:0001c170       ?state_case_dot@?$output_processor@_WV?$string_output_adapter@_W@__crt_stdio_output@@V?$format_validation_base@_WV?$string_output_adapter@_W@__crt_stdio_output@@@2@@__crt_stdio_output@@AEAA_NXZ 000000014001d170 f i libucrtd:output.obj
 0001:0001c170       ?state_case_dot@?$output_processor@DV?$string_output_adapter@D@__crt_stdio_output@@V?$format_validation_base@DV?$string_output_adapter@D@__crt_stdio_output@@@2@@__crt_stdio_output@@AEAA_NXZ 000000014001d170 f i libucrtd:output.obj
 0001:0001c190       ?state_case_flag@?$output_processor@DV?$string_output_adapter@D@__crt_stdio_output@@V?$format_validation_base@DV?$string_output_adapter@D@__crt_stdio_output@@@2@@__crt_stdio_output@@AEAA_NXZ 000000014001d190 f i libucrtd:output.obj
 0001:0001c230       ?state_case_flag@?$output_processor@_WV?$string_output_adapter@_W@__crt_stdio_output@@V?$format_validation_base@_WV?$string_output_adapter@_W@__crt_stdio_output@@@2@@__crt_stdio_output@@AEAA_NXZ 000000014001d230 f i libucrtd:output.obj
 0001:0001c2d0       ?state_case_normal@?$output_processor@DV?$string_output_adapter@D@__crt_stdio_output@@V?$format_validation_base@DV?$string_output_adapter@D@__crt_stdio_output@@@2@@__crt_stdio_output@@AEAA_NXZ 000000014001d2d0 f i libucrtd:output.obj
 0001:0001c3d0       ?state_case_normal@?$output_processor@_WV?$string_output_adapter@_W@__crt_stdio_output@@V?$format_validation_base@_WV?$string_output_adapter@_W@__crt_stdio_output@@@2@@__crt_stdio_output@@AEAA_NXZ 000000014001d3d0 f i libucrtd:output.obj
 0001:0001c4d0       ?state_case_normal_common@?$output_processor@DV?$string_output_adapter@D@__crt_stdio_output@@V?$format_validation_base@DV?$string_output_adapter@D@__crt_stdio_output@@@2@@__crt_stdio_output@@AEAA_NXZ 000000014001d4d0 f i libucrtd:output.obj
 0001:0001c530       ?state_case_normal_common@?$output_processor@_WV?$string_output_adapter@_W@__crt_stdio_output@@V?$format_validation_base@_WV?$string_output_adapter@_W@__crt_stdio_output@@@2@@__crt_stdio_output@@AEAA_NXZ 000000014001d530 f i libucrtd:output.obj
 0001:0001c590       ?state_case_normal_tchar@?$output_processor@DV?$string_output_adapter@D@__crt_stdio_output@@V?$format_validation_base@DV?$string_output_adapter@D@__crt_stdio_output@@@2@@__crt_stdio_output@@AEAA_ND@Z 000000014001d590 f i libucrtd:output.obj
 0001:0001c720       ?state_case_normal_tchar@?$output_processor@_WV?$string_output_adapter@_W@__crt_stdio_output@@V?$format_validation_base@_WV?$string_output_adapter@_W@__crt_stdio_output@@@2@@__crt_stdio_output@@AEAA_N_W@Z 000000014001d720 f i libucrtd:output.obj
 0001:0001c740       ?state_case_percent@?$output_processor@_WV?$string_output_adapter@_W@__crt_stdio_output@@V?$format_validation_base@_WV?$string_output_adapter@_W@__crt_stdio_output@@@2@@__crt_stdio_output@@AEAA_NXZ 000000014001d740 f i libucrtd:output.obj
 0001:0001c740       ?state_case_percent@?$output_processor@DV?$string_output_adapter@D@__crt_stdio_output@@V?$format_validation_base@DV?$string_output_adapter@D@__crt_stdio_output@@@2@@__crt_stdio_output@@AEAA_NXZ 000000014001d740 f i libucrtd:output.obj
 0001:0001c790       ?state_case_precision@?$output_processor@DV?$string_output_adapter@D@__crt_stdio_output@@V?$format_validation_base@DV?$string_output_adapter@D@__crt_stdio_output@@@2@@__crt_stdio_output@@AEAA_NXZ 000000014001d790 f i libucrtd:output.obj
 0001:0001c810       ?state_case_precision@?$output_processor@_WV?$string_output_adapter@_W@__crt_stdio_output@@V?$format_validation_base@_WV?$string_output_adapter@_W@__crt_stdio_output@@@2@@__crt_stdio_output@@AEAA_NXZ 000000014001d810 f i libucrtd:output.obj
 0001:0001c890       ?state_case_size@?$output_processor@DV?$string_output_adapter@D@__crt_stdio_output@@V?$format_validation_base@DV?$string_output_adapter@D@__crt_stdio_output@@@2@@__crt_stdio_output@@AEAA_NXZ 000000014001d890 f i libucrtd:output.obj
 0001:0001cd50       ?state_case_size@?$output_processor@_WV?$string_output_adapter@_W@__crt_stdio_output@@V?$format_validation_base@_WV?$string_output_adapter@_W@__crt_stdio_output@@@2@@__crt_stdio_output@@AEAA_NXZ 000000014001dd50 f i libucrtd:output.obj
 0001:0001d210       ?state_case_type@?$output_processor@DV?$string_output_adapter@D@__crt_stdio_output@@V?$format_validation_base@DV?$string_output_adapter@D@__crt_stdio_output@@@2@@__crt_stdio_output@@AEAA_NXZ 000000014001e210 f i libucrtd:output.obj
 0001:0001d6d0       ?state_case_type@?$output_processor@_WV?$string_output_adapter@_W@__crt_stdio_output@@V?$format_validation_base@_WV?$string_output_adapter@_W@__crt_stdio_output@@@2@@__crt_stdio_output@@AEAA_NXZ 000000014001e6d0 f i libucrtd:output.obj
 0001:0001dc60       ?state_case_width@?$output_processor@DV?$string_output_adapter@D@__crt_stdio_output@@V?$format_validation_base@DV?$string_output_adapter@D@__crt_stdio_output@@@2@@__crt_stdio_output@@AEAA_NXZ 000000014001ec60 f i libucrtd:output.obj
 0001:0001dcf0       ?state_case_width@?$output_processor@_WV?$string_output_adapter@_W@__crt_stdio_output@@V?$format_validation_base@_WV?$string_output_adapter@_W@__crt_stdio_output@@@2@@__crt_stdio_output@@AEAA_NXZ 000000014001ecf0 f i libucrtd:output.obj
 0001:0001dd80       ?state_count@?$format_validation_base@DV?$string_output_adapter@D@__crt_stdio_output@@@__crt_stdio_output@@KAIXZ 000000014001ed80 f i libucrtd:output.obj
 0001:0001dd80       ?state_count@?$format_validation_base@_WV?$string_output_adapter@_W@__crt_stdio_output@@@__crt_stdio_output@@KAIXZ 000000014001ed80 f i libucrtd:output.obj
 0001:0001dd90       ?state_transition_table@?$format_validation_base@DV?$string_output_adapter@D@__crt_stdio_output@@@__crt_stdio_output@@KAAEBV?$spectre_mitigated_lookup_table@Ustate_transition_pair@__crt_stdio_output@@$0IA@@2@XZ 000000014001ed90 f i libucrtd:output.obj
 0001:0001dd90       ?state_transition_table@?$format_validation_base@_WV?$string_output_adapter@_W@__crt_stdio_output@@@__crt_stdio_output@@KAAEBV?$spectre_mitigated_lookup_table@Ustate_transition_pair@__crt_stdio_output@@$0IA@@2@XZ 000000014001ed90 f i libucrtd:output.obj
 0001:0001dda0       ?tchar_string@?$common_data@D@__crt_stdio_output@@IEAAAEAPEADD@Z 000000014001eda0 f i libucrtd:output.obj
 0001:0001ddc0       ?tchar_string@?$common_data@D@__crt_stdio_output@@IEAAAEAPEADXZ 000000014001edc0 f i libucrtd:output.obj
 0001:0001dde0       ?tchar_string@?$common_data@_W@__crt_stdio_output@@IEAAAEAPEA_WXZ 000000014001ede0 f i libucrtd:output.obj
 0001:0001de00       ?tchar_string@?$common_data@_W@__crt_stdio_output@@IEAAAEAPEA_W_W@Z 000000014001ee00 f i libucrtd:output.obj
 0001:0001de20       ?to_integer_size@__crt_stdio_output@@YA_KW4length_modifier@1@@Z 000000014001ee20 f i libucrtd:output.obj
 0001:0001ded0       ?type_case_X@?$output_processor@DV?$string_output_adapter@D@__crt_stdio_output@@V?$format_validation_base@DV?$string_output_adapter@D@__crt_stdio_output@@@2@@__crt_stdio_output@@AEAA_NXZ 000000014001eed0 f i libucrtd:output.obj
 0001:0001def0       ?type_case_X@?$output_processor@_WV?$string_output_adapter@_W@__crt_stdio_output@@V?$format_validation_base@_WV?$string_output_adapter@_W@__crt_stdio_output@@@2@@__crt_stdio_output@@AEAA_NXZ 000000014001eef0 f i libucrtd:output.obj
 0001:0001df10       ?type_case_Z@?$output_processor@DV?$string_output_adapter@D@__crt_stdio_output@@V?$format_validation_base@DV?$string_output_adapter@D@__crt_stdio_output@@@2@@__crt_stdio_output@@AEAA_NXZ 000000014001ef10 f i libucrtd:output.obj
 0001:0001e030       ?type_case_Z@?$output_processor@_WV?$string_output_adapter@_W@__crt_stdio_output@@V?$format_validation_base@_WV?$string_output_adapter@_W@__crt_stdio_output@@@2@@__crt_stdio_output@@AEAA_NXZ 000000014001f030 f i libucrtd:output.obj
 0001:0001e150       ?type_case_a@?$output_processor@DV?$string_output_adapter@D@__crt_stdio_output@@V?$format_validation_base@DV?$string_output_adapter@D@__crt_stdio_output@@@2@@__crt_stdio_output@@AEAA_NXZ 000000014001f150 f i libucrtd:output.obj
 0001:0001e5b0       ?type_case_a@?$output_processor@_WV?$string_output_adapter@_W@__crt_stdio_output@@V?$format_validation_base@_WV?$string_output_adapter@_W@__crt_stdio_output@@@2@@__crt_stdio_output@@AEAA_NXZ 000000014001f5b0 f i libucrtd:output.obj
 0001:0001ea20       ?type_case_c@?$output_processor@DV?$string_output_adapter@D@__crt_stdio_output@@V?$format_validation_base@DV?$string_output_adapter@D@__crt_stdio_output@@@2@@__crt_stdio_output@@AEAA_NXZ 000000014001fa20 f i libucrtd:output.obj
 0001:0001ea40       ?type_case_c@?$output_processor@_WV?$string_output_adapter@_W@__crt_stdio_output@@V?$format_validation_base@_WV?$string_output_adapter@_W@__crt_stdio_output@@@2@@__crt_stdio_output@@AEAA_NXZ 000000014001fa40 f i libucrtd:output.obj
 0001:0001ea60       ?type_case_c_tchar@?$output_processor@DV?$string_output_adapter@D@__crt_stdio_output@@V?$format_validation_base@DV?$string_output_adapter@D@__crt_stdio_output@@@2@@__crt_stdio_output@@AEAA_ND@Z 000000014001fa60 f i libucrtd:output.obj
 0001:0001ebd0       ?type_case_c_tchar@?$output_processor@_WV?$string_output_adapter@_W@__crt_stdio_output@@V?$format_validation_base@_WV?$string_output_adapter@_W@__crt_stdio_output@@@2@@__crt_stdio_output@@AEAA_N_W@Z 000000014001fbd0 f i libucrtd:output.obj
 0001:0001ed30       ?type_case_d@?$output_processor@DV?$string_output_adapter@D@__crt_stdio_output@@V?$format_validation_base@DV?$string_output_adapter@D@__crt_stdio_output@@@2@@__crt_stdio_output@@AEAA_NXZ 000000014001fd30 f i libucrtd:output.obj
 0001:0001ed60       ?type_case_d@?$output_processor@_WV?$string_output_adapter@_W@__crt_stdio_output@@V?$format_validation_base@_WV?$string_output_adapter@_W@__crt_stdio_output@@@2@@__crt_stdio_output@@AEAA_NXZ 000000014001fd60 f i libucrtd:output.obj
 0001:0001ed90       ?type_case_n@?$output_processor@DV?$string_output_adapter@D@__crt_stdio_output@@V?$format_validation_base@DV?$string_output_adapter@D@__crt_stdio_output@@@2@@__crt_stdio_output@@AEAA_NXZ 000000014001fd90 f i libucrtd:output.obj
 0001:0001f020       ?type_case_n@?$output_processor@_WV?$string_output_adapter@_W@__crt_stdio_output@@V?$format_validation_base@_WV?$string_output_adapter@_W@__crt_stdio_output@@@2@@__crt_stdio_output@@AEAA_NXZ 0000000140020020 f i libucrtd:output.obj
 0001:0001f2b0       ?type_case_o@?$output_processor@DV?$string_output_adapter@D@__crt_stdio_output@@V?$format_validation_base@DV?$string_output_adapter@D@__crt_stdio_output@@@2@@__crt_stdio_output@@AEAA_NXZ 00000001400202b0 f i libucrtd:output.obj
 0001:0001f2f0       ?type_case_o@?$output_processor@_WV?$string_output_adapter@_W@__crt_stdio_output@@V?$format_validation_base@_WV?$string_output_adapter@_W@__crt_stdio_output@@@2@@__crt_stdio_output@@AEAA_NXZ 00000001400202f0 f i libucrtd:output.obj
 0001:0001f330       ?type_case_p@?$output_processor@DV?$string_output_adapter@D@__crt_stdio_output@@V?$format_validation_base@DV?$string_output_adapter@D@__crt_stdio_output@@@2@@__crt_stdio_output@@AEAA_NXZ 0000000140020330 f i libucrtd:output.obj
 0001:0001f370       ?type_case_p@?$output_processor@_WV?$string_output_adapter@_W@__crt_stdio_output@@V?$format_validation_base@_WV?$string_output_adapter@_W@__crt_stdio_output@@@2@@__crt_stdio_output@@AEAA_NXZ 0000000140020370 f i libucrtd:output.obj
 0001:0001f3b0       ?type_case_s@?$output_processor@DV?$string_output_adapter@D@__crt_stdio_output@@V?$format_validation_base@DV?$string_output_adapter@D@__crt_stdio_output@@@2@@__crt_stdio_output@@AEAA_NXZ 00000001400203b0 f i libucrtd:output.obj
 0001:0001f4d0       ?type_case_s@?$output_processor@_WV?$string_output_adapter@_W@__crt_stdio_output@@V?$format_validation_base@_WV?$string_output_adapter@_W@__crt_stdio_output@@@2@@__crt_stdio_output@@AEAA_NXZ 00000001400204d0 f i libucrtd:output.obj
 0001:0001f5f0       ?type_case_s_compute_narrow_string_length@?$output_processor@DV?$string_output_adapter@D@__crt_stdio_output@@V?$format_validation_base@DV?$string_output_adapter@D@__crt_stdio_output@@@2@@__crt_stdio_output@@AEAAHHD@Z 00000001400205f0 f i libucrtd:output.obj
 0001:0001f620       ?type_case_s_compute_narrow_string_length@?$output_processor@_WV?$string_output_adapter@_W@__crt_stdio_output@@V?$format_validation_base@_WV?$string_output_adapter@_W@__crt_stdio_output@@@2@@__crt_stdio_output@@AEAAHH_W@Z 0000000140020620 f i libucrtd:output.obj
 0001:0001f6c0       ?type_case_u@?$output_processor@DV?$string_output_adapter@D@__crt_stdio_output@@V?$format_validation_base@DV?$string_output_adapter@D@__crt_stdio_output@@@2@@__crt_stdio_output@@AEAA_NXZ 00000001400206c0 f i libucrtd:output.obj
 0001:0001f6e0       ?type_case_u@?$output_processor@_WV?$string_output_adapter@_W@__crt_stdio_output@@V?$format_validation_base@_WV?$string_output_adapter@_W@__crt_stdio_output@@@2@@__crt_stdio_output@@AEAA_NXZ 00000001400206e0 f i libucrtd:output.obj
 0001:0001f700       ?type_case_x@?$output_processor@DV?$string_output_adapter@D@__crt_stdio_output@@V?$format_validation_base@DV?$string_output_adapter@D@__crt_stdio_output@@@2@@__crt_stdio_output@@AEAA_NXZ 0000000140020700 f i libucrtd:output.obj
 0001:0001f720       ?type_case_x@?$output_processor@_WV?$string_output_adapter@_W@__crt_stdio_output@@V?$format_validation_base@_WV?$string_output_adapter@_W@__crt_stdio_output@@@2@@__crt_stdio_output@@AEAA_NXZ 0000000140020720 f i libucrtd:output.obj
 0001:0001f740       ?unget@?$c_string_character_source@D@__crt_strtox@@QEAAXD@Z 0000000140020740 f i libucrtd:output.obj
 0001:0001f820       ?unget@?$c_string_character_source@_W@__crt_strtox@@QEAAX_W@Z 0000000140020820 f i libucrtd:output.obj
 0001:0001f900       ?unset_flag@?$output_processor@DV?$string_output_adapter@D@__crt_stdio_output@@V?$format_validation_base@DV?$string_output_adapter@D@__crt_stdio_output@@@2@@__crt_stdio_output@@AEAAXI@Z 0000000140020900 f i libucrtd:output.obj
 0001:0001f900       ?unset_flag@?$output_processor@_WV?$string_output_adapter@_W@__crt_stdio_output@@V?$format_validation_base@_WV?$string_output_adapter@_W@__crt_stdio_output@@@2@@__crt_stdio_output@@AEAAXI@Z 0000000140020900 f i libucrtd:output.obj
 0001:0001f930       ?update_field_width@?$standard_base@_WV?$string_output_adapter@_W@__crt_stdio_output@@@__crt_stdio_output@@IEAA_NXZ 0000000140020930 f i libucrtd:output.obj
 0001:0001f930       ?update_field_width@?$standard_base@DV?$string_output_adapter@D@__crt_stdio_output@@@__crt_stdio_output@@IEAA_NXZ 0000000140020930 f i libucrtd:output.obj
 0001:0001f960       ?update_locale@__crt_cached_ptd_host@@AEAAXXZ 0000000140020960 f i libucrtd:output.obj
 0001:0001f990       ?update_locale_slow@__crt_cached_ptd_host@@AEAAXXZ 0000000140020990 f i libucrtd:output.obj
 0001:0001fa40       ?update_precision@?$standard_base@_WV?$string_output_adapter@_W@__crt_stdio_output@@@__crt_stdio_output@@IEAA_NXZ 0000000140020a40 f i libucrtd:output.obj
 0001:0001fa40       ?update_precision@?$standard_base@DV?$string_output_adapter@D@__crt_stdio_output@@@__crt_stdio_output@@IEAA_NXZ 0000000140020a40 f i libucrtd:output.obj
 0001:0001fa70       ?validate@?$c_string_character_source@D@__crt_strtox@@QEBA_NXZ 0000000140020a70 f i libucrtd:output.obj
 0001:0001fb30       ?validate@?$c_string_character_source@_W@__crt_strtox@@QEBA_NXZ 0000000140020b30 f i libucrtd:output.obj
 0001:0001fbf0       ?validate@?$string_output_adapter@D@__crt_stdio_output@@QEBA_NAEAV__crt_cached_ptd_host@@@Z 0000000140020bf0 f i libucrtd:output.obj
 0001:0001fcd0       ?validate@?$string_output_adapter@_W@__crt_stdio_output@@QEBA_NAEAV__crt_cached_ptd_host@@@Z 0000000140020cd0 f i libucrtd:output.obj
 0001:0001fdb0       ?validate_and_update_state_at_end_of_format_string@?$format_validation_base@DV?$string_output_adapter@D@__crt_stdio_output@@@__crt_stdio_output@@IEAA_NXZ 0000000140020db0 f i libucrtd:output.obj
 0001:0001fea0       ?validate_and_update_state_at_end_of_format_string@?$format_validation_base@_WV?$string_output_adapter@_W@__crt_stdio_output@@@__crt_stdio_output@@IEAA_NXZ 0000000140020ea0 f i libucrtd:output.obj
 0001:0001ff90       ?wide_character_to_digit@__crt_strtox@@YAH_W@Z 0000000140020f90 f i libucrtd:output.obj
 0001:00020300       ?wide_null_string@?$output_processor@_WV?$string_output_adapter@_W@__crt_stdio_output@@V?$format_validation_base@_WV?$string_output_adapter@_W@__crt_stdio_output@@@2@@__crt_stdio_output@@CAPEA_WXZ 0000000140021300 f i libucrtd:output.obj
 0001:00020300       ?wide_null_string@?$output_processor@DV?$string_output_adapter@D@__crt_stdio_output@@V?$format_validation_base@DV?$string_output_adapter@D@__crt_stdio_output@@@2@@__crt_stdio_output@@CAPEA_WXZ 0000000140021300 f i libucrtd:output.obj
 0001:00020310       ?write_character@?$string_output_adapter@D@__crt_stdio_output@@QEBA_NDQEAHAEAV__crt_cached_ptd_host@@@Z 0000000140021310 f i libucrtd:output.obj
 0001:000203e0       ?write_character@?$string_output_adapter@_W@__crt_stdio_output@@QEBA_N_WQEAHAEAV__crt_cached_ptd_host@@@Z 00000001400213e0 f i libucrtd:output.obj
 0001:000204b0       ?write_stored_string_tchar@?$output_processor@DV?$string_output_adapter@D@__crt_stdio_output@@V?$format_validation_base@DV?$string_output_adapter@D@__crt_stdio_output@@@2@@__crt_stdio_output@@AEAA_ND@Z 00000001400214b0 f i libucrtd:output.obj
 0001:00020660       ?write_stored_string_tchar@?$output_processor@_WV?$string_output_adapter@_W@__crt_stdio_output@@V?$format_validation_base@_WV?$string_output_adapter@_W@__crt_stdio_output@@@2@@__crt_stdio_output@@AEAA_N_W@Z 0000000140021660 f i libucrtd:output.obj
 0001:000207c0       ?write_string@?$string_output_adapter@D@__crt_stdio_output@@QEBAXQEBDHQEAHAEAV__crt_cached_ptd_host@@@Z 00000001400217c0 f i libucrtd:output.obj
 0001:00020930       ?write_string@?$string_output_adapter@_W@__crt_stdio_output@@QEBAXQEB_WHQEAHAEAV__crt_cached_ptd_host@@@Z 0000000140021930 f i libucrtd:output.obj
 0001:00020aa0       __acrt_isleadbyte_l_noupdate 0000000140021aa0 f i libucrtd:output.obj
 0001:00020ad0       __acrt_locale_get_ctype_array_value 0000000140021ad0 f i libucrtd:output.obj
 0001:00020b10       __ascii_iswalpha           0000000140021b10 f i libucrtd:output.obj
 0001:00020b50       __ascii_toupper            0000000140021b50 f i libucrtd:output.obj
 0001:00020b70       __ascii_towupper           0000000140021b70 f i libucrtd:output.obj
 0001:00020b90       __stdio_common_vsnprintf_s 0000000140021b90 f   libucrtd:output.obj
 0001:00020c20       __stdio_common_vsnwprintf_s 0000000140021c20 f   libucrtd:output.obj
 0001:00020cb0       __stdio_common_vsprintf_s  0000000140021cb0 f   libucrtd:output.obj
 0001:00020d40       _ctype_fast_check_internal 0000000140021d40 f i libucrtd:output.obj
 0001:00020d70       _isdigit_fast_internal     0000000140021d70 f i libucrtd:output.obj
 0001:00020da0       _tolower_fast_internal     0000000140021da0 f i libucrtd:output.obj
 0001:00020de0       strncmp                    0000000140021de0 f   libucrtd:strncmp.obj
 0001:00020e60       wcsncmp                    0000000140021e60 f   libucrtd:wcsncmp.obj
 0001:00020ef0       _clrfp                     0000000140021ef0 f   libucrtd:fpctrl.obj
 0001:00020f20       _ctrlfp                    0000000140021f20 f   libucrtd:fpctrl.obj
 0001:00020fd0       _set_statfp                0000000140021fd0 f   libucrtd:fpctrl.obj
 0001:00021010       _statfp                    0000000140022010 f   libucrtd:fpctrl.obj
 0001:00021210       _handle_error              0000000140022210 f   libucrtd:libm_error.obj
 0001:000213a0       _handle_errorf             00000001400223a0 f   libucrtd:libm_error.obj
 0001:00021530       _handle_nan                0000000140022530 f   libucrtd:libm_error.obj
 0001:00021580       _handle_nanf               0000000140022580 f   libucrtd:libm_error.obj
 0001:000215c0       __remainder_piby2d2f_forAsm 00000001400225c0 f   libucrtd:remainder_piby2f_forasm.obj
 0001:00021710       __remainder_piby2_fma3     0000000140022710 f   libucrtd:remainder_piby2_forfma3.obj
 0001:00021900       __remainder_piby2_fma3_bdl 0000000140022900 f   libucrtd:remainder_piby2_forfma3.obj
 0001:00021980       _cosf_special              0000000140022980 f   libucrtd:sincos_special.obj
 0001:00021ac0       _sinf_special              0000000140022ac0 f   libucrtd:sincos_special.obj
 0001:00021af0       __acrt_initialize_fma3     0000000140022af0 f   libucrtd:fma3_available.obj
 0001:00021ba0       __remainder_piby2d2f_forC  0000000140022ba0 f   libucrtd:remainder_piby2f_forc.obj
 0001:00021d30       __acrt_initialize_locks    0000000140022d30 f   libucrtd:locks.obj
 0001:00021da0       __acrt_lock                0000000140022da0 f   libucrtd:locks.obj
 0001:00021dd0       __acrt_uninitialize_locks  0000000140022dd0 f   libucrtd:locks.obj
 0001:00021e30       __acrt_unlock              0000000140022e30 f   libucrtd:locks.obj
 0001:000227a0       __acrt_getptd              00000001400237a0 f   libucrtd:per_thread_data.obj
 0001:000227d0       __acrt_getptd_head         00000001400237d0 f   libucrtd:per_thread_data.obj
 0001:00022800       __acrt_getptd_noexit       0000000140023800 f   libucrtd:per_thread_data.obj
 0001:00022810       __acrt_getptd_noexit_explicit 0000000140023810 f   libucrtd:per_thread_data.obj
 0001:00022840       __acrt_initialize_ptd      0000000140023840 f   libucrtd:per_thread_data.obj
 0001:00022880       __acrt_uninitialize_ptd    0000000140023880 f   libucrtd:per_thread_data.obj
 0001:000228b0       _set_error_mode            00000001400238b0 f   libucrtd:set_error_mode.obj
 0001:00023040       wcscat_s                   0000000140024040 f   libucrtd:wcscat_s.obj
 0001:00023570       wcscpy_s                   0000000140024570 f   libucrtd:wcscpy_s.obj
 0001:00023c50       wcsncpy_s                  0000000140024c50 f   libucrtd:wcsncpy_s.obj
 0001:00024ff0       ??1?$__crt_simd_cleanup_guard@$00@@QEAA@XZ 0000000140025ff0 f i libucrtd:strnlen.obj
 0001:00025000       ?compare_equals@?$__crt_simd_traits@$00E@@SA?AT__m256i@@T2@0@Z 0000000140026000 f i libucrtd:strnlen.obj
 0001:00025040       ?compare_equals@?$__crt_simd_traits@$00G@@SA?AT__m256i@@T2@0@Z 0000000140026040 f i libucrtd:strnlen.obj
 0001:00025080       ?compare_equals@?$__crt_simd_traits@$0A@E@@SA?AT__m128i@@T2@0@Z 0000000140026080 f i libucrtd:strnlen.obj
 0001:000250b0       ?compare_equals@?$__crt_simd_traits@$0A@G@@SA?AT__m128i@@T2@0@Z 00000001400260b0 f i libucrtd:strnlen.obj
 0001:000250e0       ?compute_byte_mask@?$__crt_simd_pack_traits@$00@@SAHT__m256i@@@Z 00000001400260e0 f i libucrtd:strnlen.obj
 0001:00025100       ?compute_byte_mask@?$__crt_simd_pack_traits@$0A@@@SAHT__m128i@@@Z 0000000140026100 f i libucrtd:strnlen.obj
 0001:00025120       ?get_zero_pack@?$__crt_simd_pack_traits@$00@@SA?AT__m256i@@XZ 0000000140026120 f i libucrtd:strnlen.obj
 0001:00025150       ?get_zero_pack@?$__crt_simd_pack_traits@$0A@@@SA?AT__m128i@@XZ 0000000140026150 f i libucrtd:strnlen.obj
 0001:00025170       strnlen                    0000000140026170 f   libucrtd:strnlen.obj
 0001:000251a0       wcslen                     00000001400261a0 f   libucrtd:strnlen.obj
 0001:000251c0       wcsnlen                    00000001400261c0 f   libucrtd:strnlen.obj
 0001:00025330       ??$message_box@$$TAEBQEB_WAEBQEB_WK@?$__crt_char_traits@_W@@SAH$$QEA$$TAEBQEB_W1$$QEAK@Z 0000000140026330 f i libucrtd:crtmbox.obj
 0001:00025330       ??$message_box@PEAUHWND__@@AEBQEB_WAEBQEB_WAEBI@?$__crt_char_traits@_W@@SAH$$QEAPEAUHWND__@@AEBQEB_W1AEBI@Z 0000000140026330 f i libucrtd:crtmbox.obj
 0001:00025380       ??$output_debug_string@AEBQEB_W@?$__crt_char_traits@_W@@SAXAEBQEB_W@Z 0000000140026380 f i libucrtd:crtmbox.obj
 0001:000253a0       __acrt_show_wide_message_box 00000001400263a0 f   libucrtd:crtmbox.obj
 0001:000253d0       ?get_doserrno@__crt_cached_ptd_host@@QEAAAEAU?$cached@K@1@XZ 00000001400263d0 f i libucrtd:errno.obj
 0001:000253e0       __acrt_errno_from_os_error 00000001400263e0 f   libucrtd:errno.obj
 0001:00025470       __acrt_errno_map_os_error  0000000140026470 f   libucrtd:errno.obj
 0001:000254a0       __acrt_errno_map_os_error_ptd 00000001400264a0 f   libucrtd:errno.obj
 0001:00025500       __doserrno                 0000000140026500 f   libucrtd:errno.obj
 0001:00025530       _errno                     0000000140026530 f   libucrtd:errno.obj
 0001:00025590       ??$__acrt_convert_wcs_mbs_cp@D_WV<lambda_7c9dea7b4ca7285d2cdb541a38da6275>@@U__crt_win32_buffer_internal_dynamic_resizing@@@@YAHQEBDAEAV?$__crt_win32_buffer@_WU__crt_win32_buffer_internal_dynamic_resizing@@@@AEBV<lambda_7c9dea7b4ca7285d2cdb541a38da6275>@@I@Z 0000000140026590 f i libucrtd:argv_wildcards.obj
 0001:00025740       ??$__acrt_convert_wcs_mbs_cp@_WDV<lambda_d8593a27d1aa8c02be35c86a17d324c4>@@U__crt_win32_buffer_internal_dynamic_resizing@@@@YAHQEB_WAEAV?$__crt_win32_buffer@DU__crt_win32_buffer_internal_dynamic_resizing@@@@AEBV<lambda_d8593a27d1aa8c02be35c86a17d324c4>@@I@Z 0000000140026740 f i libucrtd:argv_wildcards.obj
 0001:000258f0       ??$__acrt_mbs_to_wcs_cp@U__crt_win32_buffer_internal_dynamic_resizing@@@@YAHQEBDAEAV?$__crt_win32_buffer@_WU__crt_win32_buffer_internal_dynamic_resizing@@@@I@Z 00000001400268f0 f i libucrtd:argv_wildcards.obj
 0001:00025940       ??$__acrt_wcs_to_mbs_cp@U__crt_win32_buffer_internal_dynamic_resizing@@@@YAHQEB_WAEAV?$__crt_win32_buffer@DU__crt_win32_buffer_internal_dynamic_resizing@@@@I@Z 0000000140026940 f i libucrtd:argv_wildcards.obj
 0001:00026380       ??$tcsncpy_s@AEAPEAD_KAEAPEADAEB_K@?$__crt_char_traits@D@@SAHAEAPEAD$$QEA_K0AEB_K@Z 0000000140027380 f i libucrtd:argv_wildcards.obj
 0001:00026380       ??$tcsncpy_s@PEAD_KAEBQEBDAEB_K@?$__crt_char_traits@D@@SAH$$QEAPEAD$$QEA_KAEBQEBDAEB_K@Z 0000000140027380 f i libucrtd:argv_wildcards.obj
 0001:00026380       ??$tcsncpy_s@PEADAEB_KAEBQEBDAEB_K@?$__crt_char_traits@D@@SAH$$QEAPEADAEB_KAEBQEBD1@Z 0000000140027380 f i libucrtd:argv_wildcards.obj
 0001:000263d0       ??$tcspbrk@AEAPEADAEAY02$$CBD@?$__crt_char_traits@D@@SAPEADAEAPEADAEAY02$$CBD@Z 00000001400273d0 f i libucrtd:argv_wildcards.obj
 0001:00026400       ??0?$__crt_win32_buffer@_WU__crt_win32_buffer_internal_dynamic_resizing@@@@QEAA@XZ 0000000140027400 f i libucrtd:argv_wildcards.obj
 0001:00026400       ??0?$__crt_win32_buffer@DU__crt_win32_buffer_internal_dynamic_resizing@@@@QEAA@XZ 0000000140027400 f i libucrtd:argv_wildcards.obj
 0001:000264a0       ??1?$__crt_unique_handle_t@U__crt_findfile_traits@@@@QEAA@XZ 00000001400274a0 f i libucrtd:argv_wildcards.obj
 0001:000264c0       ??1?$__crt_win32_buffer@DU__crt_win32_buffer_internal_dynamic_resizing@@@@QEAA@XZ 00000001400274c0 f i libucrtd:argv_wildcards.obj
 0001:000264c0       ??1?$__crt_win32_buffer@_WU__crt_win32_buffer_internal_dynamic_resizing@@@@QEAA@XZ 00000001400274c0 f i libucrtd:argv_wildcards.obj
 0001:00026570       ??R<lambda_7c9dea7b4ca7285d2cdb541a38da6275>@@QEBAHIQEBDQEA_W_K@Z 0000000140027570 f i libucrtd:argv_wildcards.obj
 0001:00026650       ??R<lambda_d8593a27d1aa8c02be35c86a17d324c4>@@QEBAHIQEB_WQEAD_K@Z 0000000140027650 f i libucrtd:argv_wildcards.obj
 0001:00026650       ??R<lambda_f788ae46380686e8b737efdd8c720d07>@@QEBAHIQEB_WQEAD_K@Z 0000000140027650 f i libucrtd:getmodulefilenamea.obj
 0001:000266b0       ?__acrt_get_utf8_acp_compatibility_codepage@@YAIXZ 00000001400276b0 f i libucrtd:argv_wildcards.obj
 0001:00026750       ?_deallocate@?$__crt_win32_buffer@_WU__crt_win32_buffer_internal_dynamic_resizing@@@@AEAAXXZ 0000000140027750 f i libucrtd:argv_wildcards.obj
 0001:00026750       ?_deallocate@?$__crt_win32_buffer@DU__crt_win32_buffer_internal_dynamic_resizing@@@@AEAAXXZ 0000000140027750 f i libucrtd:argv_wildcards.obj
 0001:000267a0       ?allocate@?$__crt_win32_buffer@DU__crt_win32_buffer_internal_dynamic_resizing@@@@QEAAH_K@Z 00000001400277a0 f i libucrtd:argv_wildcards.obj
 0001:00026820       ?allocate@?$__crt_win32_buffer@_WU__crt_win32_buffer_internal_dynamic_resizing@@@@QEAAH_K@Z 0000000140027820 f i libucrtd:argv_wildcards.obj
 0001:000268b0       ?allocate@__crt_win32_buffer_internal_dynamic_resizing@@SAHQEAPEAX_KAEBV__crt_win32_buffer_empty_debug_info@@@Z 00000001400278b0 f i libucrtd:argv_wildcards.obj
 0001:00026980       ?capacity@?$__crt_win32_buffer@DU__crt_win32_buffer_internal_dynamic_resizing@@@@QEBA_KXZ 0000000140027980 f i libucrtd:argv_wildcards.obj
 0001:00026980       ?capacity@?$__crt_win32_buffer@_WU__crt_win32_buffer_internal_dynamic_resizing@@@@QEBA_KXZ 0000000140027980 f i libucrtd:argv_wildcards.obj
 0001:00026980       ?capacity@?$__crt_win32_buffer@DU__crt_win32_buffer_no_resizing@@@@QEBA_KXZ 0000000140027980 f i libucrtd:getmodulefilenamea.obj
 0001:00026990       ?close@?$__crt_unique_handle_t@U__crt_findfile_traits@@@@QEAAXXZ 0000000140027990 f i libucrtd:argv_wildcards.obj
 0001:000269d0       ?close@__crt_findfile_traits@@SA_NPEAX@Z 00000001400279d0 f i libucrtd:argv_wildcards.obj
 0001:00026a10       ?data@?$__crt_win32_buffer@DU__crt_win32_buffer_no_resizing@@@@QEAAPEADXZ 0000000140027a10 f i libucrtd:getmodulefilenamea.obj
 0001:00026a10       ?data@?$__crt_win32_buffer@DU__crt_win32_buffer_internal_dynamic_resizing@@@@QEAAPEADXZ 0000000140027a10 f i libucrtd:argv_wildcards.obj
 0001:00026a10       ?data@?$__crt_win32_buffer@_WU__crt_win32_buffer_internal_dynamic_resizing@@@@QEAAPEA_WXZ 0000000140027a10 f i libucrtd:argv_wildcards.obj
 0001:00026a20       ?deallocate@__crt_win32_buffer_internal_dynamic_resizing@@SAXQEAXAEBV__crt_win32_buffer_empty_debug_info@@@Z 0000000140027a20 f i libucrtd:argv_wildcards.obj
 0001:00026d10       ?set_to_nullptr@?$__crt_win32_buffer@DU__crt_win32_buffer_internal_dynamic_resizing@@@@QEAAXXZ 0000000140027d10 f i libucrtd:argv_wildcards.obj
 0001:00026d10       ?set_to_nullptr@?$__crt_win32_buffer@_WU__crt_win32_buffer_internal_dynamic_resizing@@@@QEAAXXZ 0000000140027d10 f i libucrtd:argv_wildcards.obj
 0001:00026d50       ?size@?$__crt_win32_buffer@DU__crt_win32_buffer_internal_dynamic_resizing@@@@QEAAX_K@Z 0000000140027d50 f i libucrtd:argv_wildcards.obj
 0001:00026d50       ?size@?$__crt_win32_buffer@_WU__crt_win32_buffer_internal_dynamic_resizing@@@@QEAAX_K@Z 0000000140027d50 f i libucrtd:argv_wildcards.obj
 0001:00026d50       ?size@?$__crt_win32_buffer@DU__crt_win32_buffer_no_resizing@@@@QEAAX_K@Z 0000000140027d50 f i libucrtd:getmodulefilenamea.obj
 0001:00026d90       ?strpbrk@@YAPEADQEADQEBD@Z 0000000140027d90 f i libucrtd:argv_wildcards.obj
 0001:00026dc0       __acrt_expand_narrow_argv_wildcards 0000000140027dc0 f   libucrtd:argv_wildcards.obj
 0001:00026df0       ??$__acrt_convert_wcs_mbs_cp@_WDV<lambda_f788ae46380686e8b737efdd8c720d07>@@U__crt_win32_buffer_no_resizing@@@@YAHQEB_WAEAV?$__crt_win32_buffer@DU__crt_win32_buffer_no_resizing@@@@AEBV<lambda_f788ae46380686e8b737efdd8c720d07>@@I@Z 0000000140027df0 f i libucrtd:getmodulefilenamea.obj
 0001:00026fa0       ??$__acrt_wcs_to_mbs_cp@U__crt_win32_buffer_no_resizing@@@@YAHQEB_WAEAV?$__crt_win32_buffer@DU__crt_win32_buffer_no_resizing@@@@I@Z 0000000140027fa0 f i libucrtd:getmodulefilenamea.obj
 0001:00026ff0       ??0?$__crt_win32_buffer@DU__crt_win32_buffer_no_resizing@@@@QEAA@QEAD_K@Z 0000000140027ff0 f i libucrtd:getmodulefilenamea.obj
 0001:00027060       ??1?$__crt_win32_buffer@DU__crt_win32_buffer_no_resizing@@@@QEAA@XZ 0000000140028060 f i libucrtd:getmodulefilenamea.obj
 0001:00027090       ?_deallocate@?$__crt_win32_buffer@DU__crt_win32_buffer_no_resizing@@@@AEAAXXZ 0000000140028090 f i libucrtd:getmodulefilenamea.obj
 0001:000270e0       ?allocate@?$__crt_win32_buffer@DU__crt_win32_buffer_no_resizing@@@@QEAAH_K@Z 00000001400280e0 f i libucrtd:getmodulefilenamea.obj
 0001:00027160       ?allocate@__crt_win32_buffer_no_resizing@@SAHQEAPEAX_KAEBV__crt_win32_buffer_empty_debug_info@@@Z 0000000140028160 f i libucrtd:getmodulefilenamea.obj
 0001:00027190       ?deallocate@__crt_win32_buffer_no_resizing@@SAXQEAXAEBV__crt_win32_buffer_empty_debug_info@@@Z 0000000140028190 f i libucrtd:getmodulefilenamea.obj
 0001:000271a0       ?set_to_nullptr@?$__crt_win32_buffer@DU__crt_win32_buffer_no_resizing@@@@QEAAXXZ 00000001400281a0 f i libucrtd:getmodulefilenamea.obj
 0001:000271e0       ?size@?$__crt_win32_buffer@DU__crt_win32_buffer_no_resizing@@@@QEBA_KXZ 00000001400281e0 f i libucrtd:getmodulefilenamea.obj
 0001:000271f0       __acrt_GetModuleFileNameA  00000001400281f0 f   libucrtd:getmodulefilenamea.obj
 0001:00027370       ??$initialize_from_array@$$BY10BAA@E@?$dual_state_global@PEAE@__crt_state_management@@QEAAXAEAY10BAA@E@Z 0000000140028370 f i libucrtd:mbctype.obj
 0001:000273e0       ??$initialize_from_array@$$BY10BAB@E@?$dual_state_global@PEAE@__crt_state_management@@QEAAXAEAY10BAB@E@Z 00000001400283e0 f i libucrtd:mbctype.obj
 0001:00027f80       __acrt_initialize_multibyte 0000000140028f80 f   libucrtd:mbctype.obj
 0001:00028050       __acrt_should_sync_with_global_locale 0000000140029050 f i libucrtd:mbctype.obj
 0001:00028090       __acrt_update_thread_multibyte_data 0000000140029090 f   libucrtd:mbctype.obj
 0001:000280d0       _setmbcp_nolock            00000001400290d0 f   libucrtd:mbctype.obj
 0001:000287c0       _ismbblead                 00000001400297c0 f   libucrtd:ismbbyte.obj
 0001:000287f0       __acrt_initialize_command_line 00000001400297f0 f   libucrtd:argv_data.obj
 0001:000288c0       __acrt_MultiByteToWideChar 00000001400298c0 f   libucrtd:multibytetowidechar.obj
 0001:000289c0       __acrt_WideCharToMultiByte 00000001400299c0 f   libucrtd:widechartomultibyte.obj
 0001:00028c00       __dcrt_get_narrow_environment_from_os 0000000140029c00 f   libucrtd:get_environment_from_os.obj
 0001:00029110       __acrt_get_developer_information_policy 000000014002a110 f   libucrtd:win_policies.obj
 0001:00029130       __acrt_get_process_end_policy 000000014002a130 f   libucrtd:win_policies.obj
 0001:00029140       __acrt_get_windowing_model_policy 000000014002a140 f   libucrtd:win_policies.obj
 0001:00029160       __acrt_lowio_create_handle_array 000000014002a160 f   libucrtd:osfinfo.obj
 0001:00029320       __acrt_lowio_destroy_handle_array 000000014002a320 f   libucrtd:osfinfo.obj
 0001:000293a0       __acrt_lowio_ensure_fh_exists 000000014002a3a0 f   libucrtd:osfinfo.obj
 0001:00029500       __acrt_lowio_lock_fh       000000014002a500 f   libucrtd:osfinfo.obj
 0001:00029540       __acrt_lowio_unlock_fh     000000014002a540 f   libucrtd:osfinfo.obj
 0001:00029580       _free_osfhnd               000000014002a580 f   libucrtd:osfinfo.obj
 0001:000296b0       _get_osfhandle             000000014002a6b0 f   libucrtd:osfinfo.obj
 0001:000298b0       __acrt_initialize_fmode    000000014002a8b0 f   libucrtd:txtmode.obj
 0001:00029cb0       __acrt_initialize_lowio    000000014002acb0 f   libucrtd:ioinit.obj
 0001:00029d00       __acrt_uninitialize_lowio  000000014002ad00 f   libucrtd:ioinit.obj
 0001:00029d80       __acrt_locale_free_monetary 000000014002ad80 f   libucrtd:initmon.obj
 0001:00029f90       __acrt_locale_free_numeric 000000014002af90 f   libucrtd:initnum.obj
 0001:0002a130       __acrt_locale_free_time    000000014002b130 f   libucrtd:inittime.obj
 0001:0002a2a0       _chvalidator_l             000000014002b2a0 f   libucrtd:isctype.obj
 0001:0002a350       _isctype_l                 000000014002b350 f   libucrtd:isctype.obj
 0001:0002a580       _isleadbyte_fast_internal  000000014002b580 f i libucrtd:isctype.obj
 0001:0002a5b0       ??1?$__crt_scoped_stack_ptr@_W@@QEAA@XZ 000000014002b5b0 f i libucrtd:getstringtypea.obj
 0001:0002a5d0       _MallocaComputeSize        000000014002b5d0 f i libucrtd:getstringtypea.obj
 0001:0002a610       _MarkAllocaS               000000014002b610 f i libucrtd:getstringtypea.obj
 0001:0002a640       __acrt_GetStringTypeA      000000014002b640 f   libucrtd:getstringtypea.obj
 0001:0002a8a0       _freea_crt                 000000014002b8a0 f i libucrtd:getstringtypea.obj
 0001:0002a940       __acrt_add_locale_ref      000000014002b940 f   libucrtd:locale_refcounting.obj
 0001:0002aaa0       __acrt_free_locale         000000014002baa0 f   libucrtd:locale_refcounting.obj
 0001:0002ae20       __acrt_locale_add_lc_time_reference 000000014002be20 f   libucrtd:locale_refcounting.obj
 0001:0002ae60       __acrt_locale_free_lc_time_if_unreferenced 000000014002be60 f   libucrtd:locale_refcounting.obj
 0001:0002aec0       __acrt_locale_release_lc_time_reference 000000014002bec0 f   libucrtd:locale_refcounting.obj
 0001:0002af00       __acrt_release_locale_ref  000000014002bf00 f   libucrtd:locale_refcounting.obj
 0001:0002b070       __acrt_update_thread_locale_data 000000014002c070 f   libucrtd:locale_refcounting.obj
 0001:0002b110       _updatetlocinfoEx_nolock   000000014002c110 f   libucrtd:locale_refcounting.obj
 0001:0002b860       GetCurrentThreadEffectiveToken 000000014002c860 f i libucrtd:winapi_thunks.obj
 0001:0002b870       __acrt_AppPolicyGetProcessTerminationMethodInternal 000000014002c870 f   libucrtd:winapi_thunks.obj
 0001:0002b8d0       __acrt_AppPolicyGetShowDeveloperDiagnosticInternal 000000014002c8d0 f   libucrtd:winapi_thunks.obj
 0001:0002b930       __acrt_AppPolicyGetWindowingModelInternal 000000014002c930 f   libucrtd:winapi_thunks.obj
 0001:0002b990       __acrt_AreFileApisANSI     000000014002c990 f   libucrtd:winapi_thunks.obj
 0001:0002b9e0       __acrt_FlsAlloc            000000014002c9e0 f   libucrtd:winapi_thunks.obj
 0001:0002ba00       __acrt_FlsFree             000000014002ca00 f   libucrtd:winapi_thunks.obj
 0001:0002ba20       __acrt_FlsGetValue         000000014002ca20 f   libucrtd:winapi_thunks.obj
 0001:0002ba40       __acrt_FlsSetValue         000000014002ca40 f   libucrtd:winapi_thunks.obj
 0001:0002ba70       __acrt_InitializeCriticalSectionEx 000000014002ca70 f   libucrtd:winapi_thunks.obj
 0001:0002baf0       __acrt_LCMapStringEx       000000014002caf0 f   libucrtd:winapi_thunks.obj
 0001:0002bc00       __acrt_LocaleNameToLCID    000000014002cc00 f   libucrtd:winapi_thunks.obj
 0001:0002bc70       __acrt_MessageBoxW         000000014002cc70 f   libucrtd:winapi_thunks.obj
 0001:0002bcf0       __acrt_can_show_message_box 000000014002ccf0 f   libucrtd:winapi_thunks.obj
 0001:0002bd30       __acrt_get_parent_window   000000014002cd30 f   libucrtd:winapi_thunks.obj
 0001:0002bdd0       __acrt_initialize_winapi_thunks 000000014002cdd0 f   libucrtd:winapi_thunks.obj
 0001:0002be50       __acrt_is_interactive      000000014002ce50 f   libucrtd:winapi_thunks.obj
 0001:0002bf60       __acrt_uninitialize_winapi_thunks 000000014002cf60 f   libucrtd:winapi_thunks.obj
 0001:0002c000       __acrt_initialize_heap     000000014002d000 f   libucrtd:heap_handle.obj
 0001:0002c030       __acrt_uninitialize_heap   000000014002d030 f   libucrtd:heap_handle.obj
 0001:0002c050       __acrt_execute_initializers 000000014002d050 f   libucrtd:shared_initialization.obj
 0001:0002c150       __acrt_execute_uninitializers 000000014002d150 f   libucrtd:shared_initialization.obj
 0001:0002c3b0       __acrt_get_sigabrt_handler 000000014002d3b0 f   libucrtd:signal.obj
 0001:0002c3e0       __acrt_initialize_signal_handlers 000000014002d3e0 f   libucrtd:signal.obj
 0001:0002c440       __fpecode                  000000014002d440 f   libucrtd:signal.obj
 0001:0002c460       raise                      000000014002d460 f   libucrtd:signal.obj
 0001:0002c950       ?has_any_of@__crt_stdio_stream@@QEBA_NJ@Z 000000014002d950 f i libucrtd:_sftbuf.obj
 0001:0002c990       ?set_flags@__crt_stdio_stream@@QEBA_NJ@Z 000000014002d990 f i libucrtd:_sftbuf.obj
 0001:0002ca00       ?unset_flags@__crt_stdio_stream@@QEBA_NJ@Z 000000014002da00 f i libucrtd:_sftbuf.obj
 0001:0002ca70       _free_base                 000000014002da70 f   libucrtd:free_base.obj
 0001:0002cad0       _realloc_base              000000014002dad0 f   libucrtd:realloc_base.obj
 0001:0002cbf0       _expand_base               000000014002dbf0 f   libucrtd:expand.obj
 0001:0002cd80       ?value_explicit@?$dual_state_global@PEAU__crt_locale_data@@@__crt_state_management@@QEAAAEAPEAU__crt_locale_data@@_K@Z 000000014002dd80 f i libucrtd:locale_update.obj
 0001:0002cd80       ?value_explicit@?$dual_state_global@PEAU__crt_multibyte_data@@@__crt_state_management@@QEAAAEAPEAU__crt_multibyte_data@@_K@Z 000000014002dd80 f i libucrtd:locale_update.obj
 0001:0002cda0       __acrt_update_locale_info  000000014002dda0 f   libucrtd:locale_update.obj
 0001:0002cdf0       __acrt_update_locale_info_explicit 000000014002ddf0 f   libucrtd:locale_update.obj
 0001:0002ce50       __acrt_update_multibyte_info 000000014002de50 f   libucrtd:locale_update.obj
 0001:0002cea0       __acrt_update_multibyte_info_explicit 000000014002dea0 f   libucrtd:locale_update.obj
 0001:0002cf00       _CrtDefaultAllocHook       000000014002df00 f   libucrtd:debug_heap_hook.obj
 0001:0002cf20       _VCrtDbgReportA            000000014002df20 f   libucrtd:dbgrptt.obj
 0001:0002d960       _VCrtDbgReportW            000000014002e960 f   libucrtd:dbgrptt.obj
 0001:0002e570       _snprintf_s                000000014002f570 f i libucrtd:dbgrptt.obj
 0001:0002e5e0       _vsnprintf_s               000000014002f5e0 f i libucrtd:dbgrptt.obj
 0001:0002e630       _vsnprintf_s_l             000000014002f630 f i libucrtd:dbgrptt.obj
 0001:0002e6b0       _CrtGetDebugFillThreshold  000000014002f6b0 f   libucrtd:debug_fill_threshold.obj
 0001:0002e6c0       ?__acrt_fp_classify@@YA?AW4__acrt_fp_class@@AEBN@Z 000000014002f6c0 f i libucrtd:cvt.obj
 0001:0002e7c0       ?__acrt_fp_is_negative@@YA_NAEBN@Z 000000014002f7c0 f i libucrtd:cvt.obj
 0001:000300e0       ?strrchr@@YAPEADQEADH@Z    00000001400310e0 f i libucrtd:cvt.obj
 0001:00030100       __acrt_fp_format           0000000140031100 f   libucrtd:cvt.obj
 0001:000307c0       ?value_or@?$cached@H@__crt_cached_ptd_host@@QEBAHH@Z 00000001400317c0 f i libucrtd:wctomb.obj
 0001:000307f0       _wctomb_internal           00000001400317f0 f   libucrtd:wctomb.obj
 0001:00030d50       _mbtowc_internal           0000000140031d50 f   libucrtd:mbtowc.obj
 0001:000310e0       ?lowio_handle@__crt_stdio_stream@@QEBAHXZ 00000001400320e0 f i libucrtd:fileno.obj
 0001:00031110       _fileno                    0000000140032110 f   libucrtd:fileno.obj
 0001:000311f0       __acrt_initialize_stdio    00000001400321f0 f   libucrtd:_file.obj
 0001:000313e0       __acrt_uninitialize_stdio  00000001400323e0 f   libucrtd:_file.obj
 0001:00031470       _lock_file                 0000000140032470 f   libucrtd:_file.obj
 0001:000314b0       _unlock_file               00000001400324b0 f   libucrtd:_file.obj
 0001:000314f0       _get_printf_count_output   00000001400324f0 f   libucrtd:printf_count_output.obj
 0001:00031530       _get_fpsr                  0000000140032530 f   libucrtd:fpsr.obj
 0001:00031540       _set_fpsr                  0000000140032540 f   libucrtd:fpsr.obj
 0001:0003154a       _fclrf                     000000014003254a f   libucrtd:fpsr.obj
 0001:0003155e       _frnd                      000000014003255e f   libucrtd:fpsr.obj
 0001:00031580       _raise_exc                 0000000140032580 f   libucrtd:fpexcept.obj
 0001:000315e0       _raise_exc_ex              00000001400325e0 f   libucrtd:fpexcept.obj
 0001:00031c60       _raise_excf                0000000140032c60 f   libucrtd:fpexcept.obj
 0001:00031cc0       _set_errno_from_matherr    0000000140032cc0 f   libucrtd:fpexcept.obj
 0001:00031d10       __acrt_OutputDebugStringA  0000000140032d10 f   libucrtd:outputdebugstringa.obj
 0001:00031f60       qsort                      0000000140032f60 f   libucrtd:qsort.obj
 0001:00032dd0       strncpy_s                  0000000140033dd0 f   libucrtd:strncpy_s.obj
 0001:00032f40       strpbrk                    0000000140033f40 f   libucrtd:strpbrk.obj
 0001:00033830       _mbsdec                    0000000140034830 f   libucrtd:mbsdec.obj
 0001:00033860       _mbsdec_l                  0000000140034860 f   libucrtd:mbsdec.obj
 0001:000340f0       __acrt_LCMapStringA        00000001400350f0 f   libucrtd:lcmapstringa.obj
 0001:00034dc0       _itoa_s                    0000000140035dc0 f   libucrtd:xtoa.obj
 0001:00034e20       _itow_s                    0000000140035e20 f   libucrtd:xtoa.obj
 0001:00034e80       __ascii_wcsnicmp           0000000140035e80 f   libucrtd:wcsnicmp.obj
 0001:00035000       __acrt_DownlevelLocaleNameToLCID 0000000140036000 f   libucrtd:lcidtoname_downlevel.obj
 0001:00035060       _isatty                    0000000140036060 f   libucrtd:isatty.obj
 0001:00035510       ?__acrt_stdio_reset_buffer@@YAXV__crt_stdio_stream@@@Z 0000000140036510 f i libucrtd:fflush.obj
 0001:000356e0       ?has_all_of@__crt_stdio_stream@@QEBA_NJ@Z 00000001400366e0 f i libucrtd:fflush.obj
 0001:000357c0       __acrt_stdio_flush_nolock  00000001400367c0 f   libucrtd:fflush.obj
 0001:000358e0       _fflush_nolock             00000001400368e0 f   libucrtd:fflush.obj
 0001:00035920       _flushall                  0000000140036920 f   libucrtd:fflush.obj
 0001:00035930       _malloc_base               0000000140036930 f   libucrtd:malloc_base.obj
 0001:000364e0       mbstowcs_s                 00000001400374e0 f   libucrtd:mbstowcs.obj
 0001:00037350       wcstombs_s                 0000000140038350 f   libucrtd:wcstombs.obj
 0001:00037a40       strcat_s                   0000000140038a40 f   libucrtd:strcat_s.obj
 0001:00037c20       __acrt_fp_strflt_to_string 0000000140038c20 f   libucrtd:_fptostr.obj
 0001:000387e0       ??4big_integer@__crt_strtox@@QEAAAEAU01@AEBU01@@Z 00000001400397e0 f i libucrtd:cfout.obj
 0001:000387e0       ??0big_integer@__crt_strtox@@QEAA@AEBU01@@Z 00000001400397e0 f i libucrtd:cfout.obj
 0001:00038840       ??0big_integer@__crt_strtox@@QEAA@XZ 0000000140039840 f i libucrtd:cfout.obj
 0001:00038900       ??8__crt_strtox@@YA_NAEBUbig_integer@0@0@Z 0000000140039900 f i libucrtd:cfout.obj
 0001:00038970       ??9__crt_strtox@@YA_NAEBUbig_integer@0@0@Z 0000000140039970 f i libucrtd:cfout.obj
 0001:000389b0       ?add_carry@__crt_strtox@@YAIAEAIII@Z 00000001400399b0 f i libucrtd:cfout.obj
 0001:00038a00       ?add_multiply_carry@__crt_strtox@@YAIAEAIIII@Z 0000000140039a00 f i libucrtd:cfout.obj
 0001:00038a60       ?bit_scan_reverse@__crt_strtox@@YAII@Z 0000000140039a60 f i libucrtd:cfout.obj
 0001:00038aa0       ?count_sequential_high_zeroes@__crt_strtox@@YAII@Z 0000000140039aa0 f i libucrtd:cfout.obj
 0001:00038ae0       ?divide@__crt_strtox@@YA_KAEAUbig_integer@1@AEBU21@@Z 0000000140039ae0 f i libucrtd:cfout.obj
 0001:000394b0       ?is_zero@__crt_strtox@@YA_NAEBUbig_integer@1@@Z 000000014003a4b0 f i libucrtd:cfout.obj
 0001:000394e0       ?make_big_integer@__crt_strtox@@YA?AUbig_integer@1@_K@Z 000000014003a4e0 f i libucrtd:cfout.obj
 0001:000395b0       ?make_big_integer_power_of_two@__crt_strtox@@YA?AUbig_integer@1@I@Z 000000014003a5b0 f i libucrtd:cfout.obj
 0001:00039680       ?multiply@__crt_strtox@@YA_NAEAUbig_integer@1@AEBU21@@Z 000000014003a680 f i libucrtd:cfout.obj
 0001:00039a00       ?multiply@__crt_strtox@@YA_NAEAUbig_integer@1@I@Z 000000014003aa00 f i libucrtd:cfout.obj
 0001:00039b20       ?multiply_64_32@__crt_strtox@@YA_K_KI@Z 000000014003ab20 f i libucrtd:cfout.obj
 0001:00039b40       ?multiply_by_power_of_ten@__crt_strtox@@YA_NAEAUbig_integer@1@I@Z 000000014003ab40 f i libucrtd:cfout.obj
 0001:00039cf0       ?multiply_core@__crt_strtox@@YAIQEAIII@Z 000000014003acf0 f i libucrtd:cfout.obj
 0001:00039d70       ?shift_left@__crt_strtox@@YA_NAEAUbig_integer@1@I@Z 000000014003ad70 f i libucrtd:cfout.obj
 0001:0003a050       __acrt_fltout              000000014003b050 f   libucrtd:cfout.obj
 0001:0003a410       fegetround                 000000014003b410 f   libucrtd:fegetround.obj
 0001:0003a430       ?__c32rtomb_utf8@__crt_mbstring@@YA_KPEAD_UPEAU_Mbstatet@@AEAV__crt_cached_ptd_host@@@Z 000000014003b430 f   libucrtd:c32rtomb.obj
 0001:0003a740       ?__mbrtowc_utf8@__crt_mbstring@@YA_KPEA_WPEBD_KPEAU_Mbstatet@@AEAV__crt_cached_ptd_host@@@Z 000000014003b740 f   libucrtd:mbrtowc.obj
 0001:0003a7c0       ?__mbsrtowcs_utf8@__crt_mbstring@@YA_KPEA_WPEAPEBD_KPEAU_Mbstatet@@AEAV__crt_cached_ptd_host@@@Z 000000014003b7c0 f   libucrtd:mbrtowc.obj
 0001:0003ab10       ?is_in_use@__crt_stdio_stream@@QEBA_NXZ 000000014003bb10 f i libucrtd:closeall.obj
 0001:0003ab50       _fcloseall                 000000014003bb50 f   libucrtd:closeall.obj
 0001:0003ac60       ?has_crt_buffer@__crt_stdio_stream@@QEBA_NXZ 000000014003bc60 f i libucrtd:_freebuf.obj
 0001:0003ac80       __acrt_stdio_free_buffer_nolock 000000014003bc80 f   libucrtd:_freebuf.obj
 0001:0003ad60       __strncnt                  000000014003bd60 f   libucrtd:strncnt.obj
 0001:0003af80       _commit                    000000014003bf80 f   libucrtd:commit.obj
 0001:0003c970       _utf8_no_of_trailbytes     000000014003d970 f i libucrtd:write.obj
 0001:0003c990       _write_internal            000000014003d990 f   libucrtd:write.obj
 0001:0003cd30       _write_nolock              000000014003dd30 f   libucrtd:write.obj
 0001:0003d410       ?__wcsrtombs_utf8@__crt_mbstring@@YA_KPEADPEAPEB_W_KPEAU_Mbstatet@@AEAV__crt_cached_ptd_host@@@Z 000000014003e410 f   libucrtd:wcrtomb.obj
 0001:0003d690       log10                      000000014003e690 f   libucrtd:log10.obj
 0001:0003dc40       ceil                       000000014003ec40 f   libucrtd:ceil.obj
 0001:0003de10       _controlfp_s               000000014003ee10 f   libucrtd:contrlfp.obj
 0001:0003df40       fegetenv                   000000014003ef40 f   libucrtd:fegetenv.obj
 0001:0003df70       fesetenv                   000000014003ef70 f   libucrtd:fesetenv.obj
 0001:0003dff0       feholdexcept               000000014003eff0 f   libucrtd:feholdexcept.obj
 0001:0003e060       ??$__acrt_fenv_shift_bits@W4__acrt_fenv_abstract_status@@@@YA?AW4__acrt_fenv_abstract_status@@W40@0I@Z 000000014003f060 f i libucrtd:_fenvutils.obj
 0001:0003e060       ??$__acrt_fenv_shift_bits@W4__acrt_fenv_abstract_control@@@@YA?AW4__acrt_fenv_abstract_control@@W40@0I@Z 000000014003f060 f i libucrtd:_fenvutils.obj
 0001:0003e090       ??$__acrt_fenv_translate_bit@W4__acrt_fenv_abstract_control@@W4__acrt_fenv_machine_sse_control@@@@YA?AW4__acrt_fenv_abstract_control@@W4__acrt_fenv_machine_sse_control@@0W40@1@Z 000000014003f090 f i libucrtd:_fenvutils.obj
 0001:0003e0f0       ??$__acrt_fenv_translate_bit@W4__acrt_fenv_machine_sse_status@@W4__acrt_fenv_abstract_status@@@@YA?AW4__acrt_fenv_machine_sse_status@@W4__acrt_fenv_abstract_status@@0W40@1@Z 000000014003f0f0 f i libucrtd:_fenvutils.obj
 0001:0003e0f0       ??$__acrt_fenv_translate_bit@W4__acrt_fenv_abstract_status@@W4__acrt_fenv_machine_sse_status@@@@YA?AW4__acrt_fenv_abstract_status@@W4__acrt_fenv_machine_sse_status@@0W40@1@Z 000000014003f0f0 f i libucrtd:_fenvutils.obj
 0001:0003e140       ??$__acrt_fenv_translate_bit@W4__acrt_fenv_machine_sse_control@@W4__acrt_fenv_abstract_control@@@@YA?AW4__acrt_fenv_machine_sse_control@@W4__acrt_fenv_abstract_control@@0W40@1@Z 000000014003f140 f i libucrtd:_fenvutils.obj
 0001:0003e1a0       ??$__acrt_fenv_unshift_bits@W4__acrt_fenv_abstract_control@@@@YA?AW4__acrt_fenv_abstract_control@@W40@0I@Z 000000014003f1a0 f i libucrtd:_fenvutils.obj
 0001:0003e1a0       ??$__acrt_fenv_unshift_bits@W4__acrt_fenv_abstract_status@@@@YA?AW4__acrt_fenv_abstract_status@@W40@0I@Z 000000014003f1a0 f i libucrtd:_fenvutils.obj
 0001:0003e690       ??I@YA?AW4__acrt_fenv_machine_sse_status@@W40@0@Z 000000014003f690 f i libucrtd:_fenvutils.obj
 0001:0003e690       ??I@YA?AW4__acrt_fenv_abstract_control@@W40@0@Z 000000014003f690 f i libucrtd:_fenvutils.obj
 0001:0003e690       ??I@YA?AW4__acrt_fenv_abstract_status@@W40@0@Z 000000014003f690 f i libucrtd:_fenvutils.obj
 0001:0003e6b0       ??I@YA?AW4__acrt_fenv_machine_sse_control@@W40@0@Z 000000014003f6b0 f i libucrtd:_fenvutils.obj
 0001:0003e6d0       ??U@YA?AW4__acrt_fenv_abstract_status@@W40@0@Z 000000014003f6d0 f i libucrtd:_fenvutils.obj
 0001:0003e6d0       ??U@YA?AW4__acrt_fenv_abstract_control@@W40@0@Z 000000014003f6d0 f i libucrtd:_fenvutils.obj
 0001:0003e6f0       ??U@YA?AW4__acrt_fenv_machine_sse_control@@W40@0@Z 000000014003f6f0 f i libucrtd:_fenvutils.obj
 0001:0003e710       ??_5@YAAEAW4__acrt_fenv_abstract_control@@AEAW40@W40@@Z 000000014003f710 f i libucrtd:_fenvutils.obj
 0001:0003e710       ??_5@YAAEAW4__acrt_fenv_abstract_status@@AEAW40@W40@@Z 000000014003f710 f i libucrtd:_fenvutils.obj
 0001:0003e710       ??_5@YAAEAW4__acrt_fenv_machine_sse_status@@AEAW40@W40@@Z 000000014003f710 f i libucrtd:_fenvutils.obj
 0001:0003e740       ??_5@YAAEAW4__acrt_fenv_machine_sse_control@@AEAW40@W40@@Z 000000014003f740 f i libucrtd:_fenvutils.obj
 0001:0003e770       ?__acrt_fenv_shift_abstract_sse_control@@YA?AW4__acrt_fenv_abstract_control@@W41@@Z 000000014003f770 f i libucrtd:_fenvutils.obj
 0001:0003e7c0       ?__acrt_fenv_shift_abstract_sse_status@@YA?AW4__acrt_fenv_abstract_status@@W41@@Z 000000014003f7c0 f i libucrtd:_fenvutils.obj
 0001:0003e7f0       ?__acrt_fenv_unshift_abstract_sse_control@@YA?AW4__acrt_fenv_abstract_control@@W41@@Z 000000014003f7f0 f i libucrtd:_fenvutils.obj
 0001:0003e840       ?__acrt_fenv_unshift_abstract_sse_status@@YA?AW4__acrt_fenv_abstract_status@@W41@@Z 000000014003f840 f i libucrtd:_fenvutils.obj
 0001:0003eb30       __acrt_fenv_get_common_round_control 000000014003fb30 f   libucrtd:_fenvutils.obj
 0001:0003eb50       __acrt_fenv_get_control    000000014003fb50 f   libucrtd:_fenvutils.obj
 0001:0003eb80       __acrt_fenv_get_status     000000014003fb80 f   libucrtd:_fenvutils.obj
 0001:0003ebb0       __acrt_fenv_set_control    000000014003fbb0 f   libucrtd:_fenvutils.obj
 0001:0003ebd0       __acrt_fenv_set_status     000000014003fbd0 f   libucrtd:_fenvutils.obj
 0001:0003ebf0       ?reset_and_return@__crt_mbstring@@YA_K_KPEAU_Mbstatet@@@Z 000000014003fbf0 f   libucrtd:common_utf8.obj
 0001:0003ec30       ?return_illegal_sequence@__crt_mbstring@@YA_KPEAU_Mbstatet@@AEAV__crt_cached_ptd_host@@@Z 000000014003fc30 f   libucrtd:common_utf8.obj
 0001:0003ec90       ?__mbrtoc32_utf8@__crt_mbstring@@YA_KPEA_UPEBD_KPEAU_Mbstatet@@AEAV__crt_cached_ptd_host@@@Z 000000014003fc90 f   libucrtd:mbrtoc32.obj
 0001:0003f3a0       fclose                     00000001400403a0 f   libucrtd:fclose.obj
 0001:0003f570       _lseeki64_nolock_internal  0000000140040570 f   libucrtd:lseek.obj
 0001:0003f5b0       _putwch_nolock             00000001400405b0 f   libucrtd:putwch.obj
 0001:0003f600       ?__c16rtomb_utf8@__crt_mbstring@@YA_KPEAD_SPEAU_Mbstatet@@AEAV__crt_cached_ptd_host@@@Z 0000000140040600 f   libucrtd:c16rtomb.obj
 0001:0003f840       _log10_special             0000000140040840 f   libucrtd:log_special.obj
 0001:0003fba0       _clearfp                   0000000140040ba0 f   libucrtd:ieee.obj
 0001:0003fbc0       _control87                 0000000140040bc0 f   libucrtd:ieee.obj
 0001:000400b0       _close_internal            00000001400410b0 f   libucrtd:close.obj
 0001:00040370       _close_nolock_internal     0000000140041370 f   libucrtd:close.obj
 0001:000403e0       ?__acrt_stdio_free_stream@@YAXV__crt_stdio_stream@@@Z 00000001400413e0 f   libucrtd:stream.obj
 0001:00040480       ?deallocate@__crt_stdio_stream@@QEAAXXZ 0000000140041480 f i libucrtd:stream.obj
 0001:000405e0       __dcrt_lowio_ensure_console_output_initialized 00000001400415e0 f   libucrtd:initcon.obj
 0001:00040610       __dcrt_terminate_console_output 0000000140041610 f   libucrtd:initcon.obj
 0001:00040640       __dcrt_write_console       0000000140041640 f   libucrtd:initcon.obj
 0001:00040680       _FindPESection             0000000140041680 f   LIBCMTD:pesect.obj
 0001:00040730       _IsNonwritableInCurrentImage 0000000140041730 f   LIBCMTD:pesect.obj
 0001:000407c0       _ValidateImageBase         00000001400417c0 f   LIBCMTD:pesect.obj
 0001:00040840       __GSHandlerCheck_SEH       0000000140041840 f   LIBCMTD:gshandlerseh.obj
 0001:00040910       __chkstk                   0000000140041910 f   LIBCMTD:chkstk.obj
 0001:00040910       _alloca_probe              0000000140041910 f   LIBCMTD:chkstk.obj
 0001:00040960       __GSHandlerCheck_EH        0000000140041960 f   LIBCMTD:gshandlereh.obj
 0001:00040a20       memcmp                     0000000140041a20 f   libvcruntimed:memcmp.obj
 0001:00040af0       __C_specific_handler_noexcept 0000000140041af0 f   libvcruntimed:chandler_noexcept.obj
 0001:00040b80       strrchr                    0000000140041b80 f   libvcruntimed:strrchr.obj
 0001:00040fb0       _guard_dispatch_icall_nop  0000000140041fb0 f   LIBCMTD:guard_dispatch.obj
 0001:00040fd0       _guard_xfg_dispatch_icall_nop 0000000140041fd0 f   LIBCMTD:guard_xfg_dispatch.obj
 0002:00000000       __imp_GetDeviceCaps        0000000140043000     gdi32:GDI32.dll
 0002:00000008       __imp_StretchDIBits        0000000140043008     gdi32:GDI32.dll
 0002:00000010       \177GDI32_NULL_THUNK_DATA  0000000140043010     gdi32:GDI32.dll
 0002:00000018       __imp_GetConsoleMode       0000000140043018     kernel32:KERNEL32.dll
 0002:00000020       __imp_CloseHandle          0000000140043020     kernel32:KERNEL32.dll
 0002:00000028       __imp_FlushFileBuffers     0000000140043028     kernel32:KERNEL32.dll
 0002:00000030       __imp_SetFilePointerEx     0000000140043030     kernel32:KERNEL32.dll
 0002:00000038       __imp_WriteConsoleW        0000000140043038     kernel32:KERNEL32.dll
 0002:00000040       __imp_CreateFileW          0000000140043040     kernel32:KERNEL32.dll
 0002:00000048       __imp_GetConsoleOutputCP   0000000140043048     kernel32:KERNEL32.dll
 0002:00000050       __imp_EncodePointer        0000000140043050     kernel32:KERNEL32.dll
 0002:00000058       __imp_HeapQueryInformation 0000000140043058     kernel32:KERNEL32.dll
 0002:00000060       __imp_HeapReAlloc          0000000140043060     kernel32:KERNEL32.dll
 0002:00000068       __imp_OutputDebugStringA   0000000140043068     kernel32:KERNEL32.dll
 0002:00000070       __imp_QueryPerformanceCounter 0000000140043070     kernel32:KERNEL32.dll
 0002:00000078       __imp_QueryPerformanceFrequency 0000000140043078     kernel32:KERNEL32.dll
 0002:00000080       __imp_Sleep                0000000140043080     kernel32:KERNEL32.dll
 0002:00000088       __imp_VirtualAlloc         0000000140043088     kernel32:KERNEL32.dll
 0002:00000090       __imp_VirtualFree          0000000140043090     kernel32:KERNEL32.dll
 0002:00000098       __imp_RtlCaptureContext    0000000140043098     kernel32:KERNEL32.dll
 0002:000000a0       __imp_RtlLookupFunctionEntry 00000001400430a0     kernel32:KERNEL32.dll
 0002:000000a8       __imp_RtlVirtualUnwind     00000001400430a8     kernel32:KERNEL32.dll
 0002:000000b0       __imp_UnhandledExceptionFilter 00000001400430b0     kernel32:KERNEL32.dll
 0002:000000b8       __imp_SetUnhandledExceptionFilter 00000001400430b8     kernel32:KERNEL32.dll
 0002:000000c0       __imp_GetCurrentProcess    00000001400430c0     kernel32:KERNEL32.dll
 0002:000000c8       __imp_TerminateProcess     00000001400430c8     kernel32:KERNEL32.dll
 0002:000000d0       __imp_IsProcessorFeaturePresent 00000001400430d0     kernel32:KERNEL32.dll
 0002:000000d8       __imp_GetCurrentProcessId  00000001400430d8     kernel32:KERNEL32.dll
 0002:000000e0       __imp_GetCurrentThreadId   00000001400430e0     kernel32:KERNEL32.dll
 0002:000000e8       __imp_GetSystemTimeAsFileTime 00000001400430e8     kernel32:KERNEL32.dll
 0002:000000f0       __imp_InitializeSListHead  00000001400430f0     kernel32:KERNEL32.dll
 0002:000000f8       __imp_IsDebuggerPresent    00000001400430f8     kernel32:KERNEL32.dll
 0002:00000100       __imp_GetStartupInfoW      0000000140043100     kernel32:KERNEL32.dll
 0002:00000108       __imp_GetModuleHandleW     0000000140043108     kernel32:KERNEL32.dll
 0002:00000110       __imp_HeapFree             0000000140043110     kernel32:KERNEL32.dll
 0002:00000118       __imp_RtlUnwindEx          0000000140043118     kernel32:KERNEL32.dll
 0002:00000120       __imp_RtlPcToFileHeader    0000000140043120     kernel32:KERNEL32.dll
 0002:00000128       __imp_RaiseException       0000000140043128     kernel32:KERNEL32.dll
 0002:00000130       __imp_GetLastError         0000000140043130     kernel32:KERNEL32.dll
 0002:00000138       __imp_SetLastError         0000000140043138     kernel32:KERNEL32.dll
 0002:00000140       __imp_EnterCriticalSection 0000000140043140     kernel32:KERNEL32.dll
 0002:00000148       __imp_LeaveCriticalSection 0000000140043148     kernel32:KERNEL32.dll
 0002:00000150       __imp_DeleteCriticalSection 0000000140043150     kernel32:KERNEL32.dll
 0002:00000158       __imp_InitializeCriticalSectionAndSpinCount 0000000140043158     kernel32:KERNEL32.dll
 0002:00000160       __imp_TlsAlloc             0000000140043160     kernel32:KERNEL32.dll
 0002:00000168       __imp_TlsGetValue          0000000140043168     kernel32:KERNEL32.dll
 0002:00000170       __imp_TlsSetValue          0000000140043170     kernel32:KERNEL32.dll
 0002:00000178       __imp_TlsFree              0000000140043178     kernel32:KERNEL32.dll
 0002:00000180       __imp_FreeLibrary          0000000140043180     kernel32:KERNEL32.dll
 0002:00000188       __imp_GetProcAddress       0000000140043188     kernel32:KERNEL32.dll
 0002:00000190       __imp_LoadLibraryExW       0000000140043190     kernel32:KERNEL32.dll
 0002:00000198       __imp_GetStdHandle         0000000140043198     kernel32:KERNEL32.dll
 0002:000001a0       __imp_WriteFile            00000001400431a0     kernel32:KERNEL32.dll
 0002:000001a8       __imp_GetModuleFileNameW   00000001400431a8     kernel32:KERNEL32.dll
 0002:000001b0       __imp_ExitProcess          00000001400431b0     kernel32:KERNEL32.dll
 0002:000001b8       __imp_GetModuleHandleExW   00000001400431b8     kernel32:KERNEL32.dll
 0002:000001c0       __imp_HeapAlloc            00000001400431c0     kernel32:KERNEL32.dll
 0002:000001c8       __imp_HeapSize             00000001400431c8     kernel32:KERNEL32.dll
 0002:000001d0       __imp_HeapValidate         00000001400431d0     kernel32:KERNEL32.dll
 0002:000001d8       __imp_GetSystemInfo        00000001400431d8     kernel32:KERNEL32.dll
 0002:000001e0       __imp_OutputDebugStringW   00000001400431e0     kernel32:KERNEL32.dll
 0002:000001e8       __imp_FindClose            00000001400431e8     kernel32:KERNEL32.dll
 0002:000001f0       __imp_FindFirstFileExW     00000001400431f0     kernel32:KERNEL32.dll
 0002:000001f8       __imp_FindNextFileW        00000001400431f8     kernel32:KERNEL32.dll
 0002:00000200       __imp_IsValidCodePage      0000000140043200     kernel32:KERNEL32.dll
 0002:00000208       __imp_GetACP               0000000140043208     kernel32:KERNEL32.dll
 0002:00000210       __imp_GetOEMCP             0000000140043210     kernel32:KERNEL32.dll
 0002:00000218       __imp_GetCPInfo            0000000140043218     kernel32:KERNEL32.dll
 0002:00000220       __imp_GetCommandLineA      0000000140043220     kernel32:KERNEL32.dll
 0002:00000228       __imp_GetCommandLineW      0000000140043228     kernel32:KERNEL32.dll
 0002:00000230       __imp_MultiByteToWideChar  0000000140043230     kernel32:KERNEL32.dll
 0002:00000238       __imp_WideCharToMultiByte  0000000140043238     kernel32:KERNEL32.dll
 0002:00000240       __imp_GetEnvironmentStringsW 0000000140043240     kernel32:KERNEL32.dll
 0002:00000248       __imp_FreeEnvironmentStringsW 0000000140043248     kernel32:KERNEL32.dll
 0002:00000250       __imp_SetStdHandle         0000000140043250     kernel32:KERNEL32.dll
 0002:00000258       __imp_GetFileType          0000000140043258     kernel32:KERNEL32.dll
 0002:00000260       __imp_GetStringTypeW       0000000140043260     kernel32:KERNEL32.dll
 0002:00000268       __imp_FlsAlloc             0000000140043268     kernel32:KERNEL32.dll
 0002:00000270       __imp_FlsGetValue          0000000140043270     kernel32:KERNEL32.dll
 0002:00000278       __imp_FlsSetValue          0000000140043278     kernel32:KERNEL32.dll
 0002:00000280       __imp_FlsFree              0000000140043280     kernel32:KERNEL32.dll
 0002:00000288       __imp_LCMapStringW         0000000140043288     kernel32:KERNEL32.dll
 0002:00000290       __imp_GetProcessHeap       0000000140043290     kernel32:KERNEL32.dll
 0002:00000298       \177KERNEL32_NULL_THUNK_DATA 0000000140043298     kernel32:KERNEL32.dll
 0002:000002a0       __imp_TranslateMessage     00000001400432a0     user32:USER32.dll
 0002:000002a8       __imp_DispatchMessageA     00000001400432a8     user32:USER32.dll
 0002:000002b0       __imp_PeekMessageA         00000001400432b0     user32:USER32.dll
 0002:000002b8       __imp_GetClientRect        00000001400432b8     user32:USER32.dll
 0002:000002c0       __imp_ReleaseDC            00000001400432c0     user32:USER32.dll
 0002:000002c8       __imp_GetDC                00000001400432c8     user32:USER32.dll
 0002:000002d0       __imp_CreateWindowExA      00000001400432d0     user32:USER32.dll
 0002:000002d8       __imp_RegisterClassA       00000001400432d8     user32:USER32.dll
 0002:000002e0       __imp_DefWindowProcA       00000001400432e0     user32:USER32.dll
 0002:000002e8       __imp_wsprintfA            00000001400432e8     user32:USER32.dll
 0002:000002f0       \177USER32_NULL_THUNK_DATA 00000001400432f0     user32:USER32.dll
 0002:000002f8       __imp_timeBeginPeriod      00000001400432f8     winmm:WINMM.dll
 0002:00000300       \177WINMM_NULL_THUNK_DATA  0000000140043300     winmm:WINMM.dll
 0002:00000308       __guard_check_icall_fptr   0000000140043308     LIBCMTD:guard_support.obj
 0002:00000310       __guard_xfg_check_icall_fptr 0000000140043310     LIBCMTD:guard_support.obj
 0002:00000318       __guard_dispatch_icall_fptr 0000000140043318     LIBCMTD:guard_support.obj
 0002:00000320       __guard_xfg_dispatch_icall_fptr 0000000140043320     LIBCMTD:guard_support.obj
 0002:00000328       __guard_xfg_table_dispatch_icall_fptr 0000000140043328     LIBCMTD:guard_support.obj
 0002:00000330       __xc_a                     0000000140043330     LIBCMTD:initializers.obj
 0002:00000340       __xc_z                     0000000140043340     LIBCMTD:initializers.obj
 0002:00000348       __xi_a                     0000000140043348     LIBCMTD:initializers.obj
 0002:00000360       __acrt_tran_fma3_initializer 0000000140043360     libucrtd:fma3_initializer.obj
 0002:00000368       __acrt_multibyte_initializer 0000000140043368     libucrtd:multibyte_initializer.obj
 0002:00000370       __acrt_fmode_initializer   0000000140043370     libucrtd:fmode_initializer.obj
 0002:00000378       __acrt_stdio_initializer   0000000140043378     libucrtd:stdio_initializer.obj
 0002:00000380       __xi_z                     0000000140043380     LIBCMTD:initializers.obj
 0002:00000388       __xp_a                     0000000140043388     LIBCMTD:initializers.obj
 0002:00000390       __acrt_locale_terminator   0000000140043390     libucrtd:locale_initializer.obj
 0002:00000398       __dcrt_console_output_terminator 0000000140043398     libucrtd:console_output_initializer.obj
 0002:000003a0       __acrt_stdio_terminator    00000001400433a0     libucrtd:stdio_initializer.obj
 0002:000003a8       __xp_z                     00000001400433a8     LIBCMTD:initializers.obj
 0002:000003b0       __xt_a                     00000001400433b0     LIBCMTD:initializers.obj
 0002:000003b8       __xt_z                     00000001400433b8     LIBCMTD:initializers.obj
 0002:00000400       __real@00000000            0000000140043400     Win32_Shah.obj
 0002:00000404       __real@3a83126f            0000000140043404     Win32_Shah.obj
 0002:00000408       __real@3c8efa2e            0000000140043408     Win32_Shah.obj
 0002:0000040c       __real@3f19999a            000000014004340c     Win32_Shah.obj
 0002:00000410       __real@3f800000            0000000140043410     Win32_Shah.obj
 0002:00000414       __real@40000000            0000000140043414     Win32_Shah.obj
 0002:00000418       __real@40200000            0000000140043418     Win32_Shah.obj
 0002:0000041c       __real@40400000            000000014004341c     Win32_Shah.obj
 0002:00000420       __real@40a00000            0000000140043420     Win32_Shah.obj
 0002:00000424       __real@40c00000            0000000140043424     Win32_Shah.obj
 0002:00000428       __real@40c90fd0            0000000140043428     Win32_Shah.obj
 0002:0000042c       __real@41200000            000000014004342c     Win32_Shah.obj
 0002:00000430       __real@41a00000            0000000140043430     Win32_Shah.obj
 0002:00000434       __real@42200000            0000000140043434     Win32_Shah.obj
 0002:00000438       __real@42480000            0000000140043438     Win32_Shah.obj
 0002:0000043c       __real@42652eee            000000014004343c     Win32_Shah.obj
 0002:00000440       __real@42700000            0000000140043440     Win32_Shah.obj
 0002:00000444       __real@42a00000            0000000140043444     Win32_Shah.obj
 0002:00000448       __real@42b40000            0000000140043448     Win32_Shah.obj
 0002:0000044c       __real@42c80000            000000014004344c     Win32_Shah.obj
 0002:00000450       __real@43480000            0000000140043450     Win32_Shah.obj
 0002:00000454       __real@447a0000            0000000140043454     Win32_Shah.obj
 0002:00000458       __real@c0200000            0000000140043458     Win32_Shah.obj
 0002:0000045c       __real@c2c80000            000000014004345c     Win32_Shah.obj
 0002:00000460       __xmm@80000000800000008000000080000000 0000000140043460     Win32_Shah.obj
 0002:00000478       ??_7exception@std@@6B@     0000000140043478     LIBCMTD:throw_bad_alloc.obj
 0002:00000488       ??_C@_0BC@EOODALEL@Unknown?5exception@ 0000000140043488     LIBCMTD:throw_bad_alloc.obj
 0002:000004a8       ??_7bad_alloc@std@@6B@     00000001400434a8     LIBCMTD:throw_bad_alloc.obj
 0002:000004b8       ??_C@_0P@GHFPNOJB@bad?5allocation@ 00000001400434b8     LIBCMTD:throw_bad_alloc.obj
 0002:000004d0       ??_7bad_array_new_length@std@@6B@ 00000001400434d0     LIBCMTD:throw_bad_alloc.obj
 0002:000004e0       ??_C@_0BF@KINCDENJ@bad?5array?5new?5length@ 00000001400434e0     LIBCMTD:throw_bad_alloc.obj
 0002:00000510       ??_7type_info@@6B@         0000000140043510     LIBCMTD:std_type_info_static.obj
 0002:00000518       ??_C@_17CNPHIMPH@?$AA?$CF?$AAl?$AAs@ 0000000140043518     libvcruntimed:std_exception.obj
 0002:00000520       ??_C@_1FK@OACNEHHA@?$AAt?$AAo?$AA?9?$AA?$DO?$AA_?$AAW?$AAh?$AAa?$AAt?$AA?5?$AA?$DN?$AA?$DN?$AA?5?$AAn?$AAu@ 0000000140043520     libvcruntimed:std_exception.obj
 0002:00000580       ??_C@_1IE@BLOAAGCK@?$AAD?$AA?3?$AA?2?$AAa?$AA?2?$AA_?$AAw?$AAo?$AAr?$AAk?$AA?2?$AA1?$AA?2?$AAs?$AA?2@ 0000000140043580     libvcruntimed:std_exception.obj
 0002:00000608       _pDestructExceptionObject  0000000140043608     libvcruntimed:ehhelpers.obj
 0002:00000610       ??_C@_0EK@HNOIOKGA@D?3?2a?2_work?21?2s?2src?2vctools?2crt?2@ 0000000140043610     libvcruntimed:per_thread_data.obj
 0002:00000d60       ??_C@_08EHJDFFNH@__based?$CI@ 0000000140043d60     libvcruntimed:undname.obj
 0002:00000d70       ??_C@_07KOLFKCDI@__cdecl@  0000000140043d70     libvcruntimed:undname.obj
 0002:00000d78       ??_C@_08GHMPAG@__pascal@   0000000140043d78     libvcruntimed:undname.obj
 0002:00000d88       ??_C@_09IFJBGAPI@__stdcall@ 0000000140043d88     libvcruntimed:undname.obj
 0002:00000d98       ??_C@_0L@NPHFGOKO@__thiscall@ 0000000140043d98     libvcruntimed:undname.obj
 0002:00000da8       ??_C@_0L@JMKHOMEK@__fastcall@ 0000000140043da8     libvcruntimed:undname.obj
 0002:00000db8       ??_C@_0N@BCKKPABJ@__vectorcall@ 0000000140043db8     libvcruntimed:undname.obj
 0002:00000dc8       ??_C@_09HIJEGCPM@__clrcall@ 0000000140043dc8     libvcruntimed:undname.obj
 0002:00000dd4       ??_C@_06GHPCKEAG@__eabi@   0000000140043dd4     libvcruntimed:undname.obj
 0002:00000de0       ??_C@_09IOPIDJLG@__swift_1@ 0000000140043de0     libvcruntimed:undname.obj
 0002:00000df0       ??_C@_09KFNFGKHF@__swift_2@ 0000000140043df0     libvcruntimed:undname.obj
 0002:00000e00       ??_C@_07JOMMBBKO@__ptr64@  0000000140043e00     libvcruntimed:undname.obj
 0002:00000e08       ??_C@_0L@PILCLIHE@__restrict@ 0000000140043e08     libvcruntimed:undname.obj
 0002:00000e18       ??_C@_0M@GFIIJFMG@__unaligned@ 0000000140043e18     libvcruntimed:undname.obj
 0002:00000e28       ??_C@_09DHDLOLLB@restrict?$CI@ 0000000140043e28     libvcruntimed:undname.obj
 0002:00000e32       ??_C@_00CNPNBAHC@@         0000000140043e32     libvcruntimed:undname.obj
 0002:00000e34       ??_C@_04NIHEBCM@?5new@     0000000140043e34     libvcruntimed:undname.obj
 0002:00000e40       ??_C@_07FPCDHGMM@?5delete@ 0000000140043e40     libvcruntimed:undname.obj
 0002:00000e48       ??_C@_01NEMOKFLO@?$DN@     0000000140043e48     libvcruntimed:undname.obj
 0002:00000e4c       ??_C@_02GPIOPFAK@?$DO?$DO@ 0000000140043e4c     libvcruntimed:undname.obj
 0002:00000e50       ??_C@_02FODMEDOG@?$DM?$DM@ 0000000140043e50     libvcruntimed:undname.obj
 0002:00000e54       ??_C@_01DCLJPIOD@?$CB@     0000000140043e54     libvcruntimed:undname.obj
 0002:00000e58       ??_C@_02EGOFBIJA@?$DN?$DN@ 0000000140043e58     libvcruntimed:undname.obj
 0002:00000e5c       ??_C@_02FDNJECIE@?$CB?$DN@ 0000000140043e5c     libvcruntimed:undname.obj
 0002:00000e60       ??_C@_02GPECMEKF@?$FL?$FN@ 0000000140043e60     libvcruntimed:undname.obj
 0002:00000e68       ??_C@_08LHJFAFGD@operator@ 0000000140043e68     libvcruntimed:undname.obj
 0002:00000e74       ??_C@_02HBOOOICD@?9?$DO@   0000000140043e74     libvcruntimed:undname.obj
 0002:00000e78       ??_C@_01NBENCBCI@?$CK@     0000000140043e78     libvcruntimed:undname.obj
 0002:00000e7c       ??_C@_02ECNGHCIF@?$CL?$CL@ 0000000140043e7c     libvcruntimed:undname.obj
 0002:00000e80       ??_C@_02BAABKJLB@?9?9@     0000000140043e80     libvcruntimed:undname.obj
 0002:00000e84       ??_C@_01JOAMLHOP@?9@       0000000140043e84     libvcruntimed:undname.obj
 0002:00000e88       ??_C@_01MIFGBAGJ@?$CL@     0000000140043e88     libvcruntimed:undname.obj
 0002:00000e8c       ??_C@_01HNPIGOCE@?$CG@     0000000140043e8c     libvcruntimed:undname.obj
 0002:00000e90       ??_C@_03MNHNFDLC@?9?$DO?$CK@ 0000000140043e90     libvcruntimed:undname.obj
 0002:00000e94       ??_C@_01KMDKNFGN@?1@       0000000140043e94     libvcruntimed:undname.obj
 0002:00000e98       ??_C@_01FGNFDNOH@?$CF@     0000000140043e98     libvcruntimed:undname.obj
 0002:00000e9c       ??_C@_01MNNFJEPP@?$DM@     0000000140043e9c     libvcruntimed:undname.obj
 0002:00000ea0       ??_C@_02EHCHHCKH@?$DM?$DN@ 0000000140043ea0     libvcruntimed:undname.obj
 0002:00000ea4       ??_C@_01PPODPGHN@?$DO@     0000000140043ea4     libvcruntimed:undname.obj
 0002:00000ea8       ??_C@_02EEKDKGMJ@?$DO?$DN@ 0000000140043ea8     libvcruntimed:undname.obj
 0002:00000eac       ??_C@_01IHBHIGKO@?0@       0000000140043eac     libvcruntimed:undname.obj
 0002:00000eb0       ??_C@_02HCKGKOFO@?$CI?$CJ@ 0000000140043eb0     libvcruntimed:undname.obj
 0002:00000eb4       ??_C@_01PJKLJHI@?$HO@      0000000140043eb4     libvcruntimed:undname.obj
 0002:00000eb8       ??_C@_01JKBOJNNK@?$FO@     0000000140043eb8     libvcruntimed:undname.obj
 0002:00000ebc       ??_C@_01DNKMNLPK@?$HM@     0000000140043ebc     libvcruntimed:undname.obj
 0002:00000ec0       ??_C@_02PPKAJPJL@?$CG?$CG@ 0000000140043ec0     libvcruntimed:undname.obj
 0002:00000ec4       ??_C@_02NONPIBCD@?$HM?$HM@ 0000000140043ec4     libvcruntimed:undname.obj
 0002:00000ec8       ??_C@_02FPIMKNGF@?$CK?$DN@ 0000000140043ec8     libvcruntimed:undname.obj
 0002:00000ecc       ??_C@_02FOEOMHFC@?$CL?$DN@ 0000000140043ecc     libvcruntimed:undname.obj
 0002:00000ed0       ??_C@_02FKMDLLOA@?9?$DN@   0000000140043ed0     libvcruntimed:undname.obj
 0002:00000ed4       ??_C@_02FJEHGPIO@?1?$DN@   0000000140043ed4     libvcruntimed:undname.obj
 0002:00000ed8       ??_C@_02FENAOKFI@?$CF?$DN@ 0000000140043ed8     libvcruntimed:undname.obj
 0002:00000edc       ??_C@_03IKFCCPFF@?$DO?$DO?$DN@ 0000000140043edc     libvcruntimed:undname.obj
 0002:00000ee0       ??_C@_03CDNPDDLA@?$DM?$DM?$DN@ 0000000140043ee0     libvcruntimed:undname.obj
 0002:00000ee4       ??_C@_02FGJGFEAB@?$CG?$DN@ 0000000140043ee4     libvcruntimed:undname.obj
 0002:00000ee8       ??_C@_02DHLNPPGH@?$HM?$DN@ 0000000140043ee8     libvcruntimed:undname.obj
 0002:00000eec       ??_C@_02MHEGNOJ@?$FO?$DN@  0000000140043eec     libvcruntimed:undname.obj
 0002:00000ef0       ??_C@_09IFPLHPGF@?$GAvftable?8@ 0000000140043ef0     libvcruntimed:undname.obj
 0002:00000f00       ??_C@_09BLBHBJP@?$GAvbtable?8@ 0000000140043f00     libvcruntimed:undname.obj
 0002:00000f10       ??_C@_07FEEIOKP@?$GAvcall?8@ 0000000140043f10     libvcruntimed:undname.obj
 0002:00000f18       ??_C@_08LLFFHHDJ@?$GAtypeof?8@ 0000000140043f18     libvcruntimed:undname.obj
 0002:00000f28       ??_C@_0BF@KDPPACIK@?$GAlocal?5static?5guard?8@ 0000000140043f28     libvcruntimed:undname.obj
 0002:00000f40       ??_C@_08OBABFOLI@?$GAstring?8@ 0000000140043f40     libvcruntimed:undname.obj
 0002:00000f50       ??_C@_0BD@JDLKDPAB@?$GAvbase?5destructor?8@ 0000000140043f50     libvcruntimed:undname.obj
 0002:00000f68       ??_C@_0BN@DEGPLNFK@?$GAvector?5deleting?5destructor?8@ 0000000140043f68     libvcruntimed:undname.obj
 0002:00000f88       ??_C@_0BO@OBMKPJIG@?$GAdefault?5constructor?5closure?8@ 0000000140043f88     libvcruntimed:undname.obj
 0002:00000fa8       ??_C@_0BN@IMDCHIKM@?$GAscalar?5deleting?5destructor?8@ 0000000140043fa8     libvcruntimed:undname.obj
 0002:00000fc8       ??_C@_0BO@PFGOCPJJ@?$GAvector?5constructor?5iterator?8@ 0000000140043fc8     libvcruntimed:undname.obj
 0002:00000fe8       ??_C@_0BN@LFPFMEDL@?$GAvector?5destructor?5iterator?8@ 0000000140043fe8     libvcruntimed:undname.obj
 0002:00001008       ??_C@_0CE@IKBNEHA@?$GAvector?5vbase?5constructor?5itera@ 0000000140044008     libvcruntimed:undname.obj
 0002:00001030       ??_C@_0BL@NILFHHPC@?$GAvirtual?5displacement?5map?8@ 0000000140044030     libvcruntimed:undname.obj
 0002:00001050       ??_C@_0CB@JONCMFFK@?$GAeh?5vector?5constructor?5iterator@ 0000000140044050     libvcruntimed:undname.obj
 0002:00001078       ??_C@_0CA@GCEOPDGL@?$GAeh?5vector?5destructor?5iterator?8@ 0000000140044078     libvcruntimed:undname.obj
 0002:00001098       ??_C@_0CH@OOJPLCPH@?$GAeh?5vector?5vbase?5constructor?5it@ 0000000140044098     libvcruntimed:undname.obj
 0002:000010c0       ??_C@_0BL@LLKPOHJI@?$GAcopy?5constructor?5closure?8@ 00000001400440c0     libvcruntimed:undname.obj
 0002:000010e0       ??_C@_0BA@KBCDOMBN@?$GAudt?5returning?8@ 00000001400440e0     libvcruntimed:undname.obj
 0002:000010f0       ??_C@_03KLGMFNMG@?$GAEH@   00000001400440f0     libvcruntimed:undname.obj
 0002:000010f4       ??_C@_05KHLCHHI@?$GARTTI@  00000001400440f4     libvcruntimed:undname.obj
 0002:00001100       ??_C@_0BA@KKLDJDLB@?$GAlocal?5vftable?8@ 0000000140044100     libvcruntimed:undname.obj
 0002:00001110       ??_C@_0CE@IIHCMGGL@?$GAlocal?5vftable?5constructor?5clos@ 0000000140044110     libvcruntimed:undname.obj
 0002:00001134       ??_C@_06FHBGPFGH@?5new?$FL?$FN@ 0000000140044134     libvcruntimed:undname.obj
 0002:00001140       ??_C@_09LBNFPBCA@?5delete?$FL?$FN@ 0000000140044140     libvcruntimed:undname.obj
 0002:00001150       ??_C@_0P@HJKNJFNN@?$GAomni?5callsig?8@ 0000000140044150     libvcruntimed:undname.obj
 0002:00001160       ??_C@_0BL@CNOONJFP@?$GAplacement?5delete?5closure?8@ 0000000140044160     libvcruntimed:undname.obj
 0002:00001180       ??_C@_0BN@CKNJLHMB@?$GAplacement?5delete?$FL?$FN?5closure?8@ 0000000140044180     libvcruntimed:undname.obj
 0002:000011a0       ??_C@_0CG@CFDHKGGD@?$GAmanaged?5vector?5constructor?5ite@ 00000001400441a0     libvcruntimed:undname.obj
 0002:000011c8       ??_C@_0CF@IMGKMJNO@?$GAmanaged?5vector?5destructor?5iter@ 00000001400441c8     libvcruntimed:undname.obj
 0002:000011f0       ??_C@_0CG@HLDDJMAG@?$GAeh?5vector?5copy?5constructor?5ite@ 00000001400441f0     libvcruntimed:undname.obj
 0002:00001218       ??_C@_0CM@FCBBDIGB@?$GAeh?5vector?5vbase?5copy?5construct@ 0000000140044218     libvcruntimed:undname.obj
 0002:00001248       ??_C@_0BL@CLIPGLGB@?$GAdynamic?5initializer?5for?5?8@ 0000000140044248     libvcruntimed:undname.obj
 0002:00001268       ??_C@_0CB@PDBIFEP@?$GAdynamic?5atexit?5destructor?5for?5@ 0000000140044268     libvcruntimed:undname.obj
 0002:00001290       ??_C@_0CD@CGAJBKEJ@?$GAvector?5copy?5constructor?5iterat@ 0000000140044290     libvcruntimed:undname.obj
 0002:000012b8       ??_C@_0CJ@GJELGAMM@?$GAvector?5vbase?5copy?5constructor?5@ 00000001400442b8     libvcruntimed:undname.obj
 0002:000012e8       ??_C@_0CL@FGIJHLCE@?$GAmanaged?5vector?5copy?5constructo@ 00000001400442e8     libvcruntimed:undname.obj
 0002:00001318       ??_C@_0BM@PMGGMLDN@?$GAlocal?5static?5thread?5guard?8@ 0000000140044318     libvcruntimed:undname.obj
 0002:00001338       ??_C@_0N@BDNMDMOL@operator?5?$CC?$CC?5@ 0000000140044338     libvcruntimed:undname.obj
 0002:00001348       ??_C@_0BC@GGEBGALA@operator?5co_await@ 0000000140044348     libvcruntimed:undname.obj
 0002:00001360       ??_C@_0M@GAAIMMOH@operator?$DM?$DN?$DO@ 0000000140044360     libvcruntimed:undname.obj
 0002:00001370       ??_C@_0BC@DAFEJGAK@?5Type?5Descriptor?8@ 0000000140044370     libvcruntimed:undname.obj
 0002:00001388       ??_C@_0BM@LDKODKLH@?5Base?5Class?5Descriptor?5at?5?$CI@ 0000000140044388     libvcruntimed:undname.obj
 0002:000013a8       ??_C@_0BD@LGICGFMM@?5Base?5Class?5Array?8@ 00000001400443a8     libvcruntimed:undname.obj
 0002:000013c0       ??_C@_0BN@MECKDCOJ@?5Class?5Hierarchy?5Descriptor?8@ 00000001400443c0     libvcruntimed:undname.obj
 0002:000013e0       ??_C@_0BK@CFCOFLF@?5Complete?5Object?5Locator?8@ 00000001400443e0     libvcruntimed:undname.obj
 0002:00001400       ??_C@_0BG@JNJLAMPM@?$GAanonymous?5namespace?8@ 0000000140044400     libvcruntimed:undname.obj
 0002:00001418       ??_C@_02DKCKIIND@?$CFs@    0000000140044418     libvcruntimed:undname.obj
 0002:0000141c       ??_C@_11LOCGONAA@@         000000014004441c     libvcruntimed:undname.obj
 0002:00001438       ??_C@_1DM@KHCHBNEB@?$AAa?$AAp?$AAi?$AA?9?$AAm?$AAs?$AA?9?$AAw?$AAi?$AAn?$AA?9?$AAc?$AAo?$AAr?$AAe@ 0000000140044438     libvcruntimed:winapi_downlevel.obj
 0002:00001478       ??_C@_1DK@LPPGFMPP@?$AAa?$AAp?$AAi?$AA?9?$AAm?$AAs?$AA?9?$AAw?$AAi?$AAn?$AA?9?$AAc?$AAo?$AAr?$AAe@ 0000000140044478     libvcruntimed:winapi_downlevel.obj
 0002:000014b8       ??_C@_1BC@GDMECMAK@?$AAk?$AAe?$AAr?$AAn?$AAe?$AAl?$AA3?$AA2@ 00000001400444b8     libvcruntimed:winapi_downlevel.obj
 0002:000014d0       ??_C@_1BA@PFFKHIOG@?$AAa?$AAp?$AAi?$AA?9?$AAm?$AAs?$AA?9@ 00000001400444d0     libvcruntimed:winapi_downlevel.obj
 0002:000014e0       ??_C@_1EM@LBIFGLGH@?$AAc?$AAa?$AAc?$AAh?$AAe?$AAd?$AA_?$AAh?$AAa?$AAn?$AAd?$AAl?$AAe?$AA?5?$AA?$DN@ 00000001400444e0     libvcruntimed:winapi_downlevel.obj
 0002:00001530       ??_C@_1JG@EAIBPIGC@?$AAD?$AA?3?$AA?2?$AAa?$AA?2?$AA_?$AAw?$AAo?$AAr?$AAk?$AA?2?$AA1?$AA?2?$AAs?$AA?2@ 0000000140044530     libvcruntimed:winapi_downlevel.obj
 0002:000015c8       ??_C@_1DI@MAHEDLDB@?$AAc?$AAa?$AAc?$AAh?$AAe?$AAd?$AA_?$AAh?$AAa?$AAn?$AAd?$AAl?$AAe?$AA?5?$AA?$DN@ 00000001400445c8     libvcruntimed:winapi_downlevel.obj
 0002:00001600       ??_C@_1FC@IBNCGNKL@?$AAc?$AAa?$AAc?$AAh?$AAe?$AAd?$AA_?$AAf?$AAp?$AA?5?$AA?$DN?$AA?$DN?$AA?5?$AAi?$AAn@ 0000000140044600     libvcruntimed:winapi_downlevel.obj
 0002:00001658       ??_C@_1CI@GDJBAGLP@?$AAc?$AAa?$AAc?$AAh?$AAe?$AAd?$AA_?$AAf?$AAp?$AA?5?$AA?$DN?$AA?$DN?$AA?5?$AAn?$AAe@ 0000000140044658     libvcruntimed:winapi_downlevel.obj
 0002:00001688       ??_C@_08KNHFBNJ@FlsAlloc@  0000000140044688     libvcruntimed:winapi_downlevel.obj
 0002:000016a0       ??_C@_07PEJMOBNF@FlsFree@  00000001400446a0     libvcruntimed:winapi_downlevel.obj
 0002:000016b0       ??_C@_0M@GDNOONDI@FlsGetValue@ 00000001400446b0     libvcruntimed:winapi_downlevel.obj
 0002:000016c8       ??_C@_0M@JCPCPOEF@FlsSetValue@ 00000001400446c8     libvcruntimed:winapi_downlevel.obj
 0002:000016e0       ??_C@_0BM@HCFOFFN@InitializeCriticalSectionEx@ 00000001400446e0     libvcruntimed:winapi_downlevel.obj
 0002:000017a0       ??_7bad_exception@std@@6B@ 00000001400447a0     libvcruntimed:frame.obj
 0002:000017b0       ??_C@_0O@DPKOEFFH@bad?5exception@ 00000001400447b0     libvcruntimed:frame.obj
 0002:00001f68       __real@3f1a36e2eb1c432d    0000000140044f68     libucrtd:atan2f.obj
 0002:00001f70       __real@3fb0000000000000    0000000140044f70     libucrtd:atan2f.obj
 0002:00001f78       __real@3fc2492482bd6be1    0000000140044f78     libucrtd:atan2f.obj
 0002:00001f80       __real@3fc99999999643a3    0000000140044f80     libucrtd:atan2f.obj
 0002:00001f88       __real@3fd5555555550877    0000000140044f88     libucrtd:atan2f.obj
 0002:00001f90       __real@3fd5555555555538    0000000140044f90     libucrtd:atan2f.obj
 0002:00001f98       __real@3fe0000000000000    0000000140044f98     libucrtd:atan2f.obj
 0002:00001fa0       __real@4070000000000000    0000000140044fa0     libucrtd:atan2f.obj
 0002:00001fa8       __real@80000000            0000000140044fa8     libucrtd:atan2f.obj
 0002:00001fb0       __xmm@80000000000000008000000000000000 0000000140044fb0     libucrtd:atan2f.obj
 0002:00002210       ??_C@_05KGFAIMPG@sqrtf@    0000000140045210     libucrtd:sqrtf.obj
 0002:00002220       __acrt_exception_action_table 0000000140045220     libucrtd:exception_filter.obj
 0002:000022e0       __acrt_signal_action_table_count 00000001400452e0     libucrtd:exception_filter.obj
 0002:000022e8       __acrt_signal_action_first_fpe_index 00000001400452e8     libucrtd:exception_filter.obj
 0002:000022f0       __acrt_signal_action_fpe_count 00000001400452f0     libucrtd:exception_filter.obj
 0002:00002300       ??_C@_1IC@DCNEKBE@?$AAm?$AAi?$AAn?$AAk?$AAe?$AAr?$AAn?$AAe?$AAl?$AA?2?$AAc?$AAr?$AAt?$AAs?$AA?2@ 0000000140045300     libucrtd:report_runtime_error.obj
 0002:00002388       ??_C@_1DI@BLFJHKKP@?$AA_?$AA_?$AAa?$AAc?$AAr?$AAt?$AA_?$AAr?$AAe?$AAp?$AAo?$AAr?$AAt?$AA_?$AAr@ 0000000140045388     libucrtd:report_runtime_error.obj
 0002:000023c0       ??_C@_1LE@MHPGJGKE@?$AAw?$AAc?$AAs?$AAc?$AAp?$AAy?$AA_?$AAs?$AA?$CI?$AAo?$AAu?$AAt?$AAm?$AAs?$AAg@ 00000001400453c0     libucrtd:report_runtime_error.obj
 0002:00002478       ??_C@_1DE@JNGNBFGO@?$AAR?$AAu?$AAn?$AAt?$AAi?$AAm?$AAe?$AA?5?$AAE?$AAr?$AAr?$AAo?$AAr?$AA?$CB?$AA?6@ 0000000140045478     libucrtd:report_runtime_error.obj
 0002:000024b0       ??_C@_1HK@FJJNAABO@?$AAw?$AAc?$AAs?$AAc?$AAp?$AAy?$AA_?$AAs?$AA?$CI?$AAp?$AAr?$AAo?$AAg?$AAn?$AAa@ 00000001400454b0     libucrtd:report_runtime_error.obj
 0002:00002530       ??_C@_1CO@EAEJAADC@?$AA?$DM?$AAp?$AAr?$AAo?$AAg?$AAr?$AAa?$AAm?$AA?5?$AAn?$AAa?$AAm?$AAe?$AA?5?$AAu@ 0000000140045530     libucrtd:report_runtime_error.obj
 0002:00002560       ??_C@_1HI@FLHKGEBE@?$AAw?$AAc?$AAs?$AAn?$AAc?$AAp?$AAy?$AA_?$AAs?$AA?$CI?$AAp?$AAc?$AAh?$AA?0?$AA?5@ 0000000140045560     libucrtd:report_runtime_error.obj
 0002:000025d8       ??_C@_17LGKOMLJ@?$AA?4?$AA?4?$AA?4@ 00000001400455d8     libucrtd:report_runtime_error.obj
 0002:000025e0       ??_C@_1IG@MNNKBLBI@?$AAw?$AAc?$AAs?$AAc?$AAa?$AAt?$AA_?$AAs?$AA?$CI?$AAo?$AAu?$AAt?$AAm?$AAs?$AAg@ 00000001400455e0     libucrtd:report_runtime_error.obj
 0002:00002668       ??_C@_15IABLJNFO@?$AA?6?$AA?6@ 0000000140045668     libucrtd:report_runtime_error.obj
 0002:00002670       ??_C@_1IG@DFBBBDAN@?$AAw?$AAc?$AAs?$AAc?$AAa?$AAt?$AA_?$AAs?$AA?$CI?$AAo?$AAu?$AAt?$AAm?$AAs?$AAg@ 0000000140045670     libucrtd:report_runtime_error.obj
 0002:00002700       ??_C@_1EK@MBDPDCGA@?$AAM?$AAi?$AAc?$AAr?$AAo?$AAs?$AAo?$AAf?$AAt?$AA?5?$AAV?$AAi?$AAs?$AAu?$AAa@ 0000000140045700     libucrtd:report_runtime_error.obj
 0002:00002778       ??_C@_0DI@KNDIGDEP@minkernel?2crts?2ucrt?2src?2appcrt?2@ 0000000140045778     libucrtd:argv_parsing.obj
 0002:000027b0       ??_C@_1JO@PGBIJBAM@?$AAm?$AAo?$AAd?$AAe?$AA?5?$AA?$DN?$AA?$DN?$AA?5?$AA_?$AAc?$AAr?$AAt?$AA_?$AAa?$AAr@ 00000001400457b0     libucrtd:argv_parsing.obj
 0002:00002850       ??_C@_1HA@JMLCANEE@?$AAm?$AAi?$AAn?$AAk?$AAe?$AAr?$AAn?$AAe?$AAl?$AA?2?$AAc?$AAr?$AAt?$AAs?$AA?2@ 0000000140045850     libucrtd:argv_parsing.obj
 0002:000028c0       ??_C@_1CM@LHOJELIC@?$AAc?$AAo?$AAm?$AAm?$AAo?$AAn?$AA_?$AAc?$AAo?$AAn?$AAf?$AAi?$AAg?$AAu?$AAr@ 00000001400458c0     libucrtd:argv_parsing.obj
 0002:00002940       ??_C@_0EG@LEHKHOEH@minkernel?2crts?2ucrt?2src?2desktop@ 0000000140045940     libucrtd:environment_initialization.obj
 0002:00002990       ??_C@_1IM@IMOFFPLG@?$AAm?$AAi?$AAn?$AAk?$AAe?$AAr?$AAn?$AAe?$AAl?$AA?2?$AAc?$AAr?$AAt?$AAs?$AA?2@ 0000000140045990     libucrtd:environment_initialization.obj
 0002:00002a20       ??_C@_1CG@MNNNBNAK@?$AAc?$AAr?$AAe?$AAa?$AAt?$AAe?$AA_?$AAe?$AAn?$AAv?$AAi?$AAr?$AAo?$AAn?$AAm@ 0000000140045a20     libucrtd:environment_initialization.obj
 0002:00002a50       ??_C@_1HI@OOPIFFGA@?$AAt?$AAr?$AAa?$AAi?$AAt?$AAs?$AA?3?$AA?3?$AAt?$AAc?$AAs?$AAc?$AAp?$AAy?$AA_@ 0000000140045a50     libucrtd:environment_initialization.obj
 0002:00002b40       ??_C@_1BI@BGOHAHKC@?$AAm?$AAs?$AAc?$AAo?$AAr?$AAe?$AAe?$AA?4?$AAd?$AAl?$AAl@ 0000000140045b40     libucrtd:exit.obj
 0002:00002b58       ??_C@_0P@MIGLKIOC@CorExitProcess@ 0000000140045b58     libucrtd:exit.obj
 0002:00002b70       ??_C@_1GC@CIJNGKLD@?$AAm?$AAi?$AAn?$AAk?$AAe?$AAr?$AAn?$AAe?$AAl?$AA?2?$AAc?$AAr?$AAt?$AAs?$AA?2@ 0000000140045b70     libucrtd:setmode.obj
 0002:00002be0       ??_C@_1FO@LPCLHKGE@?$AA?$CI?$AAf?$AAh?$AA?5?$AA?$DO?$AA?$DN?$AA?5?$AA0?$AA?5?$AA?$CG?$AA?$CG?$AA?5?$AA?$CI?$AAu?$AAn@ 0000000140045be0     libucrtd:setmode.obj
 0002:00002c40       ??_C@_1CM@OKGMMMDH@?$AA?$CI?$AA_?$AAo?$AAs?$AAf?$AAi?$AAl?$AAe?$AA?$CI?$AAf?$AAh?$AA?$CJ?$AA?5?$AA?$CG?$AA?5@ 0000000140045c40     libucrtd:setmode.obj
 0002:00002c70       ??_C@_1JE@ECKHFIFP@?$AA?$CI?$AA?$CC?$AAI?$AAn?$AAv?$AAa?$AAl?$AAi?$AAd?$AA?5?$AAf?$AAi?$AAl?$AAe?$AA?5@ 0000000140045c70     libucrtd:setmode.obj
 0002:00002d10       ??_C@_1HC@GNDCDMJL@?$AAm?$AAo?$AAd?$AAe?$AA?5?$AA?$DN?$AA?$DN?$AA?5?$AA_?$AAO?$AA_?$AAT?$AAE?$AAX?$AAT@ 0000000140045d10     libucrtd:setmode.obj
 0002:00002d88       ??_C@_1BG@IEEHLOCL@?$AA_?$AAs?$AAe?$AAt?$AA_?$AAf?$AAm?$AAo?$AAd?$AAe@ 0000000140045d88     libucrtd:setmode.obj
 0002:00002df0       ??_C@_1GA@LDEGDKD@?$AA?$CI?$AA?$CC?$AAI?$AAn?$AAv?$AAa?$AAl?$AAi?$AAd?$AA?5?$AAp?$AAa?$AAr?$AAa?$AAm@ 0000000140045df0     libucrtd:wsetlocale.obj
 0002:00002e50       ??_C@_1GK@DPKNLBIE@?$AAm?$AAi?$AAn?$AAk?$AAe?$AAr?$AAn?$AAe?$AAl?$AA?2?$AAc?$AAr?$AAt?$AAs?$AA?2@ 0000000140045e50     libucrtd:wsetlocale.obj
 0002:00002ec0       ??_C@_1CI@FGIONOJM@?$AA_?$AAc?$AAo?$AAn?$AAf?$AAi?$AAg?$AAt?$AAh?$AAr?$AAe?$AAa?$AAd?$AAl?$AAo@ 0000000140045ec0     libucrtd:wsetlocale.obj
 0002:00002ee8       ??_C@_1CO@JKFLNGDK@?$AAm?$AAo?$AAd?$AAe?$AA?5?$AA?$DN?$AA?$DN?$AA?5?$AA0?$AA?5?$AA?$HM?$AA?$HM?$AA?5?$AAm?$AAo@ 0000000140045ee8     libucrtd:new_mode.obj
 0002:00002f20       ??_C@_1GC@PJMKBHEK@?$AAm?$AAi?$AAn?$AAk?$AAe?$AAr?$AAn?$AAe?$AAl?$AA?2?$AAc?$AAr?$AAt?$AAs?$AA?2@ 0000000140045f20     libucrtd:new_mode.obj
 0002:00002f88       ??_C@_1BM@PDPAKJNF@?$AA_?$AAs?$AAe?$AAt?$AA_?$AAn?$AAe?$AAw?$AA_?$AAm?$AAo?$AAd?$AAe@ 0000000140045f88     libucrtd:new_mode.obj
 0002:00003020       ??_C@_0DC@NBHMIIKL@minkernel?2crts?2ucrt?2src?2appcrt?2@ 0000000140046020     libucrtd:onexit.obj
 0002:000031b0       ??_C@_04HJMOFLDF@Free@     00000001400461b0     libucrtd:debug_heap.obj
 0002:000031b8       ??_C@_06EFAGIKOH@Normal@   00000001400461b8     libucrtd:debug_heap.obj
 0002:000031c0       ??_C@_03OGPFLFLO@CRT@      00000001400461c0     libucrtd:debug_heap.obj
 0002:000031c4       ??_C@_06KMEJCCGM@Ignore@   00000001400461c4     libucrtd:debug_heap.obj
 0002:000031cc       ??_C@_06PJIGMIJB@Client@   00000001400461cc     libucrtd:debug_heap.obj
 0002:00003250       ??_C@_1CE@LJFEPPMP@?$AA_?$AAC?$AAr?$AAt?$AAC?$AAh?$AAe?$AAc?$AAk?$AAM?$AAe?$AAm?$AAo?$AAr?$AAy@ 0000000140046250     libucrtd:debug_heap.obj
 0002:00003280       ??_C@_1GG@OCLHPJPK@?$AAm?$AAi?$AAn?$AAk?$AAe?$AAr?$AAn?$AAe?$AAl?$AA?2?$AAc?$AAr?$AAt?$AAs?$AA?2@ 0000000140046280     libucrtd:debug_heap.obj
 0002:000032e8       ??_C@_0DF@BBEGIFEK@Client?5hook?5allocation?5failure?5@ 00000001400462e8     libucrtd:debug_heap.obj
 0002:00003320       ??_C@_0CB@CCLOLAHO@Client?5hook?5allocation?5failure?4@ 0000000140046320     libucrtd:debug_heap.obj
 0002:00003348       ??_C@_0DC@JEMAGEKG@Error?3?5memory?5allocation?3?5bad?5m@ 0000000140046348     libucrtd:debug_heap.obj
 0002:00003380       ??_C@_0DI@KKJPDPGM@Client?5hook?5re?9allocation?5failu@ 0000000140046380     libucrtd:debug_heap.obj
 0002:000033b8       ??_C@_0CE@DOFMDOL@Client?5hook?5re?9allocation?5failu@ 00000001400463b8     libucrtd:debug_heap.obj
 0002:000033e0       ??_C@_0FA@EFEIGJKG@Error?3?5memory?5allocation?3?5bad?5m@ 00000001400463e0     libucrtd:debug_heap.obj
 0002:00003430       ??_C@_0EM@LGFLMAGJ@The?5Block?5at?50x?$CFp?5was?5allocated@ 0000000140046430     libucrtd:debug_heap.obj
 0002:00003480       ??_C@_1DM@DEDLGNML@?$AA_?$AAC?$AAr?$AAt?$AAI?$AAs?$AAV?$AAa?$AAl?$AAi?$AAd?$AAH?$AAe?$AAa?$AAp@ 0000000140046480     libucrtd:debug_heap.obj
 0002:000034c0       ??_C@_1PC@MCGKJLN@?$AAo?$AAl?$AAd?$AA_?$AAh?$AAe?$AAa?$AAd?$AA?9?$AA?$DO?$AA_?$AAl?$AAi?$AAn?$AAe@ 00000001400464c0     libucrtd:debug_heap.obj
 0002:000035b8       ??_C@_0DA@HFBKENN@Error?3?5possible?5heap?5corruption@ 00000001400465b8     libucrtd:debug_heap.obj
 0002:000035f0       ??_C@_1JM@MCMEPJEP@?$AAr?$AAe?$AAa?$AAl?$AAl?$AAo?$AAc?$AAa?$AAt?$AAi?$AAo?$AAn?$AA_?$AAi?$AAs@ 00000001400465f0     libucrtd:debug_heap.obj
 0002:00003690       ??_C@_1DM@LNOPKAIJ@?$AA_?$AA_?$AAa?$AAc?$AAr?$AAt?$AA_?$AAl?$AAa?$AAs?$AAt?$AA_?$AAb?$AAl?$AAo@ 0000000140046690     libucrtd:debug_heap.obj
 0002:000036d0       ??_C@_1DO@HABCJBHO@?$AA_?$AA_?$AAa?$AAc?$AAr?$AAt?$AA_?$AAf?$AAi?$AAr?$AAs?$AAt?$AA_?$AAb?$AAl@ 00000001400466d0     libucrtd:debug_heap.obj
 0002:00003710       ??_C@_1CC@CKEAHJPH@?$AAb?$AAl?$AAo?$AAc?$AAk?$AA?5?$AA?$CB?$AA?$DN?$AA?5?$AAn?$AAu?$AAl?$AAl?$AAp?$AAt@ 0000000140046710     libucrtd:debug_heap.obj
 0002:00003740       ??_C@_0EJ@HEIBCIMJ@The?5Block?5at?50x?$CFp?5was?5allocated@ 0000000140046740     libucrtd:debug_heap.obj
 0002:00003790       ??_C@_0BL@KEIPLFAC@Client?5hook?5free?5failure?4?6@ 0000000140046790     libucrtd:debug_heap.obj
 0002:000037b0       ??_C@_1FA@KDNEBILF@?$AAi?$AAs?$AA_?$AAb?$AAl?$AAo?$AAc?$AAk?$AA_?$AAt?$AAy?$AAp?$AAe?$AA_?$AAv@ 00000001400467b0     libucrtd:debug_heap.obj
 0002:00003800       ??_C@_0KI@JGFOHMEB@HEAP?5CORRUPTION?5DETECTED?3?5befor@ 0000000140046800     libucrtd:debug_heap.obj
 0002:000038b0       ??_C@_0IK@PJCGLBOB@HEAP?5CORRUPTION?5DETECTED?3?5befor@ 00000001400468b0     libucrtd:debug_heap.obj
 0002:00003940       ??_C@_0KE@MBMNHHHN@HEAP?5CORRUPTION?5DETECTED?3?5after@ 0000000140046940     libucrtd:debug_heap.obj
 0002:000039f0       ??_C@_0IG@LEMBDCJK@HEAP?5CORRUPTION?5DETECTED?3?5after@ 00000001400469f0     libucrtd:debug_heap.obj
 0002:00003a80       ??_C@_1OK@GFEOEJAF@?$AAh?$AAe?$AAa?$AAd?$AAe?$AAr?$AA?9?$AA?$DO?$AA_?$AAl?$AAi?$AAn?$AAe?$AA_?$AAn@ 0000000140046a80     libucrtd:debug_heap.obj
 0002:00003b70       ??_C@_1ME@GFALMLNA@?$AAh?$AAe?$AAa?$AAd?$AAe?$AAr?$AA?9?$AA?$DO?$AA_?$AAb?$AAl?$AAo?$AAc?$AAk?$AA_@ 0000000140046b70     libucrtd:debug_heap.obj
 0002:00003c38       ??_C@_1DI@ILNOPEPI@?$AA_?$AA_?$AAa?$AAc?$AAr?$AAt?$AA_?$AAl?$AAa?$AAs?$AAt?$AA_?$AAb?$AAl?$AAo@ 0000000140046c38     libucrtd:debug_heap.obj
 0002:00003c70       ??_C@_1DK@KEHFGDIJ@?$AA_?$AA_?$AAa?$AAc?$AAr?$AAt?$AA_?$AAf?$AAi?$AAr?$AAs?$AAt?$AA_?$AAb?$AAl@ 0000000140046c70     libucrtd:debug_heap.obj
 0002:00003cb0       ??_C@_1BG@MBKOGDLD@?$AA_?$AAm?$AAs?$AAi?$AAz?$AAe?$AA_?$AAd?$AAb?$AAg@ 0000000140046cb0     libucrtd:debug_heap.obj
 0002:00003cc8       ??_C@_07OHKEFPKJ@DAMAGED@  0000000140046cc8     libucrtd:debug_heap.obj
 0002:00003cd0       ??_C@_0KA@IHNJJKPL@HEAP?5CORRUPTION?5DETECTED?3?5on?5to@ 0000000140046cd0     libucrtd:debug_heap.obj
 0002:00003d70       ??_C@_0IC@BBJIOOJH@HEAP?5CORRUPTION?5DETECTED?3?5on?5to@ 0000000140046d70     libucrtd:debug_heap.obj
 0002:00003e00       ??_C@_0EG@DGJMPDBH@?$CFhs?5located?5at?50x?$CFp?5is?5?$CFIu?5byte@ 0000000140046e00     libucrtd:debug_heap.obj
 0002:00003e48       ??_C@_0CI@JMLBEDHJ@?$CFhs?5located?5at?50x?$CFp?5is?5?$CFIu?5byte@ 0000000140046e48     libucrtd:debug_heap.obj
 0002:00003e70       ??_C@_0EG@GPFHANHO@Cycle?5in?5block?5list?5detected?5wh@ 0000000140046e70     libucrtd:debug_heap.obj
 0002:00003eb8       ??_C@_0BJ@ELMAOCAJ@Heap?5validation?5failed?4?6@ 0000000140046eb8     libucrtd:debug_heap.obj
 0002:00003ee0       ??_C@_1IE@BBIFDGEB@?$AAn?$AAe?$AAw?$AA_?$AAb?$AAi?$AAt?$AAs?$AA?5?$AA?$DN?$AA?$DN?$AA?5?$AA_?$AAC?$AAR@ 0000000140046ee0     libucrtd:debug_heap.obj
 0002:00003f68       ??_C@_1BO@GJFDNMNF@?$AA_?$AAC?$AAr?$AAt?$AAS?$AAe?$AAt?$AAD?$AAb?$AAg?$AAF?$AAl?$AAa?$AAg@ 0000000140046f68     libucrtd:debug_heap.obj
 0002:00003f88       ??_C@_1CC@BBKMONGA@?$AAs?$AAt?$AAa?$AAt?$AAe?$AA?5?$AA?$CB?$AA?$DN?$AA?5?$AAn?$AAu?$AAl?$AAl?$AAp?$AAt@ 0000000140046f88     libucrtd:debug_heap.obj
 0002:00003fb0       ??_C@_1CE@NJJKELF@?$AA_?$AAC?$AAr?$AAt?$AAM?$AAe?$AAm?$AAC?$AAh?$AAe?$AAc?$AAk?$AAp?$AAo?$AAi@ 0000000140046fb0     libucrtd:debug_heap.obj
 0002:00003fd8       ??_C@_0DP@LEFMFBOD@Bad?5memory?5block?5found?5at?50x?$CFp?4@ 0000000140046fd8     libucrtd:debug_heap.obj
 0002:00004018       ??_C@_0CB@EAAIGELO@Bad?5memory?5block?5found?5at?50x?$CFp?4@ 0000000140047018     libucrtd:debug_heap.obj
 0002:0000403c       ??_C@_05MKKEDADM@?$CF?42X?5@ 000000014004703c     libucrtd:debug_heap.obj
 0002:00004048       ??_C@_1CC@DIJAHFFJ@?$AAp?$AAr?$AAi?$AAn?$AAt?$AA_?$AAb?$AAl?$AAo?$AAc?$AAk?$AA_?$AAd?$AAa?$AAt@ 0000000140047048     libucrtd:debug_heap.obj
 0002:00004070       ??_C@_1BI@KALLJECN@?$AA?$CI?$AA?$CK?$AA_?$AAe?$AAr?$AAr?$AAn?$AAo?$AA?$CI?$AA?$CJ?$AA?$CJ@ 0000000140047070     libucrtd:debug_heap.obj
 0002:00004088       ??_C@_0BA@HJBKCELP@?5Data?3?5?$DM?$CFs?$DO?5?$CFs?6@ 0000000140047088     libucrtd:debug_heap.obj
 0002:00004098       ??_C@_0BE@KCIPKCIA@Dumping?5objects?5?9?$DO?6@ 0000000140047098     libucrtd:debug_heap.obj
 0002:000040b0       ??_C@_0BE@OIEFNFL@?$CDFile?5Error?$CD?$CI?$CFd?$CJ?5?3?5@ 00000001400470b0     libucrtd:debug_heap.obj
 0002:000040c8       ??_C@_0L@JMEFFCCJ@?$CFhs?$CI?$CFd?$CJ?5?3?5@ 00000001400470c8     libucrtd:debug_heap.obj
 0002:000040d4       ??_C@_06PKLGBFGM@?$HL?$CFld?$HN?5@ 00000001400470d4     libucrtd:debug_heap.obj
 0002:000040e0       ??_C@_0DD@GHNAAKBB@client?5block?5at?50x?$CFp?0?5subtype?5?$CF@ 00000001400470e0     libucrtd:debug_heap.obj
 0002:00004118       ??_C@_0CH@FAGDDGPN@normal?5block?5at?50x?$CFp?0?5?$CFIu?5bytes@ 0000000140047118     libucrtd:debug_heap.obj
 0002:00004140       ??_C@_0DA@MDLBNIBM@crt?5block?5at?50x?$CFp?0?5subtype?5?$CFx?0?5@ 0000000140047140     libucrtd:debug_heap.obj
 0002:00004170       ??_C@_0BH@GFGKJDCO@Object?5dump?5complete?4?6@ 0000000140047170     libucrtd:debug_heap.obj
 0002:00004188       ??_C@_0BI@JBFPOEJA@Detected?5memory?5leaks?$CB?6@ 0000000140047188     libucrtd:debug_heap.obj
 0002:000041b8       ??_C@_1BA@GLMCNLEM@?$AAW?$AAa?$AAr?$AAn?$AAi?$AAn?$AAg@ 00000001400471b8     libucrtd:dbgrpt.obj
 0002:000041c8       ??_C@_1M@ILHOPKA@?$AAE?$AAr?$AAr?$AAo?$AAr@ 00000001400471c8     libucrtd:dbgrpt.obj
 0002:000041d8       ??_C@_1CC@CGHMNGDG@?$AAA?$AAs?$AAs?$AAe?$AAr?$AAt?$AAi?$AAo?$AAn?$AA?5?$AAF?$AAa?$AAi?$AAl?$AAe@ 00000001400471d8     libucrtd:dbgrpt.obj
 0002:00004210       ??_C@_1OG@PMPPFHAF@?$AA?6?$AA?6?$AAF?$AAo?$AAr?$AA?5?$AAi?$AAn?$AAf?$AAo?$AAr?$AAm?$AAa?$AAt?$AAi@ 0000000140047210     libucrtd:dbgrpt.obj
 0002:00004300       ??_C@_1MG@LJLILFFD@?$AAD?$AAe?$AAb?$AAu?$AAg?$AA?5?$AA?$CF?$AAl?$AAs?$AA?$CB?$AA?6?$AA?6?$AAP?$AAr?$AAo@ 0000000140047300     libucrtd:dbgrpt.obj
 0002:000043d0       ??_C@_1MG@OODCADGL@?$AAD?$AAe?$AAb?$AAu?$AAg?$AA?5?$AA?$CF?$AAl?$AAs?$AA?$CB?$AA?6?$AA?6?$AAP?$AAr?$AAo@ 00000001400473d0     libucrtd:dbgrpt.obj
 0002:00004498       ??_C@_0BH@DNAGHKFM@?$DMprogram?5name?5unknown?$DO@ 0000000140047498     libucrtd:dbgrpt.obj
 0002:000044b0       ??_C@_1FO@GMJDLAJD@?$AAm?$AAi?$AAn?$AAk?$AAe?$AAr?$AAn?$AAe?$AAl?$AA?2?$AAc?$AAr?$AAt?$AAs?$AA?2@ 00000001400474b0     libucrtd:dbgrpt.obj
 0002:00004510       ??_C@_1CM@EHMOGBJJ@?$AAc?$AAo?$AAm?$AAm?$AAo?$AAn?$AA_?$AAm?$AAe?$AAs?$AAs?$AAa?$AAg?$AAe?$AA_@ 0000000140047510     libucrtd:dbgrpt.obj
 0002:00004540       ??_C@_1PE@ECNALGCA@?$AAt?$AAr?$AAa?$AAi?$AAt?$AAs?$AA?3?$AA?3?$AAt?$AAc?$AAs?$AAc?$AAp?$AAy?$AA_@ 0000000140047540     libucrtd:dbgrpt.obj
 0002:00004638       ??_C@_1BK@PEDCIPMA@?$AAE?$AAx?$AAp?$AAr?$AAe?$AAs?$AAs?$AAi?$AAo?$AAn?$AA?3?$AA?5@ 0000000140047638     libucrtd:dbgrpt.obj
 0002:00004658       ??_C@_1BA@GLLGCPCK@?$AA?6?$AAL?$AAi?$AAn?$AAe?$AA?3?$AA?5@ 0000000140047658     libucrtd:dbgrpt.obj
 0002:00004668       ??_C@_1BA@LNHECFIM@?$AA?6?$AAF?$AAi?$AAl?$AAe?$AA?3?$AA?5@ 0000000140047668     libucrtd:dbgrpt.obj
 0002:00004678       ??_C@_1BE@CGCJKGHI@?$AA?6?$AAM?$AAo?$AAd?$AAu?$AAl?$AAe?$AA?3?$AA?5@ 0000000140047678     libucrtd:dbgrpt.obj
 0002:00004690       ??_C@_1JM@IBOIJEOO@?$AAw?$AAc?$AAs?$AAc?$AAp?$AAy?$AA_?$AAs?$AA?$CI?$AAm?$AAe?$AAs?$AAs?$AAa?$AAg@ 0000000140047690     libucrtd:dbgrpt.obj
 0002:00004730       ??_C@_1FG@BBOLDHGF@?$AA_?$AAC?$AAr?$AAt?$AAD?$AAb?$AAg?$AAR?$AAe?$AAp?$AAo?$AAr?$AAt?$AA?3?$AA?5@ 0000000140047730     libucrtd:dbgrpt.obj
 0002:00004790       ??_C@_1GI@BBAEIKL@?$AA?$CI?$AA?$CI?$AAd?$AAe?$AAs?$AAt?$AAi?$AAn?$AAa?$AAt?$AAi?$AAo?$AAn?$AA?$CJ?$AA?$CJ@ 0000000140047790     libucrtd:strcpy_s.obj
 0002:00004800       ??_C@_1HI@PBJPCEBC@?$AAm?$AAi?$AAn?$AAk?$AAe?$AAr?$AAn?$AAe?$AAl?$AA?2?$AAc?$AAr?$AAt?$AAs?$AA?2@ 0000000140047800     libucrtd:strcpy_s.obj
 0002:00004878       ??_C@_1CA@FHIAGDFH@?$AAc?$AAo?$AAm?$AAm?$AAo?$AAn?$AA_?$AAt?$AAc?$AAs?$AAc?$AAp?$AAy?$AA_?$AAs@ 0000000140047878     libucrtd:strcpy_s.obj
 0002:00004898       ??_C@_1CK@EIOKGPJL@?$AA?$CI?$AA?$CI?$AA?$CI?$AAs?$AAo?$AAu?$AAr?$AAc?$AAe?$AA?$CJ?$AA?$CJ?$AA?$CJ?$AA?5?$AA?$CB?$AA?$DN@ 0000000140047898     libucrtd:strcpy_s.obj
 0002:000048c8       ??_C@_1CI@HCPHDDLE@?$AAB?$AAu?$AAf?$AAf?$AAe?$AAr?$AA?5?$AAi?$AAs?$AA?5?$AAt?$AAo?$AAo?$AA?5?$AAs@ 00000001400478c8     libucrtd:strcpy_s.obj
 0002:000048f0       ??_C@_1DM@MADKGDLO@?$AA?$CI?$AAL?$AA?$CC?$AAB?$AAu?$AAf?$AAf?$AAe?$AAr?$AA?5?$AAi?$AAs?$AA?5?$AAt?$AAo@ 00000001400478f0     libucrtd:strcpy_s.obj
 0002:00004930       ??_C@_1DA@LLLMNMKI@?$AAa?$AAb?$AAo?$AAr?$AAt?$AA?$CI?$AA?$CJ?$AA?5?$AAh?$AAa?$AAs?$AA?5?$AAb?$AAe?$AAe@ 0000000140047930     libucrtd:abort.obj
 0002:00004960       ?format_validation_lookup_table_spectre@__crt_stdio_output@@3V?$spectre_mitigated_lookup_table@Ustate_transition_pair@__crt_stdio_output@@$0IA@@1@B 0000000140047960     libucrtd:output.obj
 0002:00004b00       ??_C@_1GE@DPGDJKLM@?$AAm?$AAi?$AAn?$AAk?$AAe?$AAr?$AAn?$AAe?$AAl?$AA?2?$AAc?$AAr?$AAt?$AAs?$AA?2@ 0000000140047b00     libucrtd:output.obj
 0002:00004b70       ??_C@_1GA@MOBAPGIO@?$AAm?$AAi?$AAn?$AAk?$AAe?$AAr?$AAn?$AAe?$AAl?$AA?2?$AAc?$AAr?$AAt?$AAs?$AA?2@ 0000000140047b70     libucrtd:output.obj
 0002:00004bd0       ??_C@_1CE@EAKLPBKK@?$AAf?$AAo?$AAr?$AAm?$AAa?$AAt?$AA?5?$AA?$CB?$AA?$DN?$AA?5?$AAn?$AAu?$AAl?$AAl?$AAp@ 0000000140047bd0     libucrtd:output.obj
 0002:00004bf8       ??_C@_1CA@PIMGHCEK@?$AAc?$AAo?$AAm?$AAm?$AAo?$AAn?$AA_?$AAv?$AAs?$AAp?$AAr?$AAi?$AAn?$AAt?$AAf@ 0000000140047bf8     libucrtd:output.obj
 0002:00004c20       ??_C@_1EO@EGEEFEFM@?$AAb?$AAu?$AAf?$AAf?$AAe?$AAr?$AA_?$AAc?$AAo?$AAu?$AAn?$AAt?$AA?5?$AA?$DN?$AA?$DN@ 0000000140047c20     libucrtd:output.obj
 0002:00004c70       ??_C@_1CE@JEILLNB@?$AAc?$AAo?$AAm?$AAm?$AAo?$AAn?$AA_?$AAv?$AAs?$AAp?$AAr?$AAi?$AAn?$AAt?$AAf@ 0000000140047c70     libucrtd:output.obj
 0002:00004ca0       ??_C@_1EM@OAFHAOLH@?$AAb?$AAu?$AAf?$AAf?$AAe?$AAr?$AA?5?$AA?$CB?$AA?$DN?$AA?5?$AAn?$AAu?$AAl?$AAl?$AAp@ 0000000140047ca0     libucrtd:output.obj
 0002:00004cf0       ??_C@_1DA@HPBFKMEB@?$AA?$CI?$AA?$CC?$AAB?$AAu?$AAf?$AAf?$AAe?$AAr?$AA?5?$AAt?$AAo?$AAo?$AA?5?$AAs?$AAm@ 0000000140047cf0     libucrtd:output.obj
 0002:00004d20       ??_C@_1CG@LHFJHFBB@?$AAc?$AAo?$AAm?$AAm?$AAo?$AAn?$AA_?$AAv?$AAs?$AAn?$AAp?$AAr?$AAi?$AAn?$AAt@ 0000000140047d20     libucrtd:output.obj
 0002:00004d48       ??_C@_1CM@JOIJBMEM@?$AA_?$AAf?$AAo?$AAr?$AAm?$AAa?$AAt?$AA_?$AAi?$AAt?$AA?5?$AA?$CB?$AA?$DN?$AA?5?$AAn@ 0000000140047d48     libucrtd:output.obj
 0002:00004d80       ??_C@_1HA@DMAAKIJP@?$AAm?$AAi?$AAn?$AAk?$AAe?$AAr?$AAn?$AAe?$AAl?$AA?2?$AAc?$AAr?$AAt?$AAs?$AA?2@ 0000000140047d80     libucrtd:output.obj
 0002:00004df0       ??_C@_1EE@DMAIGNBG@?$AA?$CI?$AA?$CC?$AAI?$AAn?$AAc?$AAo?$AAr?$AAr?$AAe?$AAc?$AAt?$AA?5?$AAf?$AAo?$AAr@ 0000000140047df0     libucrtd:output.obj
 0002:00004e40       ??_C@_1FG@OBJBDPAC@?$AA?$CI?$AA?$CC?$AAN?$AA?5?$AAl?$AAe?$AAn?$AAg?$AAt?$AAh?$AA?5?$AAm?$AAo?$AAd?$AAi@ 0000000140047e40     libucrtd:output.obj
 0002:00004ea0       ??_C@_1EC@GJPNJDCN@?$AA_?$AAl?$AAe?$AAn?$AAg?$AAt?$AAh?$AA?5?$AA?$DN?$AA?$DN?$AA?5?$AAl?$AAe?$AAn?$AAg@ 0000000140047ea0     libucrtd:output.obj
 0002:00004ee8       ??_C@_1DG@CEJKFDMO@?$AAs?$AAt?$AAa?$AAt?$AAe?$AA_?$AAc?$AAa?$AAs?$AAe?$AA_?$AAn?$AAo?$AAr?$AAm@ 0000000140047ee8     libucrtd:output.obj
 0002:00004f20       ??_C@_1CI@DDKMNCPP@?$AA_?$AAc?$AAo?$AAn?$AAt?$AAe?$AAx?$AAt?$AA?5?$AA?$CB?$AA?$DN?$AA?5?$AAn?$AAu?$AAl@ 0000000140047f20     libucrtd:output.obj
 0002:00004f50       ??_C@_1HK@IIPGOADH@?$AA_?$AA_?$AAc?$AAr?$AAt?$AA_?$AAs?$AAt?$AAd?$AAi?$AAo?$AA_?$AAo?$AAu?$AAt@ 0000000140047f50     libucrtd:output.obj
 0002:00004fd0       ??_C@_1HE@IACOMEJF@?$AA_?$AA_?$AAc?$AAr?$AAt?$AA_?$AAs?$AAt?$AAd?$AAi?$AAo?$AA_?$AAo?$AAu?$AAt@ 0000000140047fd0     libucrtd:output.obj
 0002:00005050       ??_C@_1GC@BNMHNGKM@?$AA_?$AAs?$AAt?$AAa?$AAt?$AAe?$AA?5?$AA?$DN?$AA?$DN?$AA?5?$AAs?$AAt?$AAa?$AAt?$AAe@ 0000000140048050     libucrtd:output.obj
 0002:000050c0       ??_C@_1EK@PNGFDECN@?$AA?$CI?$AA?$CC?$AA?8?$AAn?$AA?8?$AA?5?$AAf?$AAo?$AAr?$AAm?$AAa?$AAt?$AA?5?$AAs?$AAp@ 00000001400480c0     libucrtd:output.obj
 0002:00005110       ??_C@_1EO@GHKFGFKL@?$AA?$CI?$AA?$CC?$AAI?$AAn?$AAv?$AAa?$AAl?$AAi?$AAd?$AA?5?$AAi?$AAn?$AAt?$AAe?$AAg@ 0000000140048110     libucrtd:output.obj
 0002:00005160       ??_C@_1BEC@NDOOKIMC@?$AA_?$AA_?$AAc?$AAr?$AAt?$AA_?$AAs?$AAt?$AAd?$AAi?$AAo?$AA_?$AAo?$AAu?$AAt@ 0000000140048160     libucrtd:output.obj
 0002:000052b0       ??_C@_1BDG@KOLEFKPF@?$AA_?$AA_?$AAc?$AAr?$AAt?$AA_?$AAs?$AAt?$AAd?$AAi?$AAo?$AA_?$AAo?$AAu?$AAt@ 00000001400482b0     libucrtd:output.obj
 0002:000053e8       ??_C@_1O@CEDCILHN@?$AA?$CI?$AAn?$AAu?$AAl?$AAl?$AA?$CJ@ 00000001400483e8     libucrtd:output.obj
 0002:000053f8       ??_C@_06OJHGLDPL@?$CInull?$CJ@ 00000001400483f8     libucrtd:output.obj
 0002:00005400       ??_C@_1CK@LGDCECDH@?$AA_?$AAf?$AAo?$AAr?$AAm?$AAa?$AAt?$AA_?$AAc?$AAh?$AAa?$AAr?$AA?5?$AA?$CB?$AA?$DN@ 0000000140048400     libucrtd:output.obj
 0002:00005430       ??_C@_0DI@KIFBHMNO@minkernel?2crts?2ucrt?2inc?2corecrt@ 0000000140048430     libucrtd:output.obj
 0002:00005470       ??_C@_1BMK@JGIBNIA@?$AA_?$AA_?$AAc?$AAr?$AAt?$AA_?$AAs?$AAt?$AAd?$AAi?$AAo?$AA_?$AAo?$AAu?$AAt@ 0000000140048470     libucrtd:output.obj
 0002:00005640       ??_C@_1BLC@INKIGOCN@?$AA_?$AA_?$AAc?$AAr?$AAt?$AA_?$AAs?$AAt?$AAd?$AAi?$AAo?$AA_?$AAo?$AAu?$AAt@ 0000000140048640     libucrtd:output.obj
 0002:00005800       ??_C@_1BNK@KHNJGCCP@?$AA_?$AA_?$AAc?$AAr?$AAt?$AA_?$AAs?$AAt?$AAd?$AAi?$AAo?$AA_?$AAo?$AAu?$AAt@ 0000000140048800     libucrtd:output.obj
 0002:000059e0       ??_C@_1BNO@OHFFMOOJ@?$AA_?$AA_?$AAc?$AAr?$AAt?$AA_?$AAs?$AAt?$AAd?$AAi?$AAo?$AA_?$AAo?$AAu?$AAt@ 00000001400489e0     libucrtd:output.obj
 0002:00005bc0       ??_C@_1BMC@FAGJFBLI@?$AA_?$AA_?$AAc?$AAr?$AAt?$AA_?$AAs?$AAt?$AAd?$AAi?$AAo?$AA_?$AAo?$AAu?$AAt@ 0000000140048bc0     libucrtd:output.obj
 0002:00005d90       ??_C@_1BMG@CGPDIFDK@?$AA_?$AA_?$AAc?$AAr?$AAt?$AA_?$AAs?$AAt?$AAd?$AAi?$AAo?$AA_?$AAo?$AAu?$AAt@ 0000000140048d90     libucrtd:output.obj
 0002:00005f60       ??_C@_1BNC@OHPDPPJK@?$AA_?$AA_?$AAc?$AAr?$AAt?$AA_?$AAs?$AAt?$AAd?$AAi?$AAo?$AA_?$AAo?$AAu?$AAt@ 0000000140048f60     libucrtd:output.obj
 0002:00006140       ??_C@_1BLK@FOLFMPJH@?$AA_?$AA_?$AAc?$AAr?$AAt?$AA_?$AAs?$AAt?$AAd?$AAi?$AAo?$AA_?$AAo?$AAu?$AAt@ 0000000140049140     libucrtd:output.obj
 0002:00006300       ??_C@_1BNC@JPKLPOHO@?$AA_?$AA_?$AAc?$AAr?$AAt?$AA_?$AAs?$AAt?$AAd?$AAi?$AAo?$AA_?$AAo?$AAu?$AAt@ 0000000140049300     libucrtd:output.obj
 0002:000064e0       ??_C@_1EO@MLJCKPIB@?$AAb?$AAa?$AAs?$AAe?$AA?5?$AA?$DN?$AA?$DN?$AA?5?$AA0?$AA?5?$AA?$HM?$AA?$HM?$AA?5?$AA?$CI?$AA2@ 00000001400494e0     libucrtd:output.obj
 0002:00006530       ??_C@_1DI@BANODKFL@?$AA_?$AA_?$AAc?$AAr?$AAt?$AA_?$AAs?$AAt?$AAr?$AAt?$AAo?$AAx?$AA?3?$AA?3?$AAp@ 0000000140049530     libucrtd:output.obj
 0002:00006570       ??_C@_1BNO@NAODCKFA@?$AA_?$AA_?$AAc?$AAr?$AAt?$AA_?$AAs?$AAt?$AAd?$AAi?$AAo?$AA_?$AAo?$AAu?$AAt@ 0000000140049570     libucrtd:output.obj
 0002:00006750       ??_C@_1BMG@BBEFGBID@?$AA_?$AA_?$AAc?$AAr?$AAt?$AA_?$AAs?$AAt?$AAd?$AAi?$AAo?$AA_?$AAo?$AAu?$AAt@ 0000000140049750     libucrtd:output.obj
 0002:00006918       ??_C@_1CM@GJENOOEJ@?$AAc?$AA?5?$AA?$DN?$AA?$DN?$AA?5?$AA?8?$AA?2?$AA0?$AA?8?$AA?5?$AA?$HM?$AA?$HM?$AA?5?$AA?$CK?$AA_@ 0000000140049918     libucrtd:output.obj
 0002:00006950       ??_C@_1GK@MNHIDABG@?$AA_?$AA_?$AAc?$AAr?$AAt?$AA_?$AAs?$AAt?$AAr?$AAt?$AAo?$AAx?$AA?3?$AA?3?$AAc@ 0000000140049950     libucrtd:output.obj
 0002:000069c0       ??_C@_1BM@PNEBBBDO@?$AA_?$AAp?$AA?5?$AA?$CB?$AA?$DN?$AA?5?$AAn?$AAu?$AAl?$AAl?$AAp?$AAt?$AAr@ 00000001400499c0     libucrtd:output.obj
 0002:000069e0       ??_C@_1HA@MKKIHBHP@?$AA_?$AA_?$AAc?$AAr?$AAt?$AA_?$AAs?$AAt?$AAr?$AAt?$AAo?$AAx?$AA?3?$AA?3?$AAc@ 00000001400499e0     libucrtd:output.obj
 0002:00006a50       ??_C@_1HA@CONLANFI@?$AA_?$AA_?$AAc?$AAr?$AAt?$AA_?$AAs?$AAt?$AAr?$AAt?$AAo?$AAx?$AA?3?$AA?3?$AAc@ 0000000140049a50     libucrtd:output.obj
 0002:00006ac0       ??_C@_1HG@FCDBLOEG@?$AA_?$AA_?$AAc?$AAr?$AAt?$AA_?$AAs?$AAt?$AAr?$AAt?$AAo?$AAx?$AA?3?$AA?3?$AAc@ 0000000140049ac0     libucrtd:output.obj
 0002:00006cb0       ??_C@_04LAGPAAHP@sinf@     0000000140049cb0     libucrtd:sincos_special.obj
 0002:00006cb8       ??_C@_04OBBKPIAC@cosf@     0000000140049cb8     libucrtd:sincos_special.obj
 0002:00006cc0       __Lcosfarray               0000000140049cc0     libucrtd:lsincosf_array.obj
 0002:00006cf0       __Lsinfarray               0000000140049cf0     libucrtd:lsincosf_array.obj
 0002:00006d10       __L_2_by_pi_bits           0000000140049d10     libucrtd:l2_by_pi_bits.obj
 0002:00006f50       ??_C@_0DM@DKIFNNOL@minkernel?2crts?2ucrt?2src?2appcrt?2@ 0000000140049f50     libucrtd:per_thread_data.obj
 0002:00006f90       ??_C@_1DE@BCNCAIK@?$AA?$CI?$AA?$CC?$AAI?$AAn?$AAv?$AAa?$AAl?$AAi?$AAd?$AA?5?$AAe?$AAr?$AAr?$AAo?$AAr@ 0000000140049f90     libucrtd:set_error_mode.obj
 0002:00006fd0       ??_C@_1GO@EBFPMMIJ@?$AAm?$AAi?$AAn?$AAk?$AAe?$AAr?$AAn?$AAe?$AAl?$AA?2?$AAc?$AAr?$AAt?$AAs?$AA?2@ 0000000140049fd0     libucrtd:set_error_mode.obj
 0002:00007040       ??_C@_1CA@LFDHAMEM@?$AA_?$AAs?$AAe?$AAt?$AA_?$AAe?$AAr?$AAr?$AAo?$AAr?$AA_?$AAm?$AAo?$AAd?$AAe@ 000000014004a040     libucrtd:set_error_mode.obj
 0002:00007060       ??_C@_1CA@EOJJMFA@?$AAc?$AAo?$AAm?$AAm?$AAo?$AAn?$AA_?$AAt?$AAc?$AAs?$AAc?$AAa?$AAt?$AA_?$AAs@ 000000014004a060     libucrtd:wcscat_s.obj
 0002:00007080       ??_C@_1DM@FHLMIEG@?$AAS?$AAt?$AAr?$AAi?$AAn?$AAg?$AA?5?$AAi?$AAs?$AA?5?$AAn?$AAo?$AAt?$AA?5?$AAn@ 000000014004a080     libucrtd:wcscat_s.obj
 0002:000070c0       ??_C@_1FA@MJKDNFFB@?$AA?$CI?$AAL?$AA?$CC?$AAS?$AAt?$AAr?$AAi?$AAn?$AAg?$AA?5?$AAi?$AAs?$AA?5?$AAn?$AAo@ 000000014004a0c0     libucrtd:wcscat_s.obj
 0002:00007110       ??_C@_1CC@CHNFGJIC@?$AAc?$AAo?$AAm?$AAm?$AAo?$AAn?$AA_?$AAt?$AAc?$AAs?$AAn?$AAc?$AAp?$AAy?$AA_@ 000000014004a110     libucrtd:wcsncpy_s.obj
 0002:000072a8       ??_C@_1CE@JMFACANE@?$AAr?$AAe?$AAs?$AAu?$AAl?$AAt?$AA?5?$AA?$CB?$AA?$DN?$AA?5?$AAn?$AAu?$AAl?$AAl?$AAp@ 000000014004a2a8     libucrtd:errno.obj
 0002:00007348       ??_C@_0DI@DNFGFCIK@minkernel?2crts?2ucrt?2inc?2corecrt@ 000000014004a348     libucrtd:argv_wildcards.obj
 0002:00007380       ??_C@_1HE@CEMHPOHH@?$AAm?$AAi?$AAn?$AAk?$AAe?$AAr?$AAn?$AAe?$AAl?$AA?2?$AAc?$AAr?$AAt?$AAs?$AA?2@ 000000014004a380     libucrtd:argv_wildcards.obj
 0002:000073f8       ??_C@_1DK@IBFFOJGB@?$AAc?$AAo?$AAm?$AAm?$AAo?$AAn?$AA_?$AAe?$AAx?$AAp?$AAa?$AAn?$AAd?$AA_?$AAa@ 000000014004a3f8     libucrtd:argv_wildcards.obj
 0002:00007440       ??_C@_1MC@FLPKOFON@?$AAt?$AAr?$AAa?$AAi?$AAt?$AAs?$AA?3?$AA?3?$AAt?$AAc?$AAs?$AAn?$AAc?$AAp?$AAy@ 000000014004a440     libucrtd:argv_wildcards.obj
 0002:00007508       ??_C@_0DK@FPFMIIJB@minkernel?2crts?2ucrt?2src?2appcrt?2@ 000000014004a508     libucrtd:argv_wildcards.obj
 0002:00007550       ??_C@_1EA@KOCCBLAD@?$AAc?$AAo?$AAp?$AAy?$AA_?$AAa?$AAn?$AAd?$AA_?$AAa?$AAd?$AAd?$AA_?$AAa?$AAr@ 000000014004a550     libucrtd:argv_wildcards.obj
 0002:00007590       ??_C@_1KM@GDJIGAGL@?$AAt?$AAr?$AAa?$AAi?$AAt?$AAs?$AA?3?$AA?3?$AAt?$AAc?$AAs?$AAn?$AAc?$AAp?$AAy@ 000000014004a590     libucrtd:argv_wildcards.obj
 0002:00007640       ??_C@_1PI@FGFLAGCC@?$AAt?$AAr?$AAa?$AAi?$AAt?$AAs?$AA?3?$AA?3?$AAt?$AAc?$AAs?$AAn?$AAc?$AAp?$AAy@ 000000014004a640     libucrtd:argv_wildcards.obj
 0002:00007780       ??_C@_1M@HPNHIDJI@?$AAj?$AAa?$AA?9?$AAJ?$AAP@ 000000014004a780     libucrtd:mbctype.obj
 0002:00007790       ??_C@_1M@BIBDDEMK@?$AAz?$AAh?$AA?9?$AAC?$AAN@ 000000014004a790     libucrtd:mbctype.obj
 0002:000077a0       ??_C@_1M@JLOOOEGK@?$AAk?$AAo?$AA?9?$AAK?$AAR@ 000000014004a7a0     libucrtd:mbctype.obj
 0002:000077b0       ??_C@_1M@CLNBBOPM@?$AAz?$AAh?$AA?9?$AAT?$AAW@ 000000014004a7b0     libucrtd:mbctype.obj
 0002:00007810       ??_C@_0DE@HGDKNBFD@minkernel?2crts?2ucrt?2src?2appcrt?2@ 000000014004a810     libucrtd:mbctype.obj
 0002:00007850       ??_C@_0ED@BLPEHJAI@minkernel?2crts?2ucrt?2src?2desktop@ 000000014004a850     libucrtd:get_environment_from_os.obj
 0002:000078a0       ??_C@_1FO@NMANMHOD@?$AAc?$AAa?$AAc?$AAh?$AAe?$AAd?$AA_?$AAs?$AAt?$AAa?$AAt?$AAe?$AA?5?$AA?$DN?$AA?$DN@ 000000014004a8a0     libucrtd:win_policies.obj
 0002:00007900       ??_C@_1HC@GHLNKBJK@?$AAm?$AAi?$AAn?$AAk?$AAe?$AAr?$AAn?$AAe?$AAl?$AA?2?$AAc?$AAr?$AAt?$AAs?$AA?2@ 000000014004a900     libucrtd:win_policies.obj
 0002:00007978       ??_C@_0DB@JFFPGLDM@minkernel?2crts?2ucrt?2src?2appcrt?2@ 000000014004a978     libucrtd:osfinfo.obj
 0002:000079b0       ??_C@_1EM@BPODPNEJ@?$AAs?$AAt?$AAa?$AAt?$AAi?$AAc?$AA_?$AAc?$AAa?$AAs?$AAt?$AA?$DM?$AAu?$AAn?$AAs@ 000000014004a9b0     libucrtd:osfinfo.obj
 0002:00007a00       ??_C@_1GC@LDGKBAFM@?$AAm?$AAi?$AAn?$AAk?$AAe?$AAr?$AAn?$AAe?$AAl?$AA?2?$AAc?$AAr?$AAt?$AAs?$AA?2@ 000000014004aa00     libucrtd:osfinfo.obj
 0002:00007a68       ??_C@_1DM@JELNOMLN@?$AA_?$AA_?$AAa?$AAc?$AAr?$AAt?$AA_?$AAl?$AAo?$AAw?$AAi?$AAo?$AA_?$AAe?$AAn@ 000000014004aa68     libucrtd:osfinfo.obj
 0002:00007ab0       ??_C@_1FK@MGHFJLAL@?$AAf?$AAh?$AA?5?$AA?$DO?$AA?$DN?$AA?5?$AA0?$AA?5?$AA?$CG?$AA?$CG?$AA?5?$AA?$CI?$AAu?$AAn?$AAs@ 000000014004aab0     libucrtd:osfinfo.obj
 0002:00007b10       ??_C@_1BO@EMBOBGKE@?$AA_?$AAg?$AAe?$AAt?$AA_?$AAo?$AAs?$AAf?$AAh?$AAa?$AAn?$AAd?$AAl?$AAe@ 000000014004ab10     libucrtd:osfinfo.obj
 0002:00007b30       ??_C@_1CI@ILOIOBLM@?$AA_?$AAo?$AAs?$AAf?$AAi?$AAl?$AAe?$AA?$CI?$AAf?$AAh?$AA?$CJ?$AA?5?$AA?$CG?$AA?5?$AAF@ 000000014004ab30     libucrtd:osfinfo.obj
 0002:00007b60       __lc_time_c                000000014004ab60     libucrtd:nlsdata.obj
 0002:00007e20       ??_C@_03KOEHGMDN@Sun@      000000014004ae20     libucrtd:nlsdata.obj
 0002:00007e24       ??_C@_03PDAGKDH@Mon@       000000014004ae24     libucrtd:nlsdata.obj
 0002:00007e28       ??_C@_03NAGEINEP@Tue@      000000014004ae28     libucrtd:nlsdata.obj
 0002:00007e2c       ??_C@_03MHOMLAJA@Wed@      000000014004ae2c     libucrtd:nlsdata.obj
 0002:00007e30       ??_C@_03IOFIKPDN@Thu@      000000014004ae30     libucrtd:nlsdata.obj
 0002:00007e34       ??_C@_03IDIOELNC@Fri@      000000014004ae34     libucrtd:nlsdata.obj
 0002:00007e38       ??_C@_03FEFJNEK@Sat@       000000014004ae38     libucrtd:nlsdata.obj
 0002:00007e3c       ??_C@_06OOPIFAJ@Sunday@    000000014004ae3c     libucrtd:nlsdata.obj
 0002:00007e44       ??_C@_06JLEDEDGH@Monday@   000000014004ae44     libucrtd:nlsdata.obj
 0002:00007e50       ??_C@_07BAAGCFCM@Tuesday@  000000014004ae50     libucrtd:nlsdata.obj
 0002:00007e58       ??_C@_09DLIGFAKA@Wednesday@ 000000014004ae58     libucrtd:nlsdata.obj
 0002:00007e68       ??_C@_08HACCIKIA@Thursday@ 000000014004ae68     libucrtd:nlsdata.obj
 0002:00007e74       ??_C@_06JECMNKMI@Friday@   000000014004ae74     libucrtd:nlsdata.obj
 0002:00007e80       ??_C@_08INBOOONO@Saturday@ 000000014004ae80     libucrtd:nlsdata.obj
 0002:00007e8c       ??_C@_03JIHJHPIE@Jan@      000000014004ae8c     libucrtd:nlsdata.obj
 0002:00007e90       ??_C@_03HJBDCHOM@Feb@      000000014004ae90     libucrtd:nlsdata.obj
 0002:00007e94       ??_C@_03ODNJBKGA@Mar@      000000014004ae94     libucrtd:nlsdata.obj
 0002:00007e98       ??_C@_03LEOLGMJP@Apr@      000000014004ae98     libucrtd:nlsdata.obj
 0002:00007e9c       ??_C@_03CNMDKL@May@        000000014004ae9c     libucrtd:nlsdata.obj
 0002:00007ea0       ??_C@_03IDFGHECI@Jun@      000000014004aea0     libucrtd:nlsdata.obj
 0002:00007ea4       ??_C@_03LBGABGKK@Jul@      000000014004aea4     libucrtd:nlsdata.obj
 0002:00007ea8       ??_C@_03IFJFEIGA@Aug@      000000014004aea8     libucrtd:nlsdata.obj
 0002:00007eac       ??_C@_03GGCAPAJC@Sep@      000000014004aeac     libucrtd:nlsdata.obj
 0002:00007eb0       ??_C@_03BMAOKBAD@Oct@      000000014004aeb0     libucrtd:nlsdata.obj
 0002:00007eb4       ??_C@_03JPJOFNIA@Nov@      000000014004aeb4     libucrtd:nlsdata.obj
 0002:00007eb8       ??_C@_03MKABNOCG@Dec@      000000014004aeb8     libucrtd:nlsdata.obj
 0002:00007ec0       ??_C@_07CGJPFGJA@January@  000000014004aec0     libucrtd:nlsdata.obj
 0002:00007ec8       ??_C@_08GNJGEPFN@February@ 000000014004aec8     libucrtd:nlsdata.obj
 0002:00007ed4       ??_C@_05HPCKOFNC@March@    000000014004aed4     libucrtd:nlsdata.obj
 0002:00007edc       ??_C@_05DMJDNLEJ@April@    000000014004aedc     libucrtd:nlsdata.obj
 0002:00007ee4       ??_C@_04CNLMGBGM@June@     000000014004aee4     libucrtd:nlsdata.obj
 0002:00007eec       ??_C@_04MIEPOIFP@July@     000000014004aeec     libucrtd:nlsdata.obj
 0002:00007ef4       ??_C@_06LBBHFDDG@August@   000000014004aef4     libucrtd:nlsdata.obj
 0002:00007f00       ??_C@_09BHHEALKD@September@ 000000014004af00     libucrtd:nlsdata.obj
 0002:00007f10       ??_C@_07JJNFCEND@October@  000000014004af10     libucrtd:nlsdata.obj
 0002:00007f18       ??_C@_08HCHEGEOA@November@ 000000014004af18     libucrtd:nlsdata.obj
 0002:00007f28       ??_C@_08EDHMEBNP@December@ 000000014004af28     libucrtd:nlsdata.obj
 0002:00007f34       ??_C@_02DEDBPAFC@AM@       000000014004af34     libucrtd:nlsdata.obj
 0002:00007f38       ??_C@_02CJNFDJBF@PM@       000000014004af38     libucrtd:nlsdata.obj
 0002:00007f40       ??_C@_08BPBNCDIB@MM?1dd?1yy@ 000000014004af40     libucrtd:nlsdata.obj
 0002:00007f50       ??_C@_0BE@CKGJFCPC@dddd?0?5MMMM?5dd?0?5yyyy@ 000000014004af50     libucrtd:nlsdata.obj
 0002:00007f68       ??_C@_08JCCMCCIL@HH?3mm?3ss@ 000000014004af68     libucrtd:nlsdata.obj
 0002:00007f78       ??_C@_17MBGCMIPB@?$AAS?$AAu?$AAn@ 000000014004af78     libucrtd:nlsdata.obj
 0002:00007f80       ??_C@_17KBOMKBF@?$AAM?$AAo?$AAn@ 000000014004af80     libucrtd:nlsdata.obj
 0002:00007f88       ??_C@_17BMKGEGOJ@?$AAT?$AAu?$AAe@ 000000014004af88     libucrtd:nlsdata.obj
 0002:00007f90       ??_C@_17CJEDCEPE@?$AAW?$AAe?$AAd@ 000000014004af90     libucrtd:nlsdata.obj
 0002:00007f98       ??_C@_17PDPHAADD@?$AAT?$AAh?$AAu@ 000000014004af98     libucrtd:nlsdata.obj
 0002:00007fa0       ??_C@_17HFOLPPLP@?$AAF?$AAr?$AAi@ 000000014004afa0     libucrtd:nlsdata.obj
 0002:00007fa8       ??_C@_17GGIBDPIH@?$AAS?$AAa?$AAt@ 000000014004afa8     libucrtd:nlsdata.obj
 0002:00007fb0       ??_C@_1O@IHNHDHPB@?$AAS?$AAu?$AAn?$AAd?$AAa?$AAy@ 000000014004afb0     libucrtd:nlsdata.obj
 0002:00007fc0       ??_C@_1O@MMNBFLIA@?$AAM?$AAo?$AAn?$AAd?$AAa?$AAy@ 000000014004afc0     libucrtd:nlsdata.obj
 0002:00007fd0       ??_C@_1BA@ENFBFFEK@?$AAT?$AAu?$AAe?$AAs?$AAd?$AAa?$AAy@ 000000014004afd0     libucrtd:nlsdata.obj
 0002:00007fe0       ??_C@_1BE@EBOGMDOH@?$AAW?$AAe?$AAd?$AAn?$AAe?$AAs?$AAd?$AAa?$AAy@ 000000014004afe0     libucrtd:nlsdata.obj
 0002:00007ff8       ??_C@_1BC@HHMNLIHE@?$AAT?$AAh?$AAu?$AAr?$AAs?$AAd?$AAa?$AAy@ 000000014004aff8     libucrtd:nlsdata.obj
 0002:00008010       ??_C@_1O@PDICJHAG@?$AAF?$AAr?$AAi?$AAd?$AAa?$AAy@ 000000014004b010     libucrtd:nlsdata.obj
 0002:00008020       ??_C@_1BC@ENMNNPAJ@?$AAS?$AAa?$AAt?$AAu?$AAr?$AAd?$AAa?$AAy@ 000000014004b020     libucrtd:nlsdata.obj
 0002:00008038       ??_C@_17DKNBKCHM@?$AAJ?$AAa?$AAn@ 000000014004b038     libucrtd:nlsdata.obj
 0002:00008040       ??_C@_17LMDJEKJN@?$AAF?$AAe?$AAb@ 000000014004b040     libucrtd:nlsdata.obj
 0002:00008048       ??_C@_17CKNLEDEC@?$AAM?$AAa?$AAr@ 000000014004b048     libucrtd:nlsdata.obj
 0002:00008050       ??_C@_17LFPOIHDD@?$AAA?$AAp?$AAr@ 000000014004b050     libucrtd:nlsdata.obj
 0002:00008058       ??_C@_17PNNKMEED@?$AAM?$AAa?$AAy@ 000000014004b058     libucrtd:nlsdata.obj
 0002:00008060       ??_C@_17KCJGOCPB@?$AAJ?$AAu?$AAn@ 000000014004b060     libucrtd:nlsdata.obj
 0002:00008068       ??_C@_17IJPCKHK@?$AAJ?$AAu?$AAl@ 000000014004b068     libucrtd:nlsdata.obj
 0002:00008070       ??_C@_17ICPELBCN@?$AAA?$AAu?$AAg@ 000000014004b070     libucrtd:nlsdata.obj
 0002:00008078       ??_C@_17HCHCOKMG@?$AAS?$AAe?$AAp@ 000000014004b078     libucrtd:nlsdata.obj
 0002:00008080       ??_C@_17FNLKOI@?$AAO?$AAc?$AAt@ 000000014004b080     libucrtd:nlsdata.obj
 0002:00008088       ??_C@_17BBDMLCIG@?$AAN?$AAo?$AAv@ 000000014004b088     libucrtd:nlsdata.obj
 0002:00008090       ??_C@_17EGKACKIF@?$AAD?$AAe?$AAc@ 000000014004b090     libucrtd:nlsdata.obj
 0002:00008098       ??_C@_1BA@EFMEIEBA@?$AAJ?$AAa?$AAn?$AAu?$AAa?$AAr?$AAy@ 000000014004b098     libucrtd:nlsdata.obj
 0002:000080a8       ??_C@_1BC@JGDDFFAM@?$AAF?$AAe?$AAb?$AAr?$AAu?$AAa?$AAr?$AAy@ 000000014004b0a8     libucrtd:nlsdata.obj
 0002:000080c0       ??_C@_1M@IKEENEDF@?$AAM?$AAa?$AAr?$AAc?$AAh@ 000000014004b0c0     libucrtd:nlsdata.obj
 0002:000080d0       ??_C@_1M@GJNLMHFD@?$AAA?$AAp?$AAr?$AAi?$AAl@ 000000014004b0d0     libucrtd:nlsdata.obj
 0002:000080e0       ??_C@_19EPFLPGAP@?$AAJ?$AAu?$AAn?$AAe@ 000000014004b0e0     libucrtd:nlsdata.obj
 0002:000080f0       ??_C@_19BIFMLPCD@?$AAJ?$AAu?$AAl?$AAy@ 000000014004b0f0     libucrtd:nlsdata.obj
 0002:00008100       ??_C@_1O@PAHLKOAC@?$AAA?$AAu?$AAg?$AAu?$AAs?$AAt@ 000000014004b100     libucrtd:nlsdata.obj
 0002:00008110       ??_C@_1BE@DKAAMBJL@?$AAS?$AAe?$AAp?$AAt?$AAe?$AAm?$AAb?$AAe?$AAr@ 000000014004b110     libucrtd:nlsdata.obj
 0002:00008128       ??_C@_1BA@EPANDLNG@?$AAO?$AAc?$AAt?$AAo?$AAb?$AAe?$AAr@ 000000014004b128     libucrtd:nlsdata.obj
 0002:00008138       ??_C@_1BC@BGLIFPF@?$AAN?$AAo?$AAv?$AAe?$AAm?$AAb?$AAe?$AAr@ 000000014004b138     libucrtd:nlsdata.obj
 0002:00008150       ??_C@_1BC@FEMKIFH@?$AAD?$AAe?$AAc?$AAe?$AAm?$AAb?$AAe?$AAr@ 000000014004b150     libucrtd:nlsdata.obj
 0002:00008164       ??_C@_15ODEHAHHF@?$AAA?$AAM@ 000000014004b164     libucrtd:nlsdata.obj
 0002:0000816c       ??_C@_15CLMNNGEL@?$AAP?$AAM@ 000000014004b16c     libucrtd:nlsdata.obj
 0002:00008178       ??_C@_1BC@IEBCMHCM@?$AAM?$AAM?$AA?1?$AAd?$AAd?$AA?1?$AAy?$AAy@ 000000014004b178     libucrtd:nlsdata.obj
 0002:00008190       ??_C@_1CI@KNAKOEBC@?$AAd?$AAd?$AAd?$AAd?$AA?0?$AA?5?$AAM?$AAM?$AAM?$AAM?$AA?5?$AAd?$AAd?$AA?0?$AA?5@ 000000014004b190     libucrtd:nlsdata.obj
 0002:000081b8       ??_C@_1BC@GDGBMEMK@?$AAH?$AAH?$AA?3?$AAm?$AAm?$AA?3?$AAs?$AAs@ 000000014004b1b8     libucrtd:nlsdata.obj
 0002:000081d0       ??_C@_1M@BMHNFIME@?$AAe?$AAn?$AA?9?$AAU?$AAS@ 000000014004b1d0     libucrtd:nlsdata.obj
 0002:000081e0       __newctype                 000000014004b1e0     libucrtd:ctype.obj
 0002:000084e0       __newclmap                 000000014004b4e0     libucrtd:ctype.obj
 0002:00008660       __newcumap                 000000014004b660     libucrtd:ctype.obj
 0002:000087e0       ??_C@_1CI@JELMFMDH@?$AAc?$AA?5?$AA?$DO?$AA?$DN?$AA?5?$AA?9?$AA1?$AA?5?$AA?$CG?$AA?$CG?$AA?5?$AAc?$AA?5?$AA?$DM?$AA?$DN@ 000000014004b7e0     libucrtd:isctype.obj
 0002:00008810       ??_C@_1GG@KPBGDFHJ@?$AAm?$AAi?$AAn?$AAk?$AAe?$AAr?$AAn?$AAe?$AAl?$AA?2?$AAc?$AAr?$AAt?$AAs?$AA?2@ 000000014004b810     libucrtd:isctype.obj
 0002:00008880       ??_C@_1FE@KNPCCODH@?$AA?$CI?$AA?$CC?$AAC?$AAo?$AAr?$AAr?$AAu?$AAp?$AAt?$AAe?$AAd?$AA?5?$AAp?$AAo?$AAi@ 000000014004b880     libucrtd:getstringtypea.obj
 0002:000088e0       ??_C@_1EM@GPJLADAA@?$AAV?$AAC?$AAC?$AAR?$AAT?$AA?2?$AAv?$AAc?$AAr?$AAu?$AAn?$AAt?$AAi?$AAm?$AAe@ 000000014004b8e0     libucrtd:getstringtypea.obj
 0002:00008930       ??_C@_0DJ@HCPJODDK@minkernel?2crts?2ucrt?2src?2appcrt?2@ 000000014004b930     libucrtd:getstringtypea.obj
 0002:00008970       ??_C@_1BKC@NBNHJIDM@?$AA?$CI?$AAp?$AAt?$AAl?$AAo?$AAc?$AAi?$AA?9?$AA?$DO?$AAl?$AAc?$AA_?$AAc?$AAa?$AAt@ 000000014004b970     libucrtd:locale_refcounting.obj
 0002:00008b20       ??_C@_1HK@HCNMEOLA@?$AAm?$AAi?$AAn?$AAk?$AAe?$AAr?$AAn?$AAe?$AAl?$AA?2?$AAc?$AAr?$AAt?$AAs?$AA?2@ 000000014004bb20     libucrtd:locale_refcounting.obj
 0002:00008b9c       ??_C@_15PJPFLCCM@?$AAu?$AAk@ 000000014004bb9c     libucrtd:get_qualified_locale.obj
 0002:00008c50       ??_C@_1EA@JGEFHKEI@?$AAa?$AAp?$AAi?$AA?9?$AAm?$AAs?$AA?9?$AAw?$AAi?$AAn?$AA?9?$AAc?$AAo?$AAr?$AAe@ 000000014004bc50     libucrtd:winapi_thunks.obj
 0002:00008c90       ??_C@_1DI@IJCEHOCB@?$AAa?$AAp?$AAi?$AA?9?$AAm?$AAs?$AA?9?$AAw?$AAi?$AAn?$AA?9?$AAc?$AAo?$AAr?$AAe@ 000000014004bc90     libucrtd:winapi_thunks.obj
 0002:00008cd0       ??_C@_1EI@MPIAOHOC@?$AAa?$AAp?$AAi?$AA?9?$AAm?$AAs?$AA?9?$AAw?$AAi?$AAn?$AA?9?$AAc?$AAo?$AAr?$AAe@ 000000014004bcd0     libucrtd:winapi_thunks.obj
 0002:00008d20       ??_C@_1FK@FPHCKFIE@?$AAa?$AAp?$AAi?$AA?9?$AAm?$AAs?$AA?9?$AAw?$AAi?$AAn?$AA?9?$AAc?$AAo?$AAr?$AAe@ 000000014004bd20     libucrtd:winapi_thunks.obj
 0002:00008d80       ??_C@_1EM@DILCGIIO@?$AAa?$AAp?$AAi?$AA?9?$AAm?$AAs?$AA?9?$AAw?$AAi?$AAn?$AA?9?$AAc?$AAo?$AAr?$AAe@ 000000014004bd80     libucrtd:winapi_thunks.obj
 0002:00008dd0       ??_C@_1DM@LNCGDDPN@?$AAa?$AAp?$AAi?$AA?9?$AAm?$AAs?$AA?9?$AAw?$AAi?$AAn?$AA?9?$AAc?$AAo?$AAr?$AAe@ 000000014004bdd0     libucrtd:winapi_thunks.obj
 0002:00008e10       ??_C@_1DO@FPAPJEMD@?$AAa?$AAp?$AAi?$AA?9?$AAm?$AAs?$AA?9?$AAw?$AAi?$AAn?$AA?9?$AAc?$AAo?$AAr?$AAe@ 000000014004be10     libucrtd:winapi_thunks.obj
 0002:00008e50       ??_C@_1DK@NDHNAHIO@?$AAa?$AAp?$AAi?$AA?9?$AAm?$AAs?$AA?9?$AAw?$AAi?$AAn?$AA?9?$AAc?$AAo?$AAr?$AAe@ 000000014004be50     libucrtd:winapi_thunks.obj
 0002:00008e90       ??_C@_1DM@KGHDGBCM@?$AAa?$AAp?$AAi?$AA?9?$AAm?$AAs?$AA?9?$AAw?$AAi?$AAn?$AA?9?$AAc?$AAo?$AAr?$AAe@ 000000014004be90     libucrtd:winapi_thunks.obj
 0002:00008ed0       ??_C@_1EO@IJIOEFOH@?$AAa?$AAp?$AAi?$AA?9?$AAm?$AAs?$AA?9?$AAw?$AAi?$AAn?$AA?9?$AAr?$AAt?$AAc?$AAo@ 000000014004bed0     libucrtd:winapi_thunks.obj
 0002:00008f20       ??_C@_1FG@HHGEKANL@?$AAa?$AAp?$AAi?$AA?9?$AAm?$AAs?$AA?9?$AAw?$AAi?$AAn?$AA?9?$AAs?$AAe?$AAc?$AAu@ 000000014004bf20     libucrtd:winapi_thunks.obj
 0002:00008f80       ??_C@_1EG@DBIOJECG@?$AAe?$AAx?$AAt?$AA?9?$AAm?$AAs?$AA?9?$AAw?$AAi?$AAn?$AA?9?$AAn?$AAt?$AAu?$AAs@ 000000014004bf80     libucrtd:winapi_thunks.obj
 0002:00008fd0       ??_C@_1EO@FIHMJCLF@?$AAe?$AAx?$AAt?$AA?9?$AAm?$AAs?$AA?9?$AAw?$AAi?$AAn?$AA?9?$AAn?$AAt?$AAu?$AAs@ 000000014004bfd0     libucrtd:winapi_thunks.obj
 0002:00009020       ??_C@_1BC@DNHGCMLG@?$AAa?$AAd?$AAv?$AAa?$AAp?$AAi?$AA3?$AA2@ 000000014004c020     libucrtd:winapi_thunks.obj
 0002:00009038       ??_C@_1M@OAIMIKLP@?$AAn?$AAt?$AAd?$AAl?$AAl@ 000000014004c038     libucrtd:winapi_thunks.obj
 0002:00009050       ??_C@_1EG@DPGNFKGC@?$AAa?$AAp?$AAi?$AA?9?$AAm?$AAs?$AA?9?$AAw?$AAi?$AAn?$AA?9?$AAa?$AAp?$AAp?$AAm@ 000000014004c050     libucrtd:winapi_thunks.obj
 0002:00009098       ??_C@_1O@BCCLBEOE@?$AAu?$AAs?$AAe?$AAr?$AA3?$AA2@ 000000014004c098     libucrtd:winapi_thunks.obj
 0002:000090a8       ??_C@_1BA@IAIFMGEF@?$AAe?$AAx?$AAt?$AA?9?$AAm?$AAs?$AA?9@ 000000014004c0a8     libucrtd:winapi_thunks.obj
 0002:000090c0       ??_C@_1HE@OILMBOBA@?$AAm?$AAi?$AAn?$AAk?$AAe?$AAr?$AAn?$AAe?$AAl?$AA?2?$AAc?$AAr?$AAt?$AAs?$AA?2@ 000000014004c0c0     libucrtd:winapi_thunks.obj
 0002:00009138       ??_C@_0BA@FHFNEAED@AreFileApisANSI@ 000000014004c138     libucrtd:winapi_thunks.obj
 0002:00009150       ??_C@_0BA@HNOPNCHB@GetActiveWindow@ 000000014004c150     libucrtd:winapi_thunks.obj
 0002:00009168       ??_C@_0BD@HHGDFDBJ@GetLastActivePopup@ 000000014004c168     libucrtd:winapi_thunks.obj
 0002:00009188       ??_C@_0BI@DFKBFLJE@GetProcessWindowStation@ 000000014004c188     libucrtd:winapi_thunks.obj
 0002:000091a8       ??_C@_0BK@DEKFELLI@GetUserObjectInformationW@ 000000014004c1a8     libucrtd:winapi_thunks.obj
 0002:000091d8       ??_C@_0O@KKBNKAPF@LCMapStringEx@ 000000014004c1d8     libucrtd:winapi_thunks.obj
 0002:000091f0       ??_C@_0BB@HBDEELFH@LocaleNameToLCID@ 000000014004c1f0     libucrtd:winapi_thunks.obj
 0002:00009210       ??_C@_0M@CHKKJDAI@MessageBoxA@ 000000014004c210     libucrtd:winapi_thunks.obj
 0002:00009228       ??_C@_0M@DLDCCGNP@MessageBoxW@ 000000014004c228     libucrtd:winapi_thunks.obj
 0002:00009238       ??_C@_0CF@OJOFEIGO@AppPolicyGetProcessTerminationM@ 000000014004c238     libucrtd:winapi_thunks.obj
 0002:00009268       ??_C@_0CE@OICFMIKE@AppPolicyGetShowDeveloperDiagno@ 000000014004c268     libucrtd:winapi_thunks.obj
 0002:00009290       ??_C@_0BL@ODDJNEDA@AppPolicyGetWindowingModel@ 000000014004c290     libucrtd:winapi_thunks.obj
 0002:000092d8       ??_C@_1DA@NBILLKNO@?$AAl?$AAo?$AAc?$AAa?$AAl?$AA_?$AAa?$AAc?$AAt?$AAi?$AAo?$AAn?$AA?5?$AA?$CB?$AA?$DN@ 000000014004c2d8     libucrtd:signal.obj
 0002:00009310       ??_C@_1FO@CCGDPEKE@?$AAm?$AAi?$AAn?$AAk?$AAe?$AAr?$AAn?$AAe?$AAl?$AA?2?$AAc?$AAr?$AAt?$AAs?$AA?2@ 000000014004c310     libucrtd:signal.obj
 0002:00009370       ??_C@_1M@DMJEIKHL@?$AAr?$AAa?$AAi?$AAs?$AAe@ 000000014004c370     libucrtd:signal.obj
 0002:00009380       ??_C@_1DO@MLNEDKGB@?$AA?$CI?$AA?$CC?$AAI?$AAn?$AAv?$AAa?$AAl?$AAi?$AAd?$AA?5?$AAs?$AAi?$AAg?$AAn?$AAa@ 000000014004c380     libucrtd:signal.obj
 0002:000093c0       ??_C@_1DC@OGOLMDEL@?$AAp?$AAu?$AAb?$AAl?$AAi?$AAc?$AA_?$AAs?$AAt?$AAr?$AAe?$AAa?$AAm?$AA?5?$AA?$CB@ 000000014004c3c0     libucrtd:_sftbuf.obj
 0002:00009400       ??_C@_1FO@GEKPJHID@?$AAm?$AAi?$AAn?$AAk?$AAe?$AAr?$AAn?$AAe?$AAl?$AA?2?$AAc?$AAr?$AAt?$AAs?$AA?2@ 000000014004c400     libucrtd:expand.obj
 0002:00009460       ??_C@_1BK@JMCGJOCC@?$AA_?$AAe?$AAx?$AAp?$AAa?$AAn?$AAd?$AA_?$AAb?$AAa?$AAs?$AAe@ 000000014004c460     libucrtd:expand.obj
 0002:00009480       ??_C@_1GA@LFAOKOOP@?$AAm?$AAi?$AAn?$AAk?$AAe?$AAr?$AAn?$AAe?$AAl?$AA?2?$AAc?$AAr?$AAt?$AAs?$AA?2@ 000000014004c480     libucrtd:dbgrptt.obj
 0002:000094e0       ??_C@_1CA@KHJHLKA@?$AA_?$AAV?$AAC?$AAr?$AAt?$AAD?$AAb?$AAg?$AAR?$AAe?$AAp?$AAo?$AAr?$AAt?$AAA@ 000000014004c4e0     libucrtd:dbgrptt.obj
 0002:00009500       ??_C@_1FA@JPHJBHEM@?$AA_?$AAi?$AAt?$AAo?$AAa?$AA_?$AAs?$AA?$CI?$AAn?$AAL?$AAi?$AAn?$AAe?$AA?0?$AA?5@ 000000014004c500     libucrtd:dbgrptt.obj
 0002:00009550       ??_C@_0CG@BNGLOCEO@Second?5Chance?5Assertion?5Failed?3@ 000000014004c550     libucrtd:dbgrptt.obj
 0002:00009578       ??_C@_0P@DFJNDPOP@?$DMfile?5unknown?$DO@ 000000014004c578     libucrtd:dbgrptt.obj
 0002:00009588       ??_C@_07BHGABMGB@?0?5Line?5@ 000000014004c588     libucrtd:dbgrptt.obj
 0002:00009590       ??_C@_01EEMJAFIK@?6@       000000014004c590     libucrtd:dbgrptt.obj
 0002:000095a0       ??_C@_1JI@GAALPGBM@?$AAs?$AAt?$AAr?$AAc?$AAp?$AAy?$AA_?$AAs?$AA?$CI?$AAs?$AAz?$AAU?$AAs?$AAe?$AAr@ 000000014004c5a0     libucrtd:dbgrptt.obj
 0002:00009638       ??_C@_0CL@EACFGMNB@_CrtDbgReport?3?5String?5too?5long?5@ 000000014004c638     libucrtd:dbgrptt.obj
 0002:00009670       ??_C@_1KK@GIGAEDMO@?$AAs?$AAt?$AAr?$AAc?$AAp?$AAy?$AA_?$AAs?$AA?$CI?$AAs?$AAz?$AAL?$AAi?$AAn?$AAe@ 000000014004c670     libucrtd:dbgrptt.obj
 0002:00009720       ??_C@_0BD@CAENFOHP@Assertion?5failed?3?5@ 000000014004c720     libucrtd:dbgrptt.obj
 0002:00009738       ??_C@_0BC@LAIDCHCH@Assertion?5failed?$CB@ 000000014004c738     libucrtd:dbgrptt.obj
 0002:00009750       ??_C@_1FK@NPGBPOFO@?$AAs?$AAt?$AAr?$AAc?$AAa?$AAt?$AA_?$AAs?$AA?$CI?$AAs?$AAz?$AAL?$AAi?$AAn?$AAe@ 000000014004c750     libucrtd:dbgrptt.obj
 0002:000097b0       ??_C@_1EI@CACDLAFK@?$AAs?$AAt?$AAr?$AAc?$AAa?$AAt?$AA_?$AAs?$AA?$CI?$AAs?$AAz?$AAL?$AAi?$AAn?$AAe@ 000000014004c7b0     libucrtd:dbgrptt.obj
 0002:000097f8       ??_C@_01LIIJDEN@?$AN@      000000014004c7f8     libucrtd:dbgrptt.obj
 0002:00009800       ??_C@_1EI@LDHJEDO@?$AAs?$AAt?$AAr?$AAc?$AAa?$AAt?$AA_?$AAs?$AA?$CI?$AAs?$AAz?$AAL?$AAi?$AAn?$AAe@ 000000014004c800     libucrtd:dbgrptt.obj
 0002:00009848       ??_C@_0M@IPILFDFN@?$CFs?$CI?$CFd?$CJ?5?3?5?$CFs@ 000000014004c848     libucrtd:dbgrptt.obj
 0002:00009860       ??_C@_1JG@CPKCIOEE@?$AAs?$AAt?$AAr?$AAc?$AAp?$AAy?$AA_?$AAs?$AA?$CI?$AAs?$AAz?$AAO?$AAu?$AAt?$AAM@ 000000014004c860     libucrtd:dbgrptt.obj
 0002:00009900       ??_C@_1FI@IBIOIHEG@?$AAs?$AAt?$AAr?$AAc?$AAp?$AAy?$AA_?$AAs?$AA?$CI?$AAs?$AAz?$AAO?$AAu?$AAt?$AAM@ 000000014004c900     libucrtd:dbgrptt.obj
 0002:00009960       ??_C@_1IM@OOKIFKOH@?$AAe?$AA?5?$AA?$DN?$AA?5?$AAm?$AAb?$AAs?$AAt?$AAo?$AAw?$AAc?$AAs?$AA_?$AAs?$AA?$CI@ 000000014004c960     libucrtd:dbgrptt.obj
 0002:000099f0       ??_C@_1MC@IGEECMDB@?$AAw?$AAc?$AAs?$AAc?$AAp?$AAy?$AA_?$AAs?$AA?$CI?$AAs?$AAz?$AAO?$AAu?$AAt?$AAM@ 000000014004c9f0     libucrtd:dbgrptt.obj
 0002:00009ac0       ??_C@_1HO@PJOFIKFE@?$AA_?$AAC?$AAr?$AAt?$AAD?$AAb?$AAg?$AAR?$AAe?$AAp?$AAo?$AAr?$AAt?$AA?3?$AA?5@ 000000014004cac0     libucrtd:dbgrptt.obj
 0002:00009b40       ??_C@_1CA@HPALHDOD@?$AA_?$AAV?$AAC?$AAr?$AAt?$AAD?$AAb?$AAg?$AAR?$AAe?$AAp?$AAo?$AAr?$AAt?$AAW@ 000000014004cb40     libucrtd:dbgrptt.obj
 0002:00009b60       ??_C@_1FA@CNLLOMHI@?$AA_?$AAi?$AAt?$AAo?$AAw?$AA_?$AAs?$AA?$CI?$AAn?$AAL?$AAi?$AAn?$AAe?$AA?0?$AA?5@ 000000014004cb60     libucrtd:dbgrptt.obj
 0002:00009bb0       ??_C@_1EM@MJFLEDMB@?$AAS?$AAe?$AAc?$AAo?$AAn?$AAd?$AA?5?$AAC?$AAh?$AAa?$AAn?$AAc?$AAe?$AA?5?$AAA@ 000000014004cbb0     libucrtd:dbgrptt.obj
 0002:00009c00       ??_C@_1BO@OCHMLCAG@?$AA?$DM?$AAf?$AAi?$AAl?$AAe?$AA?5?$AAu?$AAn?$AAk?$AAn?$AAo?$AAw?$AAn?$AA?$DO@ 000000014004cc00     libucrtd:dbgrptt.obj
 0002:00009c20       ??_C@_1BA@ELMMDCFC@?$AA?0?$AA?5?$AAL?$AAi?$AAn?$AAe?$AA?5@ 000000014004cc20     libucrtd:dbgrptt.obj
 0002:00009c30       ??_C@_13LBAGMAIH@?$AA?6@   000000014004cc30     libucrtd:dbgrptt.obj
 0002:00009c40       ??_C@_1JK@KHFABAEO@?$AAw?$AAc?$AAs?$AAc?$AAp?$AAy?$AA_?$AAs?$AA?$CI?$AAs?$AAz?$AAU?$AAs?$AAe?$AAr@ 000000014004cc40     libucrtd:dbgrptt.obj
 0002:00009ce0       ??_C@_1KO@DGAHENCH@?$AAw?$AAc?$AAs?$AAc?$AAp?$AAy?$AA_?$AAs?$AA?$CI?$AAs?$AAz?$AAL?$AAi?$AAn?$AAe@ 000000014004cce0     libucrtd:dbgrptt.obj
 0002:00009d90       ??_C@_1CG@FFFGGODN@?$AAA?$AAs?$AAs?$AAe?$AAr?$AAt?$AAi?$AAo?$AAn?$AA?5?$AAf?$AAa?$AAi?$AAl?$AAe@ 000000014004cd90     libucrtd:dbgrptt.obj
 0002:00009db8       ??_C@_1CE@OJBNHDMO@?$AAA?$AAs?$AAs?$AAe?$AAr?$AAt?$AAi?$AAo?$AAn?$AA?5?$AAf?$AAa?$AAi?$AAl?$AAe@ 000000014004cdb8     libucrtd:dbgrptt.obj
 0002:00009de0       ??_C@_1FK@HPADHBBD@?$AAw?$AAc?$AAs?$AAc?$AAa?$AAt?$AA_?$AAs?$AA?$CI?$AAs?$AAz?$AAL?$AAi?$AAn?$AAe@ 000000014004cde0     libucrtd:dbgrptt.obj
 0002:00009e40       ??_C@_1EK@NMDFGHMF@?$AAw?$AAc?$AAs?$AAc?$AAa?$AAt?$AA_?$AAs?$AA?$CI?$AAs?$AAz?$AAL?$AAi?$AAn?$AAe@ 000000014004ce40     libucrtd:dbgrptt.obj
 0002:00009e8c       ??_C@_13CMNBPIDO@?$AA?$AN@ 000000014004ce8c     libucrtd:dbgrptt.obj
 0002:00009e90       ??_C@_1EK@PHCBEDKB@?$AAw?$AAc?$AAs?$AAc?$AAa?$AAt?$AA_?$AAs?$AA?$CI?$AAs?$AAz?$AAL?$AAi?$AAn?$AAe@ 000000014004ce90     libucrtd:dbgrptt.obj
 0002:00009ee0       ??_C@_1BM@GIBPMLNL@?$AA?$CF?$AAl?$AAs?$AA?$CI?$AA?$CF?$AAd?$AA?$CJ?$AA?5?$AA?3?$AA?5?$AA?$CF?$AAl?$AAs@ 000000014004cee0     libucrtd:dbgrptt.obj
 0002:00009f00       ??_C@_1JI@EACPGHID@?$AAw?$AAc?$AAs?$AAc?$AAp?$AAy?$AA_?$AAs?$AA?$CI?$AAs?$AAz?$AAO?$AAu?$AAt?$AAM@ 000000014004cf00     libucrtd:dbgrptt.obj
 0002:00009fa0       ??_C@_1FI@DBAIJPJE@?$AAw?$AAc?$AAs?$AAc?$AAp?$AAy?$AA_?$AAs?$AA?$CI?$AAs?$AAz?$AAO?$AAu?$AAt?$AAM@ 000000014004cfa0     libucrtd:dbgrptt.obj
 0002:0000a000       ??_C@_1IK@LEBMBAP@?$AAw?$AAc?$AAs?$AAt?$AAo?$AAm?$AAb?$AAs?$AA_?$AAs?$AA?$CI?$AAn?$AAu?$AAl?$AAl@ 000000014004d000     libucrtd:dbgrptt.obj
 0002:0000a090       ??_C@_1MA@LBAMNNOB@?$AAs?$AAt?$AAr?$AAc?$AAp?$AAy?$AA_?$AAs?$AA?$CI?$AAs?$AAz?$AAO?$AAu?$AAt?$AAM@ 000000014004d090     libucrtd:dbgrptt.obj
 0002:0000a150       ??_C@_0DP@GNPEPHJD@_CrtDbgReport?3?5String?5too?5long?5@ 000000014004d150     libucrtd:dbgrptt.obj
 0002:0000a190       ??_C@_1IE@CPGKIAGP@?$AAw?$AAc?$AAs?$AAt?$AAo?$AAm?$AAb?$AAs?$AA_?$AAs?$AA?$CI?$AA?$CG?$AAr?$AAe?$AAt@ 000000014004d190     libucrtd:dbgrptt.obj
 0002:0000a2a0       ??_C@_03OEIAHPBN@INF@      000000014004d2a0     libucrtd:cvt.obj
 0002:0000a2a4       ??_C@_03OJHLLCGB@inf@      000000014004d2a4     libucrtd:cvt.obj
 0002:0000a2a8       ??_C@_03LKNCIKJB@NAN@      000000014004d2a8     libucrtd:cvt.obj
 0002:0000a2ac       ??_C@_03LHCJEHON@nan@      000000014004d2ac     libucrtd:cvt.obj
 0002:0000a2b0       ??_C@_09OFJJIMPC@NAN?$CISNAN?$CJ@ 000000014004d2b0     libucrtd:cvt.obj
 0002:0000a2c0       ??_C@_09IPFBKMDL@nan?$CIsnan?$CJ@ 000000014004d2c0     libucrtd:cvt.obj
 0002:0000a2d0       ??_C@_08IKHNHAJ@NAN?$CIIND?$CJ@ 000000014004d2d0     libucrtd:cvt.obj
 0002:0000a2e0       ??_C@_08OFCDMILK@nan?$CIind?$CJ@ 000000014004d2e0     libucrtd:cvt.obj
 0002:0000a2f0       ??_C@_1FO@GKAKAPLI@?$AAm?$AAi?$AAn?$AAk?$AAe?$AAr?$AAn?$AAe?$AAl?$AA?2?$AAc?$AAr?$AAt?$AAs?$AA?2@ 000000014004d2f0     libucrtd:cvt.obj
 0002:0000a350       ??_C@_1DE@EHGIGIDK@?$AAf?$AAp?$AA_?$AAf?$AAo?$AAr?$AAm?$AAa?$AAt?$AA_?$AAn?$AAa?$AAn?$AA_?$AAo@ 000000014004d350     libucrtd:cvt.obj
 0002:0000a390       ??_C@_1LI@PCMLJPCO@?$AAs?$AAt?$AAr?$AAc?$AAp?$AAy?$AA_?$AAs?$AA?$CI?$AA?5?$AAr?$AAe?$AAs?$AAu?$AAl@ 000000014004d390     libucrtd:cvt.obj
 0002:0000a450       ??_C@_1KO@LJHOFBCD@?$AAr?$AAe?$AAs?$AAu?$AAl?$AAt?$AA_?$AAb?$AAu?$AAf?$AAf?$AAe?$AAr?$AA_?$AAc@ 000000014004d450     libucrtd:cvt.obj
 0002:0000a500       ??_C@_1CK@BOLHOMFO@?$AAf?$AAp?$AA_?$AAf?$AAo?$AAr?$AAm?$AAa?$AAt?$AA_?$AAe?$AA_?$AAi?$AAn?$AAt@ 000000014004d500     libucrtd:cvt.obj
 0002:0000a530       ??_C@_1BBE@LHDOMEDC@?$AAs?$AAt?$AAr?$AAc?$AAp?$AAy?$AA_?$AAs?$AA?$CI?$AA?5?$AAp?$AA?0?$AA?5?$AAr?$AAe@ 000000014004d530     libucrtd:cvt.obj
 0002:0000a644       ??_C@_05KLBDPFGC@e?$CL000@ 000000014004d644     libucrtd:cvt.obj
 0002:0000a650       ??_C@_1IC@FILKPBAB@?$AAr?$AAe?$AAs?$AAu?$AAl?$AAt?$AA_?$AAb?$AAu?$AAf?$AAf?$AAe?$AAr?$AA_?$AAc@ 000000014004d650     libucrtd:cvt.obj
 0002:0000a6d8       ??_C@_1BI@PNBDLNBB@?$AAf?$AAp?$AA_?$AAf?$AAo?$AAr?$AAm?$AAa?$AAt?$AA_?$AAa@ 000000014004d6d8     libucrtd:cvt.obj
 0002:0000a6f0       ??_C@_1DC@MGKAFPFD@?$AAr?$AAe?$AAs?$AAu?$AAl?$AAt?$AA_?$AAb?$AAu?$AAf?$AAf?$AAe?$AAr?$AA?5?$AA?$CB@ 000000014004d6f0     libucrtd:cvt.obj
 0002:0000a728       ??_C@_1CC@LDAHJAKK@?$AA_?$AA_?$AAa?$AAc?$AAr?$AAt?$AA_?$AAf?$AAp?$AA_?$AAf?$AAo?$AAr?$AAm?$AAa@ 000000014004d728     libucrtd:cvt.obj
 0002:0000a750       ??_C@_1DA@NMLJJOCO@?$AAr?$AAe?$AAs?$AAu?$AAl?$AAt?$AA_?$AAb?$AAu?$AAf?$AAf?$AAe?$AAr?$AA_?$AAc@ 000000014004d750     libucrtd:cvt.obj
 0002:0000a780       ??_C@_1DE@MNOPBCOK@?$AAs?$AAc?$AAr?$AAa?$AAt?$AAc?$AAh?$AA_?$AAb?$AAu?$AAf?$AAf?$AAe?$AAr?$AA?5@ 000000014004d780     libucrtd:cvt.obj
 0002:0000a7b8       ??_C@_1DC@CKBKNFKH@?$AAs?$AAc?$AAr?$AAa?$AAt?$AAc?$AAh?$AA_?$AAb?$AAu?$AAf?$AAf?$AAe?$AAr?$AA_@ 000000014004d7b8     libucrtd:cvt.obj
 0002:0000a7f0       ??_C@_1EI@JAHBOGIM@?$AA?$CI?$AA?$CC?$AAU?$AAn?$AAs?$AAu?$AAp?$AAp?$AAo?$AAr?$AAt?$AAe?$AAd?$AA?5?$AAf@ 000000014004d7f0     libucrtd:cvt.obj
 0002:0000a838       ??_C@_1DK@NBNOAGKB@?$AAd?$AAe?$AAs?$AAt?$AAi?$AAn?$AAa?$AAt?$AAi?$AAo?$AAn?$AA_?$AAc?$AAo?$AAu@ 000000014004d838     libucrtd:wctomb.obj
 0002:0000a880       ??_C@_1GE@FCCEPHFG@?$AAm?$AAi?$AAn?$AAk?$AAe?$AAr?$AAn?$AAe?$AAl?$AA?2?$AAc?$AAr?$AAt?$AAs?$AA?2@ 000000014004d880     libucrtd:wctomb.obj
 0002:0000a8e8       ??_C@_1CC@DNLKBKLK@?$AA_?$AAw?$AAc?$AAt?$AAo?$AAm?$AAb?$AA_?$AAi?$AAn?$AAt?$AAe?$AAr?$AAn?$AAa@ 000000014004d8e8     libucrtd:wctomb.obj
 0002:0000a910       ??_C@_1CM@ENFEGCNE@?$AAd?$AAe?$AAs?$AAt?$AAi?$AAn?$AAa?$AAt?$AAi?$AAo?$AAn?$AA_?$AAc?$AAo?$AAu@ 000000014004d910     libucrtd:wctomb.obj
 0002:0000a940       ??_C@_1MK@HFAFPEDL@?$AAl?$AAo?$AAc?$AAa?$AAl?$AAe?$AA?9?$AA?$DO?$AAl?$AAo?$AAc?$AAi?$AAn?$AAf?$AAo@ 000000014004d940     libucrtd:mbtowc.obj
 0002:0000aa10       ??_C@_1GE@CGIHMDEJ@?$AAm?$AAi?$AAn?$AAk?$AAe?$AAr?$AAn?$AAe?$AAl?$AA?2?$AAc?$AAr?$AAt?$AAs?$AA?2@ 000000014004da10     libucrtd:mbtowc.obj
 0002:0000aa80       ??_C@_1HA@KNBGJAIN@?$AAU?$AAT?$AAF?$AA?9?$AA8?$AA?5?$AAi?$AAs?$AAn?$AA?8?$AAt?$AA?5?$AAs?$AAu?$AAp@ 000000014004da80     libucrtd:mbtowc.obj
 0002:0000aaf0       ??_C@_1OM@FCINAOPP@?$AAl?$AAo?$AAc?$AAa?$AAl?$AAe?$AA?9?$AA?$DO?$AAl?$AAo?$AAc?$AAi?$AAn?$AAf?$AAo@ 000000014004daf0     libucrtd:mbtowc.obj
 0002:0000abe0       ??_C@_1GA@CPNOFAH@?$AAl?$AAo?$AAc?$AAa?$AAl?$AAe?$AA?9?$AA?$DO?$AAl?$AAo?$AAc?$AAi?$AAn?$AAf?$AAo@ 000000014004dbe0     libucrtd:mbtowc.obj
 0002:0000ac40       ??_C@_1BO@MHPFFFJJ@?$AAs?$AAt?$AAr?$AAe?$AAa?$AAm?$AA?4?$AAv?$AAa?$AAl?$AAi?$AAd?$AA?$CI?$AA?$CJ@ 000000014004dc40     libucrtd:fileno.obj
 0002:0000ac60       ??_C@_1GA@KCAHHNGP@?$AAm?$AAi?$AAn?$AAk?$AAe?$AAr?$AAn?$AAe?$AAl?$AA?2?$AAc?$AAr?$AAt?$AAs?$AA?2@ 000000014004dc60     libucrtd:fileno.obj
 0002:0000acc0       ??_C@_1BA@JGHIEKKM@?$AA_?$AAf?$AAi?$AAl?$AAe?$AAn?$AAo@ 000000014004dcc0     libucrtd:fileno.obj
 0002:0000acd0       ??_C@_0CP@GDJHIDC@minkernel?2crts?2ucrt?2src?2appcrt?2@ 000000014004dcd0     libucrtd:_file.obj
 0002:0000ad10       ??_C@_05HGHHAHAP@log10@    000000014004dd10     libucrtd:fpexcept.obj
 0002:0000ad40       ??_C@_1DI@OOEEHOBJ@?$AAb?$AAa?$AAs?$AAe?$AA?5?$AA?$CB?$AA?$DN?$AA?5?$AAn?$AAu?$AAl?$AAl?$AAp?$AAt?$AAr@ 000000014004dd40     libucrtd:qsort.obj
 0002:0000ad80       ??_C@_1GA@KPPCKKGE@?$AAm?$AAi?$AAn?$AAk?$AAe?$AAr?$AAn?$AAe?$AAl?$AA?2?$AAc?$AAr?$AAt?$AAs?$AA?2@ 000000014004dd80     libucrtd:qsort.obj
 0002:0000ade0       ??_C@_1M@INMHODIG@?$AAq?$AAs?$AAo?$AAr?$AAt@ 000000014004dde0     libucrtd:qsort.obj
 0002:0000adf0       ??_C@_1BE@NJBEBBME@?$AAw?$AAi?$AAd?$AAt?$AAh?$AA?5?$AA?$DO?$AA?5?$AA0@ 000000014004ddf0     libucrtd:qsort.obj
 0002:0000ae08       ??_C@_1CA@LIDFOMIN@?$AAc?$AAo?$AAm?$AAp?$AA?5?$AA?$CB?$AA?$DN?$AA?5?$AAn?$AAu?$AAl?$AAl?$AAp?$AAt?$AAr@ 000000014004de08     libucrtd:qsort.obj
 0002:0000ae28       ??_C@_1CE@BLLJFLOH@?$AAs?$AAt?$AAr?$AAi?$AAn?$AAg?$AA?5?$AA?$CB?$AA?$DN?$AA?5?$AAn?$AAu?$AAl?$AAl?$AAp@ 000000014004de28     libucrtd:mbsdec.obj
 0002:0000ae50       ??_C@_1GO@DDOMFNGF@?$AAm?$AAi?$AAn?$AAk?$AAe?$AAr?$AAn?$AAe?$AAl?$AA?2?$AAc?$AAr?$AAt?$AAs?$AA?2@ 000000014004de50     libucrtd:mbsdec.obj
 0002:0000aec0       ??_C@_1BE@KLNCOLCD@?$AA_?$AAm?$AAb?$AAs?$AAd?$AAe?$AAc?$AA_?$AAl@ 000000014004dec0     libucrtd:mbsdec.obj
 0002:0000aed8       ??_C@_1CG@CMGPGAOD@?$AAc?$AAu?$AAr?$AAr?$AAe?$AAn?$AAt?$AA?5?$AA?$CB?$AA?$DN?$AA?5?$AAn?$AAu?$AAl?$AAl@ 000000014004ded8     libucrtd:mbsdec.obj
 0002:0000af00       ??_C@_0DH@IKPCBLP@minkernel?2crts?2ucrt?2src?2appcrt?2@ 000000014004df00     libucrtd:lcmapstringa.obj
 0002:0000af38       ??_C@_1CE@MCCHPLBM@?$AAb?$AAu?$AAf?$AAf?$AAe?$AAr?$AA?5?$AA?$CB?$AA?$DN?$AA?5?$AAn?$AAu?$AAl?$AAl?$AAp@ 000000014004df38     libucrtd:xtoa.obj
 0002:0000af60       ??_C@_1GA@HBEFGMHK@?$AAm?$AAi?$AAn?$AAk?$AAe?$AAr?$AAn?$AAe?$AAl?$AA?2?$AAc?$AAr?$AAt?$AAs?$AA?2@ 000000014004df60     libucrtd:xtoa.obj
 0002:0000afc0       ??_C@_1BM@HMPEMLNP@?$AAc?$AAo?$AAm?$AAm?$AAo?$AAn?$AA_?$AAx?$AAt?$AAo?$AAx?$AA_?$AAs@ 000000014004dfc0     libucrtd:xtoa.obj
 0002:0000afe0       ??_C@_1CC@ONIJBMJF@?$AAb?$AAu?$AAf?$AAf?$AAe?$AAr?$AA_?$AAc?$AAo?$AAu?$AAn?$AAt?$AA?5?$AA?$DO?$AA?5@ 000000014004dfe0     libucrtd:xtoa.obj
 0002:0000b010       ??_C@_1HA@JFIOFNKD@?$AAb?$AAu?$AAf?$AAf?$AAe?$AAr?$AA_?$AAc?$AAo?$AAu?$AAn?$AAt?$AA?5?$AA?$DO?$AA?5@ 000000014004e010     libucrtd:xtoa.obj
 0002:0000b080       ??_C@_1DE@PCJGDBBD@?$AA2?$AA?5?$AA?$DM?$AA?$DN?$AA?5?$AAr?$AAa?$AAd?$AAi?$AAx?$AA?5?$AA?$CG?$AA?$CG?$AA?5?$AAr@ 000000014004e080     libucrtd:xtoa.obj
 0002:0000b0b8       ??_C@_1CM@LONILNIJ@?$AAl?$AAe?$AAn?$AAg?$AAt?$AAh?$AA?5?$AA?$DM?$AA?5?$AAb?$AAu?$AAf?$AAf?$AAe?$AAr@ 000000014004e0b8     libucrtd:xtoa.obj
 0002:0000b0e8       ??_C@_1BI@OLPLFKOE@?$AAc?$AAo?$AAm?$AAm?$AAo?$AAn?$AA_?$AAx?$AAt?$AAo?$AAx@ 000000014004e0e8     libucrtd:xtoa.obj
 0002:0000bf40       ??_C@_15EMKDOKLE@?$AAa?$AAr@ 000000014004ef40     libucrtd:lcidtoname_downlevel.obj
 0002:0000bf48       ??_C@_15KNPADPLH@?$AAb?$AAg@ 000000014004ef48     libucrtd:lcidtoname_downlevel.obj
 0002:0000bf50       ??_C@_15EDMHLDMO@?$AAc?$AAa@ 000000014004ef50     libucrtd:lcidtoname_downlevel.obj
 0002:0000bf58       ??_C@_1O@BPEAJADD@?$AAz?$AAh?$AA?9?$AAC?$AAH?$AAS@ 000000014004ef58     libucrtd:lcidtoname_downlevel.obj
 0002:0000bf68       ??_C@_15LJNHCMNK@?$AAc?$AAs@ 000000014004ef68     libucrtd:lcidtoname_downlevel.obj
 0002:0000bf70       ??_C@_15FOMCIDHG@?$AAd?$AAa@ 000000014004ef70     libucrtd:lcidtoname_downlevel.obj
 0002:0000bf78       ??_C@_15NBKABECB@?$AAd?$AAe@ 000000014004ef78     libucrtd:lcidtoname_downlevel.obj
 0002:0000bf80       ??_C@_15GHPEIIAO@?$AAe?$AAl@ 000000014004ef80     libucrtd:lcidtoname_downlevel.obj
 0002:0000bf88       ??_C@_15MNPNEAIF@?$AAe?$AAn@ 000000014004ef88     libucrtd:lcidtoname_downlevel.obj
 0002:0000bf90       ??_C@_15GPIOMPMH@?$AAe?$AAs@ 000000014004ef90     libucrtd:lcidtoname_downlevel.obj
 0002:0000bf98       ??_C@_15NGLOAKJC@?$AAf?$AAi@ 000000014004ef98     libucrtd:lcidtoname_downlevel.obj
 0002:0000bfa0       ??_C@_15FBKGNKAM@?$AAf?$AAr@ 000000014004efa0     libucrtd:lcidtoname_downlevel.obj
 0002:0000bfa8       ??_C@_15KGGCNEFK@?$AAh?$AAe@ 000000014004efa8     libucrtd:lcidtoname_downlevel.obj
 0002:0000bfb0       ??_C@_15PGHLIDMF@?$AAh?$AAu@ 000000014004efb0     libucrtd:lcidtoname_downlevel.obj
 0002:0000bfb8       ??_C@_15BIEMAPLM@?$AAi?$AAs@ 000000014004efb8     libucrtd:lcidtoname_downlevel.obj
 0002:0000bfc0       ??_C@_15IFJLDHAF@?$AAi?$AAt@ 000000014004efc0     libucrtd:lcidtoname_downlevel.obj
 0002:0000bfc8       ??_C@_15GEMIOCAG@?$AAj?$AAa@ 000000014004efc8     libucrtd:lcidtoname_downlevel.obj
 0002:0000bfd0       ??_C@_15EPELEGJA@?$AAk?$AAo@ 000000014004efd0     libucrtd:lcidtoname_downlevel.obj
 0002:0000bfd8       ??_C@_15NDDHIMN@?$AAn?$AAl@ 000000014004efd8     libucrtd:lcidtoname_downlevel.obj
 0002:0000bfe0       ??_C@_15BPIGNHCD@?$AAn?$AAo@ 000000014004efe0     libucrtd:lcidtoname_downlevel.obj
 0002:0000bfe8       ??_C@_15DEOPBLCG@?$AAp?$AAl@ 000000014004efe8     libucrtd:lcidtoname_downlevel.obj
 0002:0000bff0       ??_C@_15KBECGEFG@?$AAp?$AAt@ 000000014004eff0     libucrtd:lcidtoname_downlevel.obj
 0002:0000bff8       ??_C@_15GLJCBFMD@?$AAr?$AAo@ 000000014004eff8     libucrtd:lcidtoname_downlevel.obj
 0002:0000c000       ??_C@_15FEDGKCDI@?$AAr?$AAu@ 000000014004f000     libucrtd:lcidtoname_downlevel.obj
 0002:0000c008       ??_C@_15GLKMLLHM@?$AAh?$AAr@ 000000014004f008     libucrtd:lcidtoname_downlevel.obj
 0002:0000c010       ??_C@_15CPKMFBDB@?$AAs?$AAk@ 000000014004f010     libucrtd:lcidtoname_downlevel.obj
 0002:0000c018       ??_C@_15BAAIOGMK@?$AAs?$AAq@ 000000014004f018     libucrtd:lcidtoname_downlevel.obj
 0002:0000c020       ??_C@_15INNPNOHD@?$AAs?$AAv@ 000000014004f020     libucrtd:lcidtoname_downlevel.obj
 0002:0000c028       ??_C@_15CABMMOGH@?$AAt?$AAh@ 000000014004f028     libucrtd:lcidtoname_downlevel.obj
 0002:0000c030       ??_C@_15BPLIHJJM@?$AAt?$AAr@ 000000014004f030     libucrtd:lcidtoname_downlevel.obj
 0002:0000c038       ??_C@_15NEOEKKDJ@?$AAu?$AAr@ 000000014004f038     libucrtd:lcidtoname_downlevel.obj
 0002:0000c040       ??_C@_15NFICGAJK@?$AAi?$AAd@ 000000014004f040     libucrtd:lcidtoname_downlevel.obj
 0002:0000c048       ??_C@_15HPJPHDM@?$AAb?$AAe@ 000000014004f048     libucrtd:lcidtoname_downlevel.obj
 0002:0000c050       ??_C@_15LCHLGJII@?$AAs?$AAl@ 000000014004f050     libucrtd:lcidtoname_downlevel.obj
 0002:0000c058       ??_C@_15PCFJPHHO@?$AAe?$AAt@ 000000014004f058     libucrtd:lcidtoname_downlevel.obj
 0002:0000c060       ??_C@_15HPFPGODN@?$AAl?$AAv@ 000000014004f060     libucrtd:lcidtoname_downlevel.obj
 0002:0000c068       ??_C@_15NFFGKGLG@?$AAl?$AAt@ 000000014004f068     libucrtd:lcidtoname_downlevel.obj
 0002:0000c070       ??_C@_15BDAKCCHN@?$AAf?$AAa@ 000000014004f070     libucrtd:lcidtoname_downlevel.obj
 0002:0000c078       ??_C@_15NFGIAIAJ@?$AAv?$AAi@ 000000014004f078     libucrtd:lcidtoname_downlevel.obj
 0002:0000c080       ??_C@_15LMKNDMHN@?$AAh?$AAy@ 000000014004f080     libucrtd:lcidtoname_downlevel.obj
 0002:0000c088       ??_C@_15IJBHMCFL@?$AAa?$AAz@ 000000014004f088     libucrtd:lcidtoname_downlevel.obj
 0002:0000c090       ??_C@_15EKOFJABL@?$AAe?$AAu@ 000000014004f090     libucrtd:lcidtoname_downlevel.obj
 0002:0000c098       ??_C@_15BGHADCNK@?$AAm?$AAk@ 000000014004f098     libucrtd:lcidtoname_downlevel.obj
 0002:0000c0a0       ??_C@_15JDNICKHM@?$AAa?$AAf@ 000000014004f0a0     libucrtd:lcidtoname_downlevel.obj
 0002:0000c0a8       ??_C@_15KPJEDBKD@?$AAk?$AAa@ 000000014004f0a8     libucrtd:lcidtoname_downlevel.obj
 0002:0000c0b0       ??_C@_15PDNFFFEO@?$AAf?$AAo@ 000000014004f0b0     libucrtd:lcidtoname_downlevel.obj
 0002:0000c0b8       ??_C@_15OMLEGLOC@?$AAh?$AAi@ 000000014004f0b8     libucrtd:lcidtoname_downlevel.obj
 0002:0000c0c0       ??_C@_15IDNNENKK@?$AAm?$AAs@ 000000014004f0c0     libucrtd:lcidtoname_downlevel.obj
 0002:0000c0c8       ??_C@_15MACJNBMH@?$AAk?$AAk@ 000000014004f0c8     libucrtd:lcidtoname_downlevel.obj
 0002:0000c0d0       ??_C@_15DKDJEOND@?$AAk?$AAy@ 000000014004f0d0     libucrtd:lcidtoname_downlevel.obj
 0002:0000c0d8       ??_C@_15DFGDLJBG@?$AAs?$AAw@ 000000014004f0d8     libucrtd:lcidtoname_downlevel.obj
 0002:0000c0e0       ??_C@_15BBFAICNG@?$AAu?$AAz@ 000000014004f0e0     libucrtd:lcidtoname_downlevel.obj
 0002:0000c0e8       ??_C@_15DKNDCGEA@?$AAt?$AAt@ 000000014004f0e8     libucrtd:lcidtoname_downlevel.obj
 0002:0000c0f0       ??_C@_15MGIFMDPL@?$AAp?$AAa@ 000000014004f0f0     libucrtd:lcidtoname_downlevel.obj
 0002:0000c0f8       ??_C@_15HCNDBBA@?$AAg?$AAu@ 000000014004f0f8     libucrtd:lcidtoname_downlevel.obj
 0002:0000c100       ??_C@_15FNBEIBON@?$AAt?$AAa@ 000000014004f100     libucrtd:lcidtoname_downlevel.obj
 0002:0000c108       ??_C@_15NCHGBGLK@?$AAt?$AAe@ 000000014004f108     libucrtd:lcidtoname_downlevel.obj
 0002:0000c110       ??_C@_15PHPHCBPF@?$AAk?$AAn@ 000000014004f110     libucrtd:lcidtoname_downlevel.obj
 0002:0000c118       ??_C@_15DLGBCKMP@?$AAm?$AAr@ 000000014004f118     libucrtd:lcidtoname_downlevel.obj
 0002:0000c120       ??_C@_15EABBLBFF@?$AAs?$AAa@ 000000014004f120     libucrtd:lcidtoname_downlevel.obj
 0002:0000c128       ??_C@_15CBKOMCOI@?$AAm?$AAn@ 000000014004f128     libucrtd:lcidtoname_downlevel.obj
 0002:0000c130       ??_C@_15CKDMCJAF@?$AAg?$AAl@ 000000014004f130     libucrtd:lcidtoname_downlevel.obj
 0002:0000c138       ??_C@_17CNJFBPG@?$AAk?$AAo?$AAk@ 000000014004f138     libucrtd:lcidtoname_downlevel.obj
 0002:0000c140       ??_C@_17FFBJICPL@?$AAs?$AAy?$AAr@ 000000014004f140     libucrtd:lcidtoname_downlevel.obj
 0002:0000c148       ??_C@_17KPNDCPAF@?$AAd?$AAi?$AAv@ 000000014004f148     libucrtd:lcidtoname_downlevel.obj
 0002:0000c150       ??_C@_1M@OKAHONE@?$AAa?$AAr?$AA?9?$AAS?$AAA@ 000000014004f150     libucrtd:lcidtoname_downlevel.obj
 0002:0000c160       ??_C@_1M@FFFIGIGK@?$AAb?$AAg?$AA?9?$AAB?$AAG@ 000000014004f160     libucrtd:lcidtoname_downlevel.obj
 0002:0000c170       ??_C@_1M@BJNKEDC@?$AAc?$AAa?$AA?9?$AAE?$AAS@ 000000014004f170     libucrtd:lcidtoname_downlevel.obj
 0002:0000c180       ??_C@_1M@IJJHFJHA@?$AAc?$AAs?$AA?9?$AAC?$AAZ@ 000000014004f180     libucrtd:lcidtoname_downlevel.obj
 0002:0000c190       ??_C@_1M@CLPEOBGI@?$AAd?$AAa?$AA?9?$AAD?$AAK@ 000000014004f190     libucrtd:lcidtoname_downlevel.obj
 0002:0000c1a0       ??_C@_1M@MCMADGCB@?$AAd?$AAe?$AA?9?$AAD?$AAE@ 000000014004f1a0     libucrtd:lcidtoname_downlevel.obj
 0002:0000c1b0       ??_C@_1M@OOCKEMAM@?$AAe?$AAl?$AA?9?$AAG?$AAR@ 000000014004f1b0     libucrtd:lcidtoname_downlevel.obj
 0002:0000c1c0       ??_C@_1M@DDNJFGID@?$AAf?$AAi?$AA?9?$AAF?$AAI@ 000000014004f1c0     libucrtd:lcidtoname_downlevel.obj
 0002:0000c1d0       ??_C@_1M@GLIPPMAC@?$AAf?$AAr?$AA?9?$AAF?$AAR@ 000000014004f1d0     libucrtd:lcidtoname_downlevel.obj
 0002:0000c1e0       ??_C@_1M@GFMCHPE@?$AAh?$AAe?$AA?9?$AAI?$AAL@ 000000014004f1e0     libucrtd:lcidtoname_downlevel.obj
 0002:0000c1f0       ??_C@_1M@MHLPGNKM@?$AAh?$AAu?$AA?9?$AAH?$AAU@ 000000014004f1f0     libucrtd:lcidtoname_downlevel.obj
 0002:0000c200       ??_C@_1M@LPDDNNPN@?$AAi?$AAs?$AA?9?$AAI?$AAS@ 000000014004f200     libucrtd:lcidtoname_downlevel.obj
 0002:0000c210       ??_C@_1M@MADIPODN@?$AAi?$AAt?$AA?9?$AAI?$AAT@ 000000014004f210     libucrtd:lcidtoname_downlevel.obj
 0002:0000c220       ??_C@_1M@IHBJJGG@?$AAn?$AAl?$AA?9?$AAN?$AAL@ 000000014004f220     libucrtd:lcidtoname_downlevel.obj
 0002:0000c230       ??_C@_1M@EANAGDL@?$AAn?$AAb?$AA?9?$AAN?$AAO@ 000000014004f230     libucrtd:lcidtoname_downlevel.obj
 0002:0000c240       ??_C@_1M@NEIEMEGP@?$AAp?$AAl?$AA?9?$AAP?$AAL@ 000000014004f240     libucrtd:lcidtoname_downlevel.obj
 0002:0000c250       ??_C@_1M@BOCFIGEP@?$AAp?$AAt?$AA?9?$AAB?$AAR@ 000000014004f250     libucrtd:lcidtoname_downlevel.obj
 0002:0000c260       ??_C@_1M@IMPFOPBG@?$AAr?$AAo?$AA?9?$AAR?$AAO@ 000000014004f260     libucrtd:lcidtoname_downlevel.obj
 0002:0000c270       ??_C@_1M@IDNNEJMM@?$AAr?$AAu?$AA?9?$AAR?$AAU@ 000000014004f270     libucrtd:lcidtoname_downlevel.obj
 0002:0000c280       ??_C@_1M@LILEEOGM@?$AAh?$AAr?$AA?9?$AAH?$AAR@ 000000014004f280     libucrtd:lcidtoname_downlevel.obj
 0002:0000c290       ??_C@_1M@FKIFEHPB@?$AAs?$AAk?$AA?9?$AAS?$AAK@ 000000014004f290     libucrtd:lcidtoname_downlevel.obj
 0002:0000c2a0       ??_C@_1M@LJMAMNPJ@?$AAs?$AAq?$AA?9?$AAA?$AAL@ 000000014004f2a0     libucrtd:lcidtoname_downlevel.obj
 0002:0000c2b0       ??_C@_1M@GIAKDKJK@?$AAs?$AAv?$AA?9?$AAS?$AAE@ 000000014004f2b0     libucrtd:lcidtoname_downlevel.obj
 0002:0000c2c0       ??_C@_1M@MKJKIKCL@?$AAt?$AAh?$AA?9?$AAT?$AAH@ 000000014004f2c0     libucrtd:lcidtoname_downlevel.obj
 0002:0000c2d0       ??_C@_1M@MFLCCMPB@?$AAt?$AAr?$AA?9?$AAT?$AAR@ 000000014004f2d0     libucrtd:lcidtoname_downlevel.obj
 0002:0000c2e0       ??_C@_1M@OIJHDKJN@?$AAu?$AAr?$AA?9?$AAP?$AAK@ 000000014004f2e0     libucrtd:lcidtoname_downlevel.obj
 0002:0000c2f0       ??_C@_1M@LHIPCIEK@?$AAi?$AAd?$AA?9?$AAI?$AAD@ 000000014004f2f0     libucrtd:lcidtoname_downlevel.obj
 0002:0000c300       ??_C@_1M@MFMOBGI@?$AAu?$AAk?$AA?9?$AAU?$AAA@ 000000014004f300     libucrtd:lcidtoname_downlevel.obj
 0002:0000c310       ??_C@_1M@OBGLJIPL@?$AAb?$AAe?$AA?9?$AAB?$AAY@ 000000014004f310     libucrtd:lcidtoname_downlevel.obj
 0002:0000c320       ??_C@_1M@BCFAJEAD@?$AAs?$AAl?$AA?9?$AAS?$AAI@ 000000014004f320     libucrtd:lcidtoname_downlevel.obj
 0002:0000c330       ??_C@_1M@FKFFEDDN@?$AAe?$AAt?$AA?9?$AAE?$AAE@ 000000014004f330     libucrtd:lcidtoname_downlevel.obj
 0002:0000c340       ??_C@_1M@KGKKAACI@?$AAl?$AAv?$AA?9?$AAL?$AAV@ 000000014004f340     libucrtd:lcidtoname_downlevel.obj
 0002:0000c350       ??_C@_1M@IFGBIJO@?$AAl?$AAt?$AA?9?$AAL?$AAT@ 000000014004f350     libucrtd:lcidtoname_downlevel.obj
 0002:0000c360       ??_C@_1M@FGEAHEDM@?$AAf?$AAa?$AA?9?$AAI?$AAR@ 000000014004f360     libucrtd:lcidtoname_downlevel.obj
 0002:0000c370       ??_C@_1M@KBMAIBFN@?$AAv?$AAi?$AA?9?$AAV?$AAN@ 000000014004f370     libucrtd:lcidtoname_downlevel.obj
 0002:0000c380       ??_C@_1M@GPCBKDJK@?$AAh?$AAy?$AA?9?$AAA?$AAM@ 000000014004f380     libucrtd:lcidtoname_downlevel.obj
 0002:0000c390       ??_C@_1BG@BECMDDJB@?$AAa?$AAz?$AA?9?$AAA?$AAZ?$AA?9?$AAL?$AAa?$AAt?$AAn@ 000000014004f390     libucrtd:lcidtoname_downlevel.obj
 0002:0000c3a8       ??_C@_1M@MAOFCAEA@?$AAe?$AAu?$AA?9?$AAE?$AAS@ 000000014004f3a8     libucrtd:lcidtoname_downlevel.obj
 0002:0000c3b8       ??_C@_1M@IGHABKPI@?$AAm?$AAk?$AA?9?$AAM?$AAK@ 000000014004f3b8     libucrtd:lcidtoname_downlevel.obj
 0002:0000c3c8       ??_C@_1M@IAIGNEJG@?$AAt?$AAn?$AA?9?$AAZ?$AAA@ 000000014004f3c8     libucrtd:lcidtoname_downlevel.obj
 0002:0000c3d8       ??_C@_1M@IIJCOJFA@?$AAx?$AAh?$AA?9?$AAZ?$AAA@ 000000014004f3d8     libucrtd:lcidtoname_downlevel.obj
 0002:0000c3e8       ??_C@_1M@LGPJHNJH@?$AAz?$AAu?$AA?9?$AAZ?$AAA@ 000000014004f3e8     libucrtd:lcidtoname_downlevel.obj
 0002:0000c3f8       ??_C@_1M@HOKAOIO@?$AAa?$AAf?$AA?9?$AAZ?$AAA@ 000000014004f3f8     libucrtd:lcidtoname_downlevel.obj
 0002:0000c408       ??_C@_1M@DPCLHLIE@?$AAk?$AAa?$AA?9?$AAG?$AAE@ 000000014004f408     libucrtd:lcidtoname_downlevel.obj
 0002:0000c418       ??_C@_1M@BLKMHJBI@?$AAf?$AAo?$AA?9?$AAF?$AAO@ 000000014004f418     libucrtd:lcidtoname_downlevel.obj
 0002:0000c428       ??_C@_1M@LGGJAPPB@?$AAh?$AAi?$AA?9?$AAI?$AAN@ 000000014004f428     libucrtd:lcidtoname_downlevel.obj
 0002:0000c438       ??_C@_1M@FIKPIHFE@?$AAm?$AAt?$AA?9?$AAM?$AAT@ 000000014004f438     libucrtd:lcidtoname_downlevel.obj
 0002:0000c448       ??_C@_1M@HEGGPBFA@?$AAs?$AAe?$AA?9?$AAN?$AAO@ 000000014004f448     libucrtd:lcidtoname_downlevel.obj
 0002:0000c458       ??_C@_1M@EIBJEEPA@?$AAm?$AAs?$AA?9?$AAM?$AAY@ 000000014004f458     libucrtd:lcidtoname_downlevel.obj
 0002:0000c468       ??_C@_1M@FHLBGMPP@?$AAk?$AAk?$AA?9?$AAK?$AAZ@ 000000014004f468     libucrtd:lcidtoname_downlevel.obj
 0002:0000c478       ??_C@_1M@NGJJLCGI@?$AAk?$AAy?$AA?9?$AAK?$AAG@ 000000014004f478     libucrtd:lcidtoname_downlevel.obj
 0002:0000c488       ??_C@_1M@GIENNBFC@?$AAs?$AAw?$AA?9?$AAK?$AAE@ 000000014004f488     libucrtd:lcidtoname_downlevel.obj
 0002:0000c498       ??_C@_1BG@NDGMJIMJ@?$AAu?$AAz?$AA?9?$AAU?$AAZ?$AA?9?$AAL?$AAa?$AAt?$AAn@ 000000014004f498     libucrtd:lcidtoname_downlevel.obj
 0002:0000c4b0       ??_C@_1M@IDCCIHBC@?$AAt?$AAt?$AA?9?$AAR?$AAU@ 000000014004f4b0     libucrtd:lcidtoname_downlevel.obj
 0002:0000c4c0       ??_C@_1M@LOICPMOJ@?$AAb?$AAn?$AA?9?$AAI?$AAN@ 000000014004f4c0     libucrtd:lcidtoname_downlevel.obj
 0002:0000c4d0       ??_C@_1M@KPKKNEAH@?$AAp?$AAa?$AA?9?$AAI?$AAN@ 000000014004f4d0     libucrtd:lcidtoname_downlevel.obj
 0002:0000c4e0       ??_C@_1M@PJGPPBOG@?$AAg?$AAu?$AA?9?$AAI?$AAN@ 000000014004f4e0     libucrtd:lcidtoname_downlevel.obj
 0002:0000c4f0       ??_C@_1M@KMKMOPHI@?$AAt?$AAa?$AA?9?$AAI?$AAN@ 000000014004f4f0     libucrtd:lcidtoname_downlevel.obj
 0002:0000c500       ??_C@_1M@KFEHEPAC@?$AAt?$AAe?$AA?9?$AAI?$AAN@ 000000014004f500     libucrtd:lcidtoname_downlevel.obj
 0002:0000c510       ??_C@_1M@CDCLMGHI@?$AAk?$AAn?$AA?9?$AAI?$AAN@ 000000014004f510     libucrtd:lcidtoname_downlevel.obj
 0002:0000c520       ??_C@_1M@MIODLDKF@?$AAm?$AAl?$AA?9?$AAI?$AAN@ 000000014004f520     libucrtd:lcidtoname_downlevel.obj
 0002:0000c530       ??_C@_1M@PBIEACPO@?$AAm?$AAr?$AA?9?$AAI?$AAN@ 000000014004f530     libucrtd:lcidtoname_downlevel.obj
 0002:0000c540       ??_C@_1M@NIDEAGPH@?$AAs?$AAa?$AA?9?$AAI?$AAN@ 000000014004f540     libucrtd:lcidtoname_downlevel.obj
 0002:0000c550       ??_C@_1M@FHIHCBIO@?$AAm?$AAn?$AA?9?$AAM?$AAN@ 000000014004f550     libucrtd:lcidtoname_downlevel.obj
 0002:0000c560       ??_C@_1M@JAIJPENP@?$AAc?$AAy?$AA?9?$AAG?$AAB@ 000000014004f560     libucrtd:lcidtoname_downlevel.obj
 0002:0000c570       ??_C@_1M@PHGFBEPN@?$AAg?$AAl?$AA?9?$AAE?$AAS@ 000000014004f570     libucrtd:lcidtoname_downlevel.obj
 0002:0000c580       ??_C@_1O@KPIPDNCP@?$AAk?$AAo?$AAk?$AA?9?$AAI?$AAN@ 000000014004f580     libucrtd:lcidtoname_downlevel.obj
 0002:0000c590       ??_C@_1O@KNHJLDJA@?$AAs?$AAy?$AAr?$AA?9?$AAS?$AAY@ 000000014004f590     libucrtd:lcidtoname_downlevel.obj
 0002:0000c5a0       ??_C@_1O@MKEKBLAH@?$AAd?$AAi?$AAv?$AA?9?$AAM?$AAV@ 000000014004f5a0     libucrtd:lcidtoname_downlevel.obj
 0002:0000c5b0       ??_C@_1O@OHDCKDDF@?$AAq?$AAu?$AAz?$AA?9?$AAB?$AAO@ 000000014004f5b0     libucrtd:lcidtoname_downlevel.obj
 0002:0000c5c0       ??_C@_1M@LEPJNLFD@?$AAn?$AAs?$AA?9?$AAZ?$AAA@ 000000014004f5c0     libucrtd:lcidtoname_downlevel.obj
 0002:0000c5d0       ??_C@_1M@OMLEIIJB@?$AAm?$AAi?$AA?9?$AAN?$AAZ@ 000000014004f5d0     libucrtd:lcidtoname_downlevel.obj
 0002:0000c5e0       ??_C@_1M@PMPEAILG@?$AAa?$AAr?$AA?9?$AAI?$AAQ@ 000000014004f5e0     libucrtd:lcidtoname_downlevel.obj
 0002:0000c5f0       ??_C@_1M@CNKPNOEE@?$AAd?$AAe?$AA?9?$AAC?$AAH@ 000000014004f5f0     libucrtd:lcidtoname_downlevel.obj
 0002:0000c600       ??_C@_1M@LKMGMLKO@?$AAe?$AAn?$AA?9?$AAG?$AAB@ 000000014004f600     libucrtd:lcidtoname_downlevel.obj
 0002:0000c610       ??_C@_1M@PGKJFFGL@?$AAe?$AAs?$AA?9?$AAM?$AAX@ 000000014004f610     libucrtd:lcidtoname_downlevel.obj
 0002:0000c620       ??_C@_1M@DNNANBDC@?$AAf?$AAr?$AA?9?$AAB?$AAE@ 000000014004f620     libucrtd:lcidtoname_downlevel.obj
 0002:0000c630       ??_C@_1M@HLGMDFHM@?$AAi?$AAt?$AA?9?$AAC?$AAH@ 000000014004f630     libucrtd:lcidtoname_downlevel.obj
 0002:0000c640       ??_C@_1M@CLLBGJH@?$AAn?$AAl?$AA?9?$AAB?$AAE@ 000000014004f640     libucrtd:lcidtoname_downlevel.obj
 0002:0000c650       ??_C@_1M@BODBOGLF@?$AAn?$AAn?$AA?9?$AAN?$AAO@ 000000014004f650     libucrtd:lcidtoname_downlevel.obj
 0002:0000c660       ??_C@_1M@HFFAHKAD@?$AAp?$AAt?$AA?9?$AAP?$AAT@ 000000014004f660     libucrtd:lcidtoname_downlevel.obj
 0002:0000c670       ??_C@_1BG@LNOAKHIE@?$AAs?$AAr?$AA?9?$AAS?$AAP?$AA?9?$AAL?$AAa?$AAt?$AAn@ 000000014004f670     libucrtd:lcidtoname_downlevel.obj
 0002:0000c688       ??_C@_1M@HBMHBGAK@?$AAs?$AAv?$AA?9?$AAF?$AAI@ 000000014004f688     libucrtd:lcidtoname_downlevel.obj
 0002:0000c698       ??_C@_1BG@DGCJGJBE@?$AAa?$AAz?$AA?9?$AAA?$AAZ?$AA?9?$AAC?$AAy?$AAr?$AAl@ 000000014004f698     libucrtd:lcidtoname_downlevel.obj
 0002:0000c6b0       ??_C@_1M@KEJDAAHB@?$AAs?$AAe?$AA?9?$AAS?$AAE@ 000000014004f6b0     libucrtd:lcidtoname_downlevel.obj
 0002:0000c6c0       ??_C@_1M@HEIBJJAD@?$AAm?$AAs?$AA?9?$AAB?$AAN@ 000000014004f6c0     libucrtd:lcidtoname_downlevel.obj
 0002:0000c6d0       ??_C@_1BG@PBGJMCEM@?$AAu?$AAz?$AA?9?$AAU?$AAZ?$AA?9?$AAC?$AAy?$AAr?$AAl@ 000000014004f6d0     libucrtd:lcidtoname_downlevel.obj
 0002:0000c6e8       ??_C@_1O@LAOBCMDF@?$AAq?$AAu?$AAz?$AA?9?$AAE?$AAC@ 000000014004f6e8     libucrtd:lcidtoname_downlevel.obj
 0002:0000c6f8       ??_C@_1M@POEEMAIO@?$AAa?$AAr?$AA?9?$AAE?$AAG@ 000000014004f6f8     libucrtd:lcidtoname_downlevel.obj
 0002:0000c708       ??_C@_1M@EFAKDEDL@?$AAz?$AAh?$AA?9?$AAH?$AAK@ 000000014004f708     libucrtd:lcidtoname_downlevel.obj
 0002:0000c718       ??_C@_1M@HKKIJHGI@?$AAd?$AAe?$AA?9?$AAA?$AAT@ 000000014004f718     libucrtd:lcidtoname_downlevel.obj
 0002:0000c728       ??_C@_1M@KBFBEHJF@?$AAe?$AAn?$AA?9?$AAA?$AAU@ 000000014004f728     libucrtd:lcidtoname_downlevel.obj
 0002:0000c738       ??_C@_1M@MNPLFAAH@?$AAe?$AAs?$AA?9?$AAE?$AAS@ 000000014004f738     libucrtd:lcidtoname_downlevel.obj
 0002:0000c748       ??_C@_1M@HJOOJFMA@?$AAf?$AAr?$AA?9?$AAC?$AAA@ 000000014004f748     libucrtd:lcidtoname_downlevel.obj
 0002:0000c758       ??_C@_1BG@JPOFPNAB@?$AAs?$AAr?$AA?9?$AAS?$AAP?$AA?9?$AAC?$AAy?$AAr?$AAl@ 000000014004f758     libucrtd:lcidtoname_downlevel.obj
 0002:0000c770       ??_C@_1M@LNFOCMOB@?$AAs?$AAe?$AA?9?$AAF?$AAI@ 000000014004f770     libucrtd:lcidtoname_downlevel.obj
 0002:0000c780       ??_C@_1O@MGJBOAMB@?$AAq?$AAu?$AAz?$AA?9?$AAP?$AAE@ 000000014004f780     libucrtd:lcidtoname_downlevel.obj
 0002:0000c790       ??_C@_1M@GJINLBOK@?$AAa?$AAr?$AA?9?$AAL?$AAY@ 000000014004f790     libucrtd:lcidtoname_downlevel.obj
 0002:0000c7a0       ??_C@_1M@GGMNHJNL@?$AAz?$AAh?$AA?9?$AAS?$AAG@ 000000014004f7a0     libucrtd:lcidtoname_downlevel.obj
 0002:0000c7b0       ??_C@_1M@HOIKODND@?$AAd?$AAe?$AA?9?$AAL?$AAU@ 000000014004f7b0     libucrtd:lcidtoname_downlevel.obj
 0002:0000c7c0       ??_C@_1M@DDOCCGFG@?$AAe?$AAn?$AA?9?$AAC?$AAA@ 000000014004f7c0     libucrtd:lcidtoname_downlevel.obj
 0002:0000c7d0       ??_C@_1M@BNOEMJLF@?$AAe?$AAs?$AA?9?$AAG?$AAT@ 000000014004f7d0     libucrtd:lcidtoname_downlevel.obj
 0002:0000c7e0       ??_C@_1M@EOGNKEK@?$AAf?$AAr?$AA?9?$AAC?$AAH@ 000000014004f7e0     libucrtd:lcidtoname_downlevel.obj
 0002:0000c7f0       ??_C@_1M@FLIDJFHL@?$AAh?$AAr?$AA?9?$AAB?$AAA@ 000000014004f7f0     libucrtd:lcidtoname_downlevel.obj
 0002:0000c800       ??_C@_1O@FMCELNAJ@?$AAs?$AAm?$AAj?$AA?9?$AAN?$AAO@ 000000014004f800     libucrtd:lcidtoname_downlevel.obj
 0002:0000c810       ??_C@_1M@JHGLJMGJ@?$AAa?$AAr?$AA?9?$AAD?$AAZ@ 000000014004f810     libucrtd:lcidtoname_downlevel.obj
 0002:0000c820       ??_C@_1M@JKKFDCNP@?$AAz?$AAh?$AA?9?$AAM?$AAO@ 000000014004f820     libucrtd:lcidtoname_downlevel.obj
 0002:0000c830       ??_C@_1M@GEEFALPE@?$AAd?$AAe?$AA?9?$AAL?$AAI@ 000000014004f830     libucrtd:lcidtoname_downlevel.obj
 0002:0000c840       ??_C@_1M@IGEOFBG@?$AAe?$AAn?$AA?9?$AAN?$AAZ@ 000000014004f840     libucrtd:lcidtoname_downlevel.obj
 0002:0000c850       ??_C@_1M@KDBONEHP@?$AAe?$AAs?$AA?9?$AAC?$AAR@ 000000014004f850     libucrtd:lcidtoname_downlevel.obj
 0002:0000c860       ??_C@_1M@FHMDOHNN@?$AAf?$AAr?$AA?9?$AAL?$AAU@ 000000014004f860     libucrtd:lcidtoname_downlevel.obj
 0002:0000c870       ??_C@_1BG@NFKKMAFG@?$AAb?$AAs?$AA?9?$AAB?$AAA?$AA?9?$AAL?$AAa?$AAt?$AAn@ 000000014004f870     libucrtd:lcidtoname_downlevel.obj
 0002:0000c888       ??_C@_1O@IMNBEMCI@?$AAs?$AAm?$AAj?$AA?9?$AAS?$AAE@ 000000014004f888     libucrtd:lcidtoname_downlevel.obj
 0002:0000c898       ??_C@_1M@DHHMBNDP@?$AAa?$AAr?$AA?9?$AAM?$AAA@ 000000014004f898     libucrtd:lcidtoname_downlevel.obj
 0002:0000c8a8       ??_C@_1M@BNBLJCGH@?$AAe?$AAn?$AA?9?$AAI?$AAE@ 000000014004f8a8     libucrtd:lcidtoname_downlevel.obj
 0002:0000c8b8       ??_C@_1M@GEPAFMDL@?$AAe?$AAs?$AA?9?$AAP?$AAA@ 000000014004f8b8     libucrtd:lcidtoname_downlevel.obj
 0002:0000c8c8       ??_C@_1M@OJONDMDL@?$AAf?$AAr?$AA?9?$AAM?$AAC@ 000000014004f8c8     libucrtd:lcidtoname_downlevel.obj
 0002:0000c8d8       ??_C@_1BG@OBCNFJB@?$AAs?$AAr?$AA?9?$AAB?$AAA?$AA?9?$AAL?$AAa?$AAt?$AAn@ 000000014004f8d8     libucrtd:lcidtoname_downlevel.obj
 0002:0000c8f0       ??_C@_1O@KEMEEGPO@?$AAs?$AAm?$AAa?$AA?9?$AAN?$AAO@ 000000014004f8f0     libucrtd:lcidtoname_downlevel.obj
 0002:0000c900       ??_C@_1M@ELMGFODK@?$AAa?$AAr?$AA?9?$AAT?$AAN@ 000000014004f900     libucrtd:lcidtoname_downlevel.obj
 0002:0000c910       ??_C@_1M@BHDLHFAF@?$AAe?$AAn?$AA?9?$AAZ?$AAA@ 000000014004f910     libucrtd:lcidtoname_downlevel.obj
 0002:0000c920       ??_C@_1M@BMGIGLIF@?$AAe?$AAs?$AA?9?$AAD?$AAO@ 000000014004f920     libucrtd:lcidtoname_downlevel.obj
 0002:0000c930       ??_C@_1BG@CMBHIPBE@?$AAs?$AAr?$AA?9?$AAB?$AAA?$AA?9?$AAC?$AAy?$AAr?$AAl@ 000000014004f930     libucrtd:lcidtoname_downlevel.obj
 0002:0000c948       ??_C@_1O@HEDBLHNP@?$AAs?$AAm?$AAa?$AA?9?$AAS?$AAE@ 000000014004f948     libucrtd:lcidtoname_downlevel.obj
 0002:0000c958       ??_C@_1M@DAGCADIM@?$AAa?$AAr?$AA?9?$AAO?$AAM@ 000000014004f958     libucrtd:lcidtoname_downlevel.obj
 0002:0000c968       ??_C@_1M@FODLMICG@?$AAe?$AAn?$AA?9?$AAJ?$AAM@ 000000014004f968     libucrtd:lcidtoname_downlevel.obj
 0002:0000c978       ??_C@_1M@DNMLCIHB@?$AAe?$AAs?$AA?9?$AAV?$AAE@ 000000014004f978     libucrtd:lcidtoname_downlevel.obj
 0002:0000c988       ??_C@_1O@EOKHMKJK@?$AAs?$AAm?$AAs?$AA?9?$AAF?$AAI@ 000000014004f988     libucrtd:lcidtoname_downlevel.obj
 0002:0000c998       ??_C@_1M@CAFJMKOF@?$AAa?$AAr?$AA?9?$AAY?$AAE@ 000000014004f998     libucrtd:lcidtoname_downlevel.obj
 0002:0000c9a8       ??_C@_1M@CBFHIJLI@?$AAe?$AAn?$AA?9?$AAC?$AAB@ 000000014004f9a8     libucrtd:lcidtoname_downlevel.obj
 0002:0000c9b8       ??_C@_1M@BGNFLDN@?$AAe?$AAs?$AA?9?$AAC?$AAO@ 000000014004f9b8     libucrtd:lcidtoname_downlevel.obj
 0002:0000c9c8       ??_C@_1O@JMPHMAMC@?$AAs?$AAm?$AAn?$AA?9?$AAF?$AAI@ 000000014004f9c8     libucrtd:lcidtoname_downlevel.obj
 0002:0000c9d8       ??_C@_1M@JLANABKE@?$AAa?$AAr?$AA?9?$AAS?$AAY@ 000000014004f9d8     libucrtd:lcidtoname_downlevel.obj
 0002:0000c9e8       ??_C@_1M@HPKGCFGN@?$AAe?$AAn?$AA?9?$AAB?$AAZ@ 000000014004f9e8     libucrtd:lcidtoname_downlevel.obj
 0002:0000c9f8       ??_C@_1M@OLJCMLGM@?$AAe?$AAs?$AA?9?$AAP?$AAE@ 000000014004f9f8     libucrtd:lcidtoname_downlevel.obj
 0002:0000ca08       ??_C@_1M@MKKGFKLE@?$AAa?$AAr?$AA?9?$AAJ?$AAO@ 000000014004fa08     libucrtd:lcidtoname_downlevel.obj
 0002:0000ca18       ??_C@_1M@EKPGLDNI@?$AAe?$AAn?$AA?9?$AAT?$AAT@ 000000014004fa18     libucrtd:lcidtoname_downlevel.obj
 0002:0000ca28       ??_C@_1M@OONGHFHE@?$AAe?$AAs?$AA?9?$AAA?$AAR@ 000000014004fa28     libucrtd:lcidtoname_downlevel.obj
 0002:0000ca38       ??_C@_1M@OOJFGBHE@?$AAa?$AAr?$AA?9?$AAL?$AAB@ 000000014004fa38     libucrtd:lcidtoname_downlevel.obj
 0002:0000ca48       ??_C@_1M@GCEJHNEG@?$AAe?$AAn?$AA?9?$AAZ?$AAW@ 000000014004fa48     libucrtd:lcidtoname_downlevel.obj
 0002:0000ca58       ??_C@_1M@JNOCAHJI@?$AAe?$AAs?$AA?9?$AAE?$AAC@ 000000014004fa58     libucrtd:lcidtoname_downlevel.obj
 0002:0000ca68       ??_C@_1M@JEFHPGGB@?$AAa?$AAr?$AA?9?$AAK?$AAW@ 000000014004fa68     libucrtd:lcidtoname_downlevel.obj
 0002:0000ca78       ??_C@_1M@MLKIBJOJ@?$AAe?$AAn?$AA?9?$AAP?$AAH@ 000000014004fa78     libucrtd:lcidtoname_downlevel.obj
 0002:0000ca88       ??_C@_1M@BDNIPEND@?$AAe?$AAs?$AA?9?$AAC?$AAL@ 000000014004fa88     libucrtd:lcidtoname_downlevel.obj
 0002:0000ca98       ??_C@_1M@MPNMEKBD@?$AAa?$AAr?$AA?9?$AAA?$AAE@ 000000014004fa98     libucrtd:lcidtoname_downlevel.obj
 0002:0000caa8       ??_C@_1M@KBJALCPI@?$AAe?$AAs?$AA?9?$AAU?$AAY@ 000000014004faa8     libucrtd:lcidtoname_downlevel.obj
 0002:0000cab8       ??_C@_1M@LLCCOAGA@?$AAa?$AAr?$AA?9?$AAB?$AAH@ 000000014004fab8     libucrtd:lcidtoname_downlevel.obj
 0002:0000cac8       ??_C@_1M@PBFNCDEL@?$AAe?$AAs?$AA?9?$AAP?$AAY@ 000000014004fac8     libucrtd:lcidtoname_downlevel.obj
 0002:0000cad8       ??_C@_1M@EDGINPNP@?$AAa?$AAr?$AA?9?$AAQ?$AAA@ 000000014004fad8     libucrtd:lcidtoname_downlevel.obj
 0002:0000cae8       ??_C@_1M@MKDBIIJI@?$AAe?$AAs?$AA?9?$AAB?$AAO@ 000000014004fae8     libucrtd:lcidtoname_downlevel.obj
 0002:0000caf8       ??_C@_1M@CPKKEBLD@?$AAe?$AAs?$AA?9?$AAS?$AAV@ 000000014004faf8     libucrtd:lcidtoname_downlevel.obj
 0002:0000cb08       ??_C@_1M@NDBGMMJL@?$AAe?$AAs?$AA?9?$AAH?$AAN@ 000000014004fb08     libucrtd:lcidtoname_downlevel.obj
 0002:0000cb18       ??_C@_1M@JIJIBHDP@?$AAe?$AAs?$AA?9?$AAN?$AAI@ 000000014004fb18     libucrtd:lcidtoname_downlevel.obj
 0002:0000cb28       ??_C@_1M@CGFMKEEK@?$AAe?$AAs?$AA?9?$AAP?$AAR@ 000000014004fb28     libucrtd:lcidtoname_downlevel.obj
 0002:0000cb38       ??_C@_1O@ICJHKIIK@?$AAz?$AAh?$AA?9?$AAC?$AAH?$AAT@ 000000014004fb38     libucrtd:lcidtoname_downlevel.obj
 0002:0000cb48       ??_C@_15CLNEJCE@?$AAs?$AAr@ 000000014004fb48     libucrtd:lcidtoname_downlevel.obj
 0002:0000d990       ??_C@_1M@KAHEKEIG@?$AAa?$AAf?$AA?9?$AAz?$AAa@ 0000000140050990     libucrtd:lcidtoname_downlevel.obj
 0002:0000d9a0       ??_C@_1M@GIECOABL@?$AAa?$AAr?$AA?9?$AAa?$AAe@ 00000001400509a0     libucrtd:lcidtoname_downlevel.obj
 0002:0000d9b0       ??_C@_1M@BMLMEKGI@?$AAa?$AAr?$AA?9?$AAb?$AAh@ 00000001400509b0     libucrtd:lcidtoname_downlevel.obj
 0002:0000d9c0       ??_C@_1M@DAPFDGGB@?$AAa?$AAr?$AA?9?$AAd?$AAz@ 00000001400509c0     libucrtd:lcidtoname_downlevel.obj
 0002:0000d9d0       ??_C@_1M@FJNKGKIG@?$AAa?$AAr?$AA?9?$AAe?$AAg@ 00000001400509d0     libucrtd:lcidtoname_downlevel.obj
 0002:0000d9e0       ??_C@_1M@FLGKKCLO@?$AAa?$AAr?$AA?9?$AAi?$AAq@ 00000001400509e0     libucrtd:lcidtoname_downlevel.obj
 0002:0000d9f0       ??_C@_1M@GNDIPALM@?$AAa?$AAr?$AA?9?$AAj?$AAo@ 00000001400509f0     libucrtd:lcidtoname_downlevel.obj
 0002:0000da00       ??_C@_1M@DDMJFMGJ@?$AAa?$AAr?$AA?9?$AAk?$AAw@ 0000000140050a00     libucrtd:lcidtoname_downlevel.obj
 0002:0000da10       ??_C@_1M@EJALMLHM@?$AAa?$AAr?$AA?9?$AAl?$AAb@ 0000000140050a10     libucrtd:lcidtoname_downlevel.obj
 0002:0000da20       ??_C@_1M@MOBDBLOC@?$AAa?$AAr?$AA?9?$AAl?$AAy@ 0000000140050a20     libucrtd:lcidtoname_downlevel.obj
 0002:0000da30       ??_C@_1M@JAOCLHDH@?$AAa?$AAr?$AA?9?$AAm?$AAa@ 0000000140050a30     libucrtd:lcidtoname_downlevel.obj
 0002:0000da40       ??_C@_1M@JHPMKJIE@?$AAa?$AAr?$AA?9?$AAo?$AAm@ 0000000140050a40     libucrtd:lcidtoname_downlevel.obj
 0002:0000da50       ??_C@_1M@OEPGHFNH@?$AAa?$AAr?$AA?9?$AAq?$AAa@ 0000000140050a50     libucrtd:lcidtoname_downlevel.obj
 0002:0000da60       ??_C@_1M@KJDONENM@?$AAa?$AAr?$AA?9?$AAs?$AAa@ 0000000140050a60     libucrtd:lcidtoname_downlevel.obj
 0002:0000da70       ??_C@_1M@DMJDKLKM@?$AAa?$AAr?$AA?9?$AAs?$AAy@ 0000000140050a70     libucrtd:lcidtoname_downlevel.obj
 0002:0000da80       ??_C@_1M@OMFIPEDC@?$AAa?$AAr?$AA?9?$AAt?$AAn@ 0000000140050a80     libucrtd:lcidtoname_downlevel.obj
 0002:0000da90       ??_C@_1M@IHMHGAON@?$AAa?$AAr?$AA?9?$AAy?$AAe@ 0000000140050a90     libucrtd:lcidtoname_downlevel.obj
 0002:0000daa0       ??_C@_1BG@KDCPGJGB@?$AAa?$AAz?$AA?9?$AAa?$AAz?$AA?9?$AAc?$AAy?$AAr?$AAl@ 0000000140050aa0     libucrtd:lcidtoname_downlevel.obj
 0002:0000dab8       ??_C@_1BG@IBCKDDOE@?$AAa?$AAz?$AA?9?$AAa?$AAz?$AA?9?$AAl?$AAa?$AAt?$AAn@ 0000000140050ab8     libucrtd:lcidtoname_downlevel.obj
 0002:0000dad0       ??_C@_1M@EGPFDCPD@?$AAb?$AAe?$AA?9?$AAb?$AAy@ 0000000140050ad0     libucrtd:lcidtoname_downlevel.obj
 0002:0000dae0       ??_C@_1M@PCMGMCGC@?$AAb?$AAg?$AA?9?$AAb?$AAg@ 0000000140050ae0     libucrtd:lcidtoname_downlevel.obj
 0002:0000daf0       ??_C@_1M@BJBMFGOB@?$AAb?$AAn?$AA?9?$AAi?$AAn@ 0000000140050af0     libucrtd:lcidtoname_downlevel.obj
 0002:0000db00       ??_C@_1BG@EAKMMACD@?$AAb?$AAs?$AA?9?$AAb?$AAa?$AA?9?$AAl?$AAa?$AAt?$AAn@ 0000000140050b00     libucrtd:lcidtoname_downlevel.obj
 0002:0000db18       ??_C@_1M@KGADAODK@?$AAc?$AAa?$AA?9?$AAe?$AAs@ 0000000140050b18     libucrtd:lcidtoname_downlevel.obj
 0002:0000db28       ??_C@_1M@COAJPDHI@?$AAc?$AAs?$AA?9?$AAc?$AAz@ 0000000140050b28     libucrtd:lcidtoname_downlevel.obj
 0002:0000db38       ??_C@_1M@DHBHFONH@?$AAc?$AAy?$AA?9?$AAg?$AAb@ 0000000140050b38     libucrtd:lcidtoname_downlevel.obj
 0002:0000db48       ??_C@_1M@IMGKELGA@?$AAd?$AAa?$AA?9?$AAd?$AAk@ 0000000140050b48     libucrtd:lcidtoname_downlevel.obj
 0002:0000db58       ??_C@_1M@NNDGDNGA@?$AAd?$AAe?$AA?9?$AAa?$AAt@ 0000000140050b58     libucrtd:lcidtoname_downlevel.obj
 0002:0000db68       ??_C@_1M@IKDBHEEM@?$AAd?$AAe?$AA?9?$AAc?$AAh@ 0000000140050b68     libucrtd:lcidtoname_downlevel.obj
 0002:0000db78       ??_C@_1M@GFFOJMCJ@?$AAd?$AAe?$AA?9?$AAd?$AAe@ 0000000140050b78     libucrtd:lcidtoname_downlevel.obj
 0002:0000db88       ??_C@_1M@MDNLKBPM@?$AAd?$AAe?$AA?9?$AAl?$AAi@ 0000000140050b88     libucrtd:lcidtoname_downlevel.obj
 0002:0000db98       ??_C@_1M@NJBEEJNL@?$AAd?$AAe?$AA?9?$AAl?$AAu@ 0000000140050b98     libucrtd:lcidtoname_downlevel.obj
 0002:0000dba8       ??_C@_1O@GNNELBAP@?$AAd?$AAi?$AAv?$AA?9?$AAm?$AAv@ 0000000140050ba8     libucrtd:lcidtoname_downlevel.obj
 0002:0000dbb8       ??_C@_1M@EJLEOGAE@?$AAe?$AAl?$AA?9?$AAg?$AAr@ 0000000140050bb8     libucrtd:lcidtoname_downlevel.obj
 0002:0000dbc8       ??_C@_1M@GMPONJN@?$AAe?$AAn?$AA?9?$AAa?$AAu@ 0000000140050bc8     libucrtd:lcidtoname_downlevel.obj
 0002:0000dbd8       ??_C@_1M@NIDIIPGF@?$AAe?$AAn?$AA?9?$AAb?$AAz@ 0000000140050bd8     libucrtd:lcidtoname_downlevel.obj
 0002:0000dbe8       ??_C@_1M@JEHMIMFO@?$AAe?$AAn?$AA?9?$AAc?$AAa@ 0000000140050be8     libucrtd:lcidtoname_downlevel.obj
 0002:0000dbf8       ??_C@_1M@IGMJCDLA@?$AAe?$AAn?$AA?9?$AAc?$AAb@ 0000000140050bf8     libucrtd:lcidtoname_downlevel.obj
 0002:0000dc08       ??_C@_1M@BNFIGBKG@?$AAe?$AAn?$AA?9?$AAg?$AAb@ 0000000140050c08     libucrtd:lcidtoname_downlevel.obj
 0002:0000dc18       ??_C@_1M@LKIFDIGP@?$AAe?$AAn?$AA?9?$AAi?$AAe@ 0000000140050c18     libucrtd:lcidtoname_downlevel.obj
 0002:0000dc28       ??_C@_1M@PJKFGCCO@?$AAe?$AAn?$AA?9?$AAj?$AAm@ 0000000140050c28     libucrtd:lcidtoname_downlevel.obj
 0002:0000dc38       ??_C@_1M@KPPKEPBO@?$AAe?$AAn?$AA?9?$AAn?$AAz@ 0000000140050c38     libucrtd:lcidtoname_downlevel.obj
 0002:0000dc48       ??_C@_1M@GMDGLDOB@?$AAe?$AAn?$AA?9?$AAp?$AAh@ 0000000140050c48     libucrtd:lcidtoname_downlevel.obj
 0002:0000dc58       ??_C@_1M@ONGIBJNA@?$AAe?$AAn?$AA?9?$AAt?$AAt@ 0000000140050c58     libucrtd:lcidtoname_downlevel.obj
 0002:0000dc68       ??_C@_1M@LLODPCMM@?$AAe?$AAn?$AA?9?$AAu?$AAs@ 0000000140050c68     libucrtd:lcidtoname_downlevel.obj
 0002:0000dc78       ??_C@_1M@LAKFNPAN@?$AAe?$AAn?$AA?9?$AAz?$AAa@ 0000000140050c78     libucrtd:lcidtoname_downlevel.obj
 0002:0000dc88       ??_C@_1M@MFNHNHEO@?$AAe?$AAn?$AA?9?$AAz?$AAw@ 0000000140050c88     libucrtd:lcidtoname_downlevel.obj
 0002:0000dc98       ??_C@_1M@EJEINPHM@?$AAe?$AAs?$AA?9?$AAa?$AAr@ 0000000140050c98     libucrtd:lcidtoname_downlevel.obj
 0002:0000dca8       ??_C@_1M@GNKPCCJA@?$AAe?$AAs?$AA?9?$AAb?$AAo@ 0000000140050ca8     libucrtd:lcidtoname_downlevel.obj
 0002:0000dcb8       ??_C@_1M@LEEGFONL@?$AAe?$AAs?$AA?9?$AAc?$AAl@ 0000000140050cb8     libucrtd:lcidtoname_downlevel.obj
 0002:0000dcc8       ??_C@_1M@KGPDPBDF@?$AAe?$AAs?$AA?9?$AAc?$AAo@ 0000000140050cc8     libucrtd:lcidtoname_downlevel.obj
 0002:0000dcd8       ??_C@_1M@EIAHOHH@?$AAe?$AAs?$AA?9?$AAc?$AAr@ 0000000140050cd8     libucrtd:lcidtoname_downlevel.obj
 0002:0000dce8       ??_C@_1M@LLPGMBIN@?$AAe?$AAs?$AA?9?$AAd?$AAo@ 0000000140050ce8     libucrtd:lcidtoname_downlevel.obj
 0002:0000dcf8       ??_C@_1M@DKHMKNJA@?$AAe?$AAs?$AA?9?$AAe?$AAc@ 0000000140050cf8     libucrtd:lcidtoname_downlevel.obj
 0002:0000dd08       ??_C@_1M@GKGFPKAP@?$AAe?$AAs?$AA?9?$AAe?$AAs@ 0000000140050d08     libucrtd:lcidtoname_downlevel.obj
 0002:0000dd18       ??_C@_1M@LKHKGDLN@?$AAe?$AAs?$AA?9?$AAg?$AAt@ 0000000140050d18     libucrtd:lcidtoname_downlevel.obj
 0002:0000dd28       ??_C@_1M@HEIIGGJD@?$AAe?$AAs?$AA?9?$AAh?$AAn@ 0000000140050d28     libucrtd:lcidtoname_downlevel.obj
 0002:0000dd38       ??_C@_1M@FBDHPPGD@?$AAe?$AAs?$AA?9?$AAm?$AAx@ 0000000140050d38     libucrtd:lcidtoname_downlevel.obj
 0002:0000dd48       ??_C@_1M@DPAGLNDH@?$AAe?$AAs?$AA?9?$AAn?$AAi@ 0000000140050d48     libucrtd:lcidtoname_downlevel.obj
 0002:0000dd58       ??_C@_1M@MDGOPGDD@?$AAe?$AAs?$AA?9?$AAp?$AAa@ 0000000140050d58     libucrtd:lcidtoname_downlevel.obj
 0002:0000dd68       ??_C@_1M@EMAMGBGE@?$AAe?$AAs?$AA?9?$AAp?$AAe@ 0000000140050d68     libucrtd:lcidtoname_downlevel.obj
 0002:0000dd78       ??_C@_1M@IBMCAOEC@?$AAe?$AAs?$AA?9?$AAp?$AAr@ 0000000140050d78     libucrtd:lcidtoname_downlevel.obj
 0002:0000dd88       ??_C@_1M@FGMDIJED@?$AAe?$AAs?$AA?9?$AAp?$AAy@ 0000000140050d88     libucrtd:lcidtoname_downlevel.obj
 0002:0000dd98       ??_C@_1M@IIDEOLLL@?$AAe?$AAs?$AA?9?$AAs?$AAv@ 0000000140050d98     libucrtd:lcidtoname_downlevel.obj
 0002:0000dda8       ??_C@_1M@GAOBIPA@?$AAe?$AAs?$AA?9?$AAu?$AAy@ 0000000140050da8     libucrtd:lcidtoname_downlevel.obj
 0002:0000ddb8       ??_C@_1M@JKFFICHJ@?$AAe?$AAs?$AA?9?$AAv?$AAe@ 0000000140050db8     libucrtd:lcidtoname_downlevel.obj
 0002:0000ddc8       ??_C@_1M@PNMLOJDF@?$AAe?$AAt?$AA?9?$AAe?$AAe@ 0000000140050dc8     libucrtd:lcidtoname_downlevel.obj
 0002:0000ddd8       ??_C@_1M@GHHLIKEI@?$AAe?$AAu?$AA?9?$AAe?$AAs@ 0000000140050dd8     libucrtd:lcidtoname_downlevel.obj
 0002:0000dde8       ??_C@_1M@PBNONODE@?$AAf?$AAa?$AA?9?$AAi?$AAr@ 0000000140050de8     libucrtd:lcidtoname_downlevel.obj
 0002:0000ddf8       ??_C@_1M@JEEHPMIL@?$AAf?$AAi?$AA?9?$AAf?$AAi@ 0000000140050df8     libucrtd:lcidtoname_downlevel.obj
 0002:0000de08       ??_C@_1M@LMDCNDBA@?$AAf?$AAo?$AA?9?$AAf?$AAo@ 0000000140050e08     libucrtd:lcidtoname_downlevel.obj
 0002:0000de18       ??_C@_1M@JKEOHLDK@?$AAf?$AAr?$AA?9?$AAb?$AAe@ 0000000140050e18     libucrtd:lcidtoname_downlevel.obj
 0002:0000de28       ??_C@_1M@NOHADPMI@?$AAf?$AAr?$AA?9?$AAc?$AAa@ 0000000140050e28     libucrtd:lcidtoname_downlevel.obj
 0002:0000de38       ??_C@_1M@KDHIHAEC@?$AAf?$AAr?$AA?9?$AAc?$AAh@ 0000000140050e38     libucrtd:lcidtoname_downlevel.obj
 0002:0000de48       ??_C@_1M@MMBBFGAK@?$AAf?$AAr?$AA?9?$AAf?$AAr@ 0000000140050e48     libucrtd:lcidtoname_downlevel.obj
 0002:0000de58       ??_C@_1M@PAFNENNF@?$AAf?$AAr?$AA?9?$AAl?$AAu@ 0000000140050e58     libucrtd:lcidtoname_downlevel.obj
 0002:0000de68       ??_C@_1M@EOHDJGDD@?$AAf?$AAr?$AA?9?$AAm?$AAc@ 0000000140050e68     libucrtd:lcidtoname_downlevel.obj
 0002:0000de78       ??_C@_1M@FAPLLOPF@?$AAg?$AAl?$AA?9?$AAe?$AAs@ 0000000140050e78     libucrtd:lcidtoname_downlevel.obj
 0002:0000de88       ??_C@_1M@FOPBFLOO@?$AAg?$AAu?$AA?9?$AAi?$AAn@ 0000000140050e88     libucrtd:lcidtoname_downlevel.obj
 0002:0000de98       ??_C@_1M@KBMCINPM@?$AAh?$AAe?$AA?9?$AAi?$AAl@ 0000000140050e98     libucrtd:lcidtoname_downlevel.obj
 0002:0000dea8       ??_C@_1M@BBPHKFPJ@?$AAh?$AAi?$AA?9?$AAi?$AAn@ 0000000140050ea8     libucrtd:lcidtoname_downlevel.obj
 0002:0000deb8       ??_C@_1M@PMBNDPHD@?$AAh?$AAr?$AA?9?$AAb?$AAa@ 0000000140050eb8     libucrtd:lcidtoname_downlevel.obj
 0002:0000dec8       ??_C@_1M@BPCKOEGE@?$AAh?$AAr?$AA?9?$AAh?$AAr@ 0000000140050ec8     libucrtd:lcidtoname_downlevel.obj
 0002:0000ded8       ??_C@_1M@GACBMHKE@?$AAh?$AAu?$AA?9?$AAh?$AAu@ 0000000140050ed8     libucrtd:lcidtoname_downlevel.obj
 0002:0000dee8       ??_C@_1M@MILPAJJC@?$AAh?$AAy?$AA?9?$AAa?$AAm@ 0000000140050ee8     libucrtd:lcidtoname_downlevel.obj
 0002:0000def8       ??_C@_1M@BABBICEC@?$AAi?$AAd?$AA?9?$AAi?$AAd@ 0000000140050ef8     libucrtd:lcidtoname_downlevel.obj
 0002:0000df08       ??_C@_1M@BIKNHHPF@?$AAi?$AAs?$AA?9?$AAi?$AAs@ 0000000140050f08     libucrtd:lcidtoname_downlevel.obj
 0002:0000df18       ??_C@_1M@NMPCJPHE@?$AAi?$AAt?$AA?9?$AAc?$AAh@ 0000000140050f18     libucrtd:lcidtoname_downlevel.obj
 0002:0000df28       ??_C@_1M@GHKGFEDF@?$AAi?$AAt?$AA?9?$AAi?$AAt@ 0000000140050f28     libucrtd:lcidtoname_downlevel.obj
 0002:0000df38       ??_C@_1M@NIEJCJJA@?$AAj?$AAa?$AA?9?$AAj?$AAp@ 0000000140050f38     libucrtd:lcidtoname_downlevel.obj
 0002:0000df48       ??_C@_1M@JILFNBIM@?$AAk?$AAa?$AA?9?$AAg?$AAe@ 0000000140050f48     libucrtd:lcidtoname_downlevel.obj
 0002:0000df58       ??_C@_1M@PACPMGPH@?$AAk?$AAk?$AA?9?$AAk?$AAz@ 0000000140050f58     libucrtd:lcidtoname_downlevel.obj
 0002:0000df68       ??_C@_1M@IELFGMHA@?$AAk?$AAn?$AA?9?$AAi?$AAn@ 0000000140050f68     libucrtd:lcidtoname_downlevel.obj
 0002:0000df78       ??_C@_1O@IBBJHCH@?$AAk?$AAo?$AAk?$AA?9?$AAi?$AAn@ 0000000140050f78     libucrtd:lcidtoname_downlevel.obj
 0002:0000df88       ??_C@_1M@DMHAEOGC@?$AAk?$AAo?$AA?9?$AAk?$AAr@ 0000000140050f88     libucrtd:lcidtoname_downlevel.obj
 0002:0000df98       ??_C@_1M@HBAHBIGA@?$AAk?$AAy?$AA?9?$AAk?$AAg@ 0000000140050f98     libucrtd:lcidtoname_downlevel.obj
 0002:0000dfa8       ??_C@_1M@KPMILCJG@?$AAl?$AAt?$AA?9?$AAl?$AAt@ 0000000140050fa8     libucrtd:lcidtoname_downlevel.obj
 0002:0000dfb8       ??_C@_1M@BDEKKCA@?$AAl?$AAv?$AA?9?$AAl?$AAv@ 0000000140050fb8     libucrtd:lcidtoname_downlevel.obj
 0002:0000dfc8       ??_C@_1M@ELCKCCJJ@?$AAm?$AAi?$AA?9?$AAn?$AAz@ 0000000140050fc8     libucrtd:lcidtoname_downlevel.obj
 0002:0000dfd8       ??_C@_1M@CBOOLAPA@?$AAm?$AAk?$AA?9?$AAm?$AAk@ 0000000140050fd8     libucrtd:lcidtoname_downlevel.obj
 0002:0000dfe8       ??_C@_1M@GPHNBJKN@?$AAm?$AAl?$AA?9?$AAi?$AAn@ 0000000140050fe8     libucrtd:lcidtoname_downlevel.obj
 0002:0000dff8       ??_C@_1M@PABJILIG@?$AAm?$AAn?$AA?9?$AAm?$AAn@ 0000000140050ff8     libucrtd:lcidtoname_downlevel.obj
 0002:0000e008       ??_C@_1M@FGBKKIPG@?$AAm?$AAr?$AA?9?$AAi?$AAn@ 0000000140051008     libucrtd:lcidtoname_downlevel.obj
 0002:0000e018       ??_C@_1M@NDBPDDAL@?$AAm?$AAs?$AA?9?$AAb?$AAn@ 0000000140051018     libucrtd:lcidtoname_downlevel.obj
 0002:0000e028       ??_C@_1M@OPIHOOPI@?$AAm?$AAs?$AA?9?$AAm?$AAy@ 0000000140051028     libucrtd:lcidtoname_downlevel.obj
 0002:0000e038       ??_C@_1M@PPDBCNFM@?$AAm?$AAt?$AA?9?$AAm?$AAt@ 0000000140051038     libucrtd:lcidtoname_downlevel.obj
 0002:0000e048       ??_C@_1M@KDJDKMDD@?$AAn?$AAb?$AA?9?$AAn?$AAo@ 0000000140051048     libucrtd:lcidtoname_downlevel.obj
 0002:0000e058       ??_C@_1M@KFCFLMJP@?$AAn?$AAl?$AA?9?$AAb?$AAe@ 0000000140051058     libucrtd:lcidtoname_downlevel.obj
 0002:0000e068       ??_C@_1M@KPOPDDGO@?$AAn?$AAl?$AA?9?$AAn?$AAl@ 0000000140051068     libucrtd:lcidtoname_downlevel.obj
 0002:0000e078       ??_C@_1M@LJKPEMLN@?$AAn?$AAn?$AA?9?$AAn?$AAo@ 0000000140051078     libucrtd:lcidtoname_downlevel.obj
 0002:0000e088       ??_C@_1M@BDGHHBFL@?$AAn?$AAs?$AA?9?$AAz?$AAa@ 0000000140051088     libucrtd:lcidtoname_downlevel.obj
 0002:0000e098       ??_C@_1M@IDEHOAP@?$AAp?$AAa?$AA?9?$AAi?$AAn@ 0000000140051098     libucrtd:lcidtoname_downlevel.obj
 0002:0000e0a8       ??_C@_1M@HDBKGOGH@?$AAp?$AAl?$AA?9?$AAp?$AAl@ 00000001400510a8     libucrtd:lcidtoname_downlevel.obj
 0002:0000e0b8       ??_C@_1M@LJLLCMEH@?$AAp?$AAt?$AA?9?$AAb?$AAr@ 00000001400510b8     libucrtd:lcidtoname_downlevel.obj
 0002:0000e0c8       ??_C@_1M@NCMONAAL@?$AAp?$AAt?$AA?9?$AAp?$AAt@ 00000001400510c8     libucrtd:lcidtoname_downlevel.obj
 0002:0000e0d8       ??_C@_1O@EAKMAJDN@?$AAq?$AAu?$AAz?$AA?9?$AAb?$AAo@ 00000001400510d8     libucrtd:lcidtoname_downlevel.obj
 0002:0000e0e8       ??_C@_1O@BHHPIGDN@?$AAq?$AAu?$AAz?$AA?9?$AAe?$AAc@ 00000001400510e8     libucrtd:lcidtoname_downlevel.obj
 0002:0000e0f8       ??_C@_1O@GBAPEKMJ@?$AAq?$AAu?$AAz?$AA?9?$AAp?$AAe@ 00000001400510f8     libucrtd:lcidtoname_downlevel.obj
 0002:0000e108       ??_C@_1M@CLGLEFBO@?$AAr?$AAo?$AA?9?$AAr?$AAo@ 0000000140051108     libucrtd:lcidtoname_downlevel.obj
 0002:0000e118       ??_C@_1M@CEEDODME@?$AAr?$AAu?$AA?9?$AAr?$AAu@ 0000000140051118     libucrtd:lcidtoname_downlevel.obj
 0002:0000e128       ??_C@_1M@HPKKKMPP@?$AAs?$AAa?$AA?9?$AAi?$AAn@ 0000000140051128     libucrtd:lcidtoname_downlevel.obj
 0002:0000e138       ??_C@_1M@BKMAIGOJ@?$AAs?$AAe?$AA?9?$AAf?$AAi@ 0000000140051138     libucrtd:lcidtoname_downlevel.obj
 0002:0000e148       ??_C@_1M@NDPIFLFI@?$AAs?$AAe?$AA?9?$AAn?$AAo@ 0000000140051148     libucrtd:lcidtoname_downlevel.obj
 0002:0000e158       ??_C@_1M@DANKKHJ@?$AAs?$AAe?$AA?9?$AAs?$AAe@ 0000000140051158     libucrtd:lcidtoname_downlevel.obj
 0002:0000e168       ??_C@_1M@PNBLONPJ@?$AAs?$AAk?$AA?9?$AAs?$AAk@ 0000000140051168     libucrtd:lcidtoname_downlevel.obj
 0002:0000e178       ??_C@_1M@LFMODOAL@?$AAs?$AAl?$AA?9?$AAs?$AAi@ 0000000140051178     libucrtd:lcidtoname_downlevel.obj
 0002:0000e188       ??_C@_1O@DFKOMPG@?$AAs?$AAm?$AAa?$AA?9?$AAn?$AAo@ 0000000140051188     libucrtd:lcidtoname_downlevel.obj
 0002:0000e198       ??_C@_1O@NDKPBNNH@?$AAs?$AAm?$AAa?$AA?9?$AAs?$AAe@ 0000000140051198     libucrtd:lcidtoname_downlevel.obj
 0002:0000e1a8       ??_C@_1O@PLLKBHAB@?$AAs?$AAm?$AAj?$AA?9?$AAn?$AAo@ 00000001400511a8     libucrtd:lcidtoname_downlevel.obj
 0002:0000e1b8       ??_C@_1O@CLEPOGCA@?$AAs?$AAm?$AAj?$AA?9?$AAs?$AAe@ 00000001400511b8     libucrtd:lcidtoname_downlevel.obj
 0002:0000e1c8       ??_C@_1O@DLGJGKMK@?$AAs?$AAm?$AAn?$AA?9?$AAf?$AAi@ 00000001400511c8     libucrtd:lcidtoname_downlevel.obj
 0002:0000e1d8       ??_C@_1O@OJDJGAJC@?$AAs?$AAm?$AAs?$AA?9?$AAf?$AAi@ 00000001400511d8     libucrtd:lcidtoname_downlevel.obj
 0002:0000e1e8       ??_C@_1M@BOFOGHPB@?$AAs?$AAq?$AA?9?$AAa?$AAl@ 00000001400511e8     libucrtd:lcidtoname_downlevel.obj
 0002:0000e1f8       ??_C@_1BG@LJBBIPGB@?$AAs?$AAr?$AA?9?$AAb?$AAa?$AA?9?$AAc?$AAy?$AAr?$AAl@ 00000001400511f8     libucrtd:lcidtoname_downlevel.obj
 0002:0000e210       ??_C@_1BG@JLBENFOE@?$AAs?$AAr?$AA?9?$AAb?$AAa?$AA?9?$AAl?$AAa?$AAt?$AAn@ 0000000140051210     libucrtd:lcidtoname_downlevel.obj
 0002:0000e228       ??_C@_1BG@KODPNHE@?$AAs?$AAr?$AA?9?$AAs?$AAp?$AA?9?$AAc?$AAy?$AAr?$AAl@ 0000000140051228     libucrtd:lcidtoname_downlevel.obj
 0002:0000e240       ??_C@_1BG@CIOGKHPB@?$AAs?$AAr?$AA?9?$AAs?$AAp?$AA?9?$AAl?$AAa?$AAt?$AAn@ 0000000140051240     libucrtd:lcidtoname_downlevel.obj
 0002:0000e258       ??_C@_1M@NGFJLMAC@?$AAs?$AAv?$AA?9?$AAf?$AAi@ 0000000140051258     libucrtd:lcidtoname_downlevel.obj
 0002:0000e268       ??_C@_1M@MPJEJAJC@?$AAs?$AAv?$AA?9?$AAs?$AAe@ 0000000140051268     libucrtd:lcidtoname_downlevel.obj
 0002:0000e278       ??_C@_1M@MPNDHLFK@?$AAs?$AAw?$AA?9?$AAk?$AAe@ 0000000140051278     libucrtd:lcidtoname_downlevel.obj
 0002:0000e288       ??_C@_1O@KOHBJJI@?$AAs?$AAy?$AAr?$AA?9?$AAs?$AAy@ 0000000140051288     libucrtd:lcidtoname_downlevel.obj
 0002:0000e298       ??_C@_1M@LDCEFHA@?$AAt?$AAa?$AA?9?$AAi?$AAn@ 0000000140051298     libucrtd:lcidtoname_downlevel.obj
 0002:0000e2a8       ??_C@_1M@CNJOFAK@?$AAt?$AAe?$AA?9?$AAi?$AAn@ 00000001400512a8     libucrtd:lcidtoname_downlevel.obj
 0002:0000e2b8       ??_C@_1M@GNAECACD@?$AAt?$AAh?$AA?9?$AAt?$AAh@ 00000001400512b8     libucrtd:lcidtoname_downlevel.obj
 0002:0000e2c8       ??_C@_1M@CHBIHOJO@?$AAt?$AAn?$AA?9?$AAz?$AAa@ 00000001400512c8     libucrtd:lcidtoname_downlevel.obj
 0002:0000e2d8       ??_C@_1M@GCCMIGPJ@?$AAt?$AAr?$AA?9?$AAt?$AAr@ 00000001400512d8     libucrtd:lcidtoname_downlevel.obj
 0002:0000e2e8       ??_C@_1M@CELMCNBK@?$AAt?$AAt?$AA?9?$AAr?$AAu@ 00000001400512e8     libucrtd:lcidtoname_downlevel.obj
 0002:0000e2f8       ??_C@_1M@KLMCELGA@?$AAu?$AAk?$AA?9?$AAu?$AAa@ 00000001400512f8     libucrtd:lcidtoname_downlevel.obj
 0002:0000e308       ??_C@_1M@EPAJJAJF@?$AAu?$AAr?$AA?9?$AAp?$AAk@ 0000000140051308     libucrtd:lcidtoname_downlevel.obj
 0002:0000e318       ??_C@_1BG@GEGPMCDJ@?$AAu?$AAz?$AA?9?$AAu?$AAz?$AA?9?$AAc?$AAy?$AAr?$AAl@ 0000000140051318     libucrtd:lcidtoname_downlevel.obj
 0002:0000e330       ??_C@_1BG@EGGKJILM@?$AAu?$AAz?$AA?9?$AAu?$AAz?$AA?9?$AAl?$AAa?$AAt?$AAn@ 0000000140051330     libucrtd:lcidtoname_downlevel.obj
 0002:0000e348       ??_C@_1M@GFOCLFF@?$AAv?$AAi?$AA?9?$AAv?$AAn@ 0000000140051348     libucrtd:lcidtoname_downlevel.obj
 0002:0000e358       ??_C@_1M@CPAMEDFI@?$AAx?$AAh?$AA?9?$AAz?$AAa@ 0000000140051358     libucrtd:lcidtoname_downlevel.obj
 0002:0000e368       ??_C@_1O@EBKIFIGN@?$AAz?$AAh?$AA?9?$AAc?$AAh?$AAs@ 0000000140051368     libucrtd:lcidtoname_downlevel.obj
 0002:0000e378       ??_C@_1O@NMHPGANE@?$AAz?$AAh?$AA?9?$AAc?$AAh?$AAt@ 0000000140051378     libucrtd:lcidtoname_downlevel.obj
 0002:0000e388       ??_C@_1M@LPINJOMC@?$AAz?$AAh?$AA?9?$AAc?$AAn@ 0000000140051388     libucrtd:lcidtoname_downlevel.obj
 0002:0000e398       ??_C@_1M@OCJEJODD@?$AAz?$AAh?$AA?9?$AAh?$AAk@ 0000000140051398     libucrtd:lcidtoname_downlevel.obj
 0002:0000e3a8       ??_C@_1M@DNDLJINH@?$AAz?$AAh?$AA?9?$AAm?$AAo@ 00000001400513a8     libucrtd:lcidtoname_downlevel.obj
 0002:0000e3b8       ??_C@_1M@MBFDNDND@?$AAz?$AAh?$AA?9?$AAs?$AAg@ 00000001400513b8     libucrtd:lcidtoname_downlevel.obj
 0002:0000e3c8       ??_C@_1M@IMEPLEPE@?$AAz?$AAh?$AA?9?$AAt?$AAw@ 00000001400513c8     libucrtd:lcidtoname_downlevel.obj
 0002:0000e3d8       ??_C@_1M@BBGHNHJP@?$AAz?$AAu?$AA?9?$AAz?$AAa@ 00000001400513d8     libucrtd:lcidtoname_downlevel.obj
 0002:0000e3f0       ??_C@_1GA@DEPMKPD@?$AAm?$AAi?$AAn?$AAk?$AAe?$AAr?$AAn?$AAe?$AAl?$AA?2?$AAc?$AAr?$AAt?$AAs?$AA?2@ 00000001400513f0     libucrtd:isatty.obj
 0002:0000e450       ??_C@_1BA@LEBDGIHM@?$AA_?$AAi?$AAs?$AAa?$AAt?$AAt?$AAy@ 0000000140051450     libucrtd:isatty.obj
 0002:0000e500       ??_C@_1BK@FPAMLIDG@?$AAs?$AA?5?$AA?$CB?$AA?$DN?$AA?5?$AAn?$AAu?$AAl?$AAl?$AAp?$AAt?$AAr@ 0000000140051500     libucrtd:mbstowcs.obj
 0002:0000e520       ??_C@_1GI@KABMHNPH@?$AAm?$AAi?$AAn?$AAk?$AAe?$AAr?$AAn?$AAe?$AAl?$AA?2?$AAc?$AAr?$AAt?$AAs?$AA?2@ 0000000140051520     libucrtd:mbstowcs.obj
 0002:0000e588       ??_C@_1CG@JEHFHLNG@?$AA_?$AAm?$AAb?$AAs?$AAt?$AAo?$AAw?$AAc?$AAs?$AA_?$AAl?$AA_?$AAh?$AAe?$AAl@ 0000000140051588     libucrtd:mbstowcs.obj
 0002:0000e5b0       ??_C@_1JM@MEKBACIG@?$AA?$CI?$AAp?$AAw?$AAc?$AAs?$AA?5?$AA?$DN?$AA?$DN?$AA?5?$AAn?$AAu?$AAl?$AAl?$AAp?$AAt@ 00000001400515b0     libucrtd:mbstowcs.obj
 0002:0000e650       ??_C@_1CG@BILJJDPK@?$AA_?$AAm?$AAb?$AAs?$AAt?$AAo?$AAw?$AAc?$AAs?$AA_?$AAi?$AAn?$AAt?$AAe?$AAr@ 0000000140051650     libucrtd:mbstowcs.obj
 0002:0000e678       ??_C@_1CM@LLECFMFH@?$AAb?$AAu?$AAf?$AAf?$AAe?$AAr?$AAS?$AAi?$AAz?$AAe?$AA?5?$AA?$DM?$AA?$DN?$AA?5?$AAI@ 0000000140051678     libucrtd:mbstowcs.obj
 0002:0000e6a8       ??_C@_1CO@JNPEPJAL@?$AAr?$AAe?$AAt?$AAs?$AAi?$AAz?$AAe?$AA?5?$AA?$DM?$AA?$DN?$AA?5?$AAs?$AAi?$AAz?$AAe@ 00000001400516a8     libucrtd:mbstowcs.obj
 0002:0000e6d8       ??_C@_1CA@NOKNKDIG@?$AAp?$AAw?$AAc?$AAs?$AA?5?$AA?$CB?$AA?$DN?$AA?5?$AAn?$AAu?$AAl?$AAl?$AAp?$AAt?$AAr@ 00000001400516d8     libucrtd:wcstombs.obj
 0002:0000e700       ??_C@_1GI@EEJDEALP@?$AAm?$AAi?$AAn?$AAk?$AAe?$AAr?$AAn?$AAe?$AAl?$AA?2?$AAc?$AAr?$AAt?$AAs?$AA?2@ 0000000140051700     libucrtd:wcstombs.obj
 0002:0000e768       ??_C@_1CG@LLJCAOHF@?$AA_?$AAw?$AAc?$AAs?$AAt?$AAo?$AAm?$AAb?$AAs?$AA_?$AAl?$AA_?$AAh?$AAe?$AAl@ 0000000140051768     libucrtd:wcstombs.obj
 0002:0000e790       ??_C@_1JI@DFNKFCLG@?$AA?$CI?$AAd?$AAs?$AAt?$AA?5?$AA?$CB?$AA?$DN?$AA?5?$AAn?$AAu?$AAl?$AAl?$AAp?$AAt?$AAr@ 0000000140051790     libucrtd:wcstombs.obj
 0002:0000e828       ??_C@_1CG@DHFOOGFJ@?$AA_?$AAw?$AAc?$AAs?$AAt?$AAo?$AAm?$AAb?$AAs?$AA_?$AAi?$AAn?$AAt?$AAe?$AAr@ 0000000140051828     libucrtd:wcstombs.obj
 0002:0000e850       ??_C@_1CM@KEOGBFLI@?$AAs?$AAi?$AAz?$AAe?$AAI?$AAn?$AAB?$AAy?$AAt?$AAe?$AAs?$AA?5?$AA?$DO?$AA?5?$AAr@ 0000000140051850     libucrtd:wcstombs.obj
 0002:0000e880       ??_C@_1GI@IMEEHIAK@?$AAm?$AAi?$AAn?$AAk?$AAe?$AAr?$AAn?$AAe?$AAl?$AA?2?$AAc?$AAr?$AAt?$AAs?$AA?2@ 0000000140051880     libucrtd:_fptostr.obj
 0002:0000e8e8       ??_C@_1DG@NMGBKPMI@?$AA_?$AA_?$AAa?$AAc?$AAr?$AAt?$AA_?$AAf?$AAp?$AA_?$AAs?$AAt?$AAr?$AAf?$AAl@ 00000001400518e8     libucrtd:_fptostr.obj
 0002:0000e920       ??_C@_1IE@EAOKIIFP@?$AAb?$AAu?$AAf?$AAf?$AAe?$AAr?$AA_?$AAc?$AAo?$AAu?$AAn?$AAt?$AA?5?$AA?$DO?$AA?5@ 0000000140051920     libucrtd:_fptostr.obj
 0002:0000e9a8       ??_C@_1CA@EDEEBMBB@?$AAp?$AAf?$AAl?$AAt?$AA?5?$AA?$CB?$AA?$DN?$AA?5?$AAn?$AAu?$AAl?$AAl?$AAp?$AAt?$AAr@ 00000001400519a8     libucrtd:_fptostr.obj
 0002:0000e9d0       ?large_power_data@?1??multiply_by_power_of_ten@__crt_strtox@@YA_NAEAUbig_integer@2@I@Z@4QBIB 00000001400519d0     libucrtd:cfout.obj
 0002:0000f2e0       ?large_power_indices@?1??multiply_by_power_of_ten@__crt_strtox@@YA_NAEAUbig_integer@2@I@Z@4QBUunpack_index@?1??12@YA_N0I@Z@B 00000001400522e0     libucrtd:cfout.obj
 0002:0000f378       ?small_powers_of_ten@?1??multiply_by_power_of_ten@__crt_strtox@@YA_NAEAUbig_integer@2@I@Z@4QBIB 0000000140052378     libucrtd:cfout.obj
 0002:0000f3a0       ??_C@_1DI@GICAMMFM@?$AA?$CI?$AA?$CC?$AAD?$AAi?$AAv?$AAi?$AAs?$AAi?$AAo?$AAn?$AA?5?$AAb?$AAy?$AA?5?$AAz@ 00000001400523a0     libucrtd:cfout.obj
 0002:0000f3e0       ??_C@_1GO@BFGDDONN@?$AAm?$AAi?$AAn?$AAk?$AAe?$AAr?$AAn?$AAe?$AAl?$AA?2?$AAc?$AAr?$AAt?$AAs?$AA?2@ 00000001400523e0     libucrtd:cfout.obj
 0002:0000f450       ??_C@_1GC@DDAKNBNC@?$AAm?$AAi?$AAn?$AAk?$AAe?$AAr?$AAn?$AAe?$AAl?$AA?2?$AAc?$AAr?$AAt?$AAs?$AA?2@ 0000000140052450     libucrtd:cfout.obj
 0002:0000f4b8       ??_C@_1BM@FAAOAKKO@?$AA_?$AA_?$AAa?$AAc?$AAr?$AAt?$AA_?$AAf?$AAl?$AAt?$AAo?$AAu?$AAt@ 00000001400524b8     libucrtd:cfout.obj
 0002:0000f4e0       ??_C@_1EI@OACEJKEP@?$AAs?$AAt?$AAr?$AAc?$AAp?$AAy?$AA_?$AAs?$AA?$CI?$AAr?$AAe?$AAs?$AAu?$AAl?$AAt@ 00000001400524e0     libucrtd:cfout.obj
 0002:0000f528       ??_C@_01GBGANLPD@0@        0000000140052528     libucrtd:cfout.obj
 0002:0000f530       ??_C@_1FC@KIECGFMP@?$AAs?$AAt?$AAr?$AAc?$AAp?$AAy?$AA_?$AAs?$AA?$CI?$AAr?$AAe?$AAs?$AAu?$AAl?$AAt@ 0000000140052530     libucrtd:cfout.obj
 0002:0000f584       ??_C@_05DNEBIAHO@1?$CDINF@ 0000000140052584     libucrtd:cfout.obj
 0002:0000f590       ??_C@_1FC@NFPJEIBD@?$AAs?$AAt?$AAr?$AAc?$AAp?$AAy?$AA_?$AAs?$AA?$CI?$AAr?$AAe?$AAs?$AAu?$AAl?$AAt@ 0000000140052590     libucrtd:cfout.obj
 0002:0000f5e4       ??_C@_06IMKFLFPG@1?$CDQNAN@ 00000001400525e4     libucrtd:cfout.obj
 0002:0000f5f0       ??_C@_1FC@DEJHIMLO@?$AAs?$AAt?$AAr?$AAc?$AAp?$AAy?$AA_?$AAs?$AA?$CI?$AAr?$AAe?$AAs?$AAu?$AAl?$AAt@ 00000001400525f0     libucrtd:cfout.obj
 0002:0000f644       ??_C@_06PGGFOGJG@1?$CDSNAN@ 0000000140052644     libucrtd:cfout.obj
 0002:0000f650       ??_C@_1FC@KMLHLFPC@?$AAs?$AAt?$AAr?$AAc?$AAp?$AAy?$AA_?$AAs?$AA?$CI?$AAr?$AAe?$AAs?$AAu?$AAl?$AAt@ 0000000140052650     libucrtd:cfout.obj
 0002:0000f6a4       ??_C@_05PHHOCPM@1?$CDIND@  00000001400526a4     libucrtd:cfout.obj
 0002:0000f6b0       ??_C@_1DE@KHKADFOO@?$AAm?$AAa?$AAn?$AAt?$AAi?$AAs?$AAs?$AAa?$AA_?$AAb?$AAu?$AAf?$AAf?$AAe?$AAr@ 00000001400526b0     libucrtd:cfout.obj
 0002:0000f6f0       ??_C@_1FI@LFKLOPAC@?$AA?$CI?$AA?$CC?$AAu?$AAn?$AAe?$AAx?$AAp?$AAe?$AAc?$AAt?$AAe?$AAd?$AA?5?$AAi?$AAn@ 00000001400526f0     libucrtd:cfout.obj
 0002:0000f750       ??_C@_1FG@MLHBDPBG@?$AAq?$AAu?$AAo?$AAt?$AAi?$AAe?$AAn?$AAt?$AA?5?$AA?$DM?$AA?5?$AAd?$AAi?$AAg?$AAi@ 0000000140052750     libucrtd:cfout.obj
 0002:0000f7b0       ??_C@_1EK@OANGPA@?$AA1?$AA?5?$AA?$DM?$AA?$DN?$AA?5?$AAt?$AAr?$AAa?$AAi?$AAl?$AA_?$AAb?$AAy?$AAt?$AAe@ 00000001400527b0     libucrtd:c32rtomb.obj
 0002:0000f800       ??_C@_1GI@FBFKMNDD@?$AAm?$AAi?$AAn?$AAk?$AAe?$AAr?$AAn?$AAe?$AAl?$AA?2?$AAc?$AAr?$AAt?$AAs?$AA?2@ 0000000140052800     libucrtd:c32rtomb.obj
 0002:0000f870       ??_C@_1EA@DDDCIHI@?$AAc?$AA3?$AA2?$AA?5?$AA?$DM?$AA?5?$AA?$CI?$AA1?$AAu?$AA?5?$AA?$DM?$AA?$DM?$AA?5?$AA?$CI?$AA7@ 0000000140052870     libucrtd:c32rtomb.obj
 0002:0000f8b0       ??_C@_1GG@MCCIENJO@?$AAm?$AAi?$AAn?$AAk?$AAe?$AAr?$AAn?$AAe?$AAl?$AA?2?$AAc?$AAr?$AAt?$AAs?$AA?2@ 00000001400528b0     libucrtd:mbrtowc.obj
 0002:0000f920       ??_C@_1EK@MCEFBPIK@?$AAr?$AAe?$AAt?$AAv?$AAa?$AAl?$AA?5?$AA?$CB?$AA?$DN?$AA?5?$AA_?$AA_?$AAc?$AAr?$AAt@ 0000000140052920     libucrtd:mbrtowc.obj
 0002:0000f970       ??_C@_1GE@GPOPIOIG@?$AAm?$AAi?$AAn?$AAk?$AAe?$AAr?$AAn?$AAe?$AAl?$AA?2?$AAc?$AAr?$AAt?$AAs?$AA?2@ 0000000140052970     libucrtd:_freebuf.obj
 0002:0000fa00       ??_C@_1GA@MPOOLHCO@?$AAm?$AAi?$AAn?$AAk?$AAe?$AAr?$AAn?$AAe?$AAl?$AA?2?$AAc?$AAr?$AAt?$AAs?$AA?2@ 0000000140052a00     libucrtd:commit.obj
 0002:0000fa60       ??_C@_1BA@FLNMBBIM@?$AA_?$AAc?$AAo?$AAm?$AAm?$AAi?$AAt@ 0000000140052a60     libucrtd:commit.obj
 0002:0000faa0       ??_C@_1FO@CAMPMGCN@?$AAm?$AAi?$AAn?$AAk?$AAe?$AAr?$AAn?$AAe?$AAl?$AA?2?$AAc?$AAr?$AAt?$AAs?$AA?2@ 0000000140052aa0     libucrtd:write.obj
 0002:0000fb00       ??_C@_1CA@PNHCPGNO@?$AA_?$AAw?$AAr?$AAi?$AAt?$AAe?$AA_?$AAi?$AAn?$AAt?$AAe?$AAr?$AAn?$AAa?$AAl@ 0000000140052b00     libucrtd:write.obj
 0002:0000fb20       ??_C@_1CK@MMEFCHHN@?$AA?$CB?$AA_?$AAd?$AAb?$AAc?$AAs?$AAB?$AAu?$AAf?$AAf?$AAe?$AAr?$AAU?$AAs?$AAe@ 0000000140052b20     libucrtd:write.obj
 0002:0000fb50       ??_C@_1EG@LICJGLJJ@?$AA1?$AA?5?$AA?$DM?$AA?5?$AAm?$AAb?$AA_?$AAl?$AAe?$AAn?$AA?5?$AA?$CG?$AA?$CG?$AA?5?$AAm@ 0000000140052b50     libucrtd:write.obj
 0002:0000fba0       ??_C@_1FC@NFILPJB@?$AAm?$AAb?$AA_?$AAb?$AAu?$AAf?$AA_?$AAu?$AAs?$AAe?$AAd?$AA?5?$AA?$CL?$AA?5?$AAb@ 0000000140052ba0     libucrtd:write.obj
 0002:0000fc00       ??_C@_1FC@HEJOPHLA@?$AAa?$AAv?$AAa?$AAi?$AAl?$AAa?$AAb?$AAl?$AAe?$AA_?$AAb?$AAy?$AAt?$AAe?$AAs@ 0000000140052c00     libucrtd:write.obj
 0002:0000fc60       ??_C@_1GG@JOGHJGBM@?$AA_?$AAi?$AAs?$AAl?$AAe?$AAa?$AAd?$AAb?$AAy?$AAt?$AAe?$AA_?$AAf?$AAa?$AAs@ 0000000140052c60     libucrtd:write.obj
 0002:0000fcc8       ??_C@_1BM@NCANHCIP@?$AA_?$AAw?$AAr?$AAi?$AAt?$AAe?$AA_?$AAn?$AAo?$AAl?$AAo?$AAc?$AAk@ 0000000140052cc8     libucrtd:write.obj
 0002:0000fce8       ??_C@_1CK@CPEAGIIP@?$AAb?$AAu?$AAf?$AAf?$AAe?$AAr?$AA_?$AAs?$AAi?$AAz?$AAe?$AA?5?$AA?$CF?$AA?5?$AA2@ 0000000140052ce8     libucrtd:write.obj
 0002:0000ff70       __real@3ff0000000000000    0000000140052f70     libucrtd:ceil.obj
 0002:0000ff78       ??_C@_1DG@JNDMIEJL@?$AA?$CI?$AA?$CC?$AAI?$AAn?$AAv?$AAa?$AAl?$AAi?$AAd?$AA?5?$AAi?$AAn?$AAp?$AAu?$AAt@ 0000000140052f78     libucrtd:contrlfp.obj
 0002:0000ffb0       ??_C@_1FO@HHLKCIKB@?$AAm?$AAi?$AAn?$AAk?$AAe?$AAr?$AAn?$AAe?$AAl?$AA?2?$AAc?$AAr?$AAt?$AAs?$AA?2@ 0000000140052fb0     libucrtd:contrlfp.obj
 0002:00010010       ??_C@_1BK@CDOALEA@?$AA_?$AAc?$AAo?$AAn?$AAt?$AAr?$AAo?$AAl?$AAf?$AAp?$AA_?$AAs@ 0000000140053010     libucrtd:contrlfp.obj
 0002:00010030       ??_C@_1GA@DKNOMDCL@?$AAm?$AAi?$AAn?$AAk?$AAe?$AAr?$AAn?$AAe?$AAl?$AA?2?$AAc?$AAr?$AAt?$AAs?$AA?2@ 0000000140053030     libucrtd:fclose.obj
 0002:00010090       ??_C@_1DA@IHIKPHIN@?$AA_?$AAf?$AAc?$AAl?$AAo?$AAs?$AAe?$AA_?$AAn?$AAo?$AAl?$AAo?$AAc?$AAk?$AA_@ 0000000140053090     libucrtd:fclose.obj
 0002:000100c0       ??_C@_1CC@LPELGHFC@?$AA_?$AAf?$AAc?$AAl?$AAo?$AAs?$AAe?$AA_?$AAi?$AAn?$AAt?$AAe?$AAr?$AAn?$AAa@ 00000001400530c0     libucrtd:fclose.obj
 0002:000100f0       ??_C@_1FO@KIIHJNFN@?$AAm?$AAi?$AAn?$AAk?$AAe?$AAr?$AAn?$AAe?$AAl?$AA?2?$AAc?$AAr?$AAt?$AAs?$AA?2@ 00000001400530f0     libucrtd:lseek.obj
 0002:00010150       ??_C@_1DM@LMLOLGJ@?$AA?$CI?$AA?$CC?$AAI?$AAn?$AAv?$AAa?$AAl?$AAi?$AAd?$AA?5?$AAf?$AAi?$AAl?$AAe?$AA?5@ 0000000140053150     libucrtd:lseek.obj
 0002:00010190       __log10_256_lead           0000000140053190     libucrtd:log10_256_lead_tail_table.obj
 0002:000109a0       __log10_256_tail           00000001400539a0     libucrtd:log10_256_lead_tail_table.obj
 0002:000111b0       __log_F_inv_qword          00000001400541b0     libucrtd:log_f_inv_qword_table.obj
 0002:000119c0       ??_C@_1EK@PDBKILLM@?$AA?$CI?$AAm?$AAa?$AAs?$AAk?$AA?$CG?$AA?$HO?$AA?$CI?$AA_?$AAM?$AAC?$AAW?$AA_?$AAD?$AAN@ 00000001400549c0     libucrtd:ieee.obj
 0002:00011a10       ??_C@_1GC@IEFABLII@?$AAm?$AAi?$AAn?$AAk?$AAe?$AAr?$AAn?$AAe?$AAl?$AA?2?$AAc?$AAr?$AAt?$AAs?$AA?2@ 0000000140054a10     libucrtd:ieee.obj
 0002:00011aa0       ??_C@_1FO@IPDGALOE@?$AAm?$AAi?$AAn?$AAk?$AAe?$AAr?$AAn?$AAe?$AAl?$AA?2?$AAc?$AAr?$AAt?$AAs?$AA?2@ 0000000140054aa0     libucrtd:close.obj
 0002:00011b00       ??_C@_1CA@GBJHJLEM@?$AA_?$AAc?$AAl?$AAo?$AAs?$AAe?$AA_?$AAi?$AAn?$AAt?$AAe?$AAr?$AAn?$AAa?$AAl@ 0000000140054b00     libucrtd:close.obj
 0002:00011b48       ??_C@_1BA@BALFACEM@?$AAC?$AAO?$AAN?$AAO?$AAU?$AAT?$AA$@ 0000000140054b48     libucrtd:initcon.obj
 0002:00011bb0       _load_config_used          0000000140054bb0     LIBCMTD:loadcfg.obj
 0002:00011d00       ??_R4exception@std@@6B@    0000000140054d00     LIBCMTD:throw_bad_alloc.obj
 0002:00011d28       ??_R3exception@std@@8      0000000140054d28     LIBCMTD:throw_bad_alloc.obj
 0002:00011d40       ??_R2exception@std@@8      0000000140054d40     LIBCMTD:throw_bad_alloc.obj
 0002:00011d50       ??_R1A@?0A@EA@exception@std@@8 0000000140054d50     LIBCMTD:throw_bad_alloc.obj
 0002:00011d78       ??_R4bad_alloc@std@@6B@    0000000140054d78     LIBCMTD:throw_bad_alloc.obj
 0002:00011da0       ??_R3bad_alloc@std@@8      0000000140054da0     LIBCMTD:throw_bad_alloc.obj
 0002:00011db8       ??_R2bad_alloc@std@@8      0000000140054db8     LIBCMTD:throw_bad_alloc.obj
 0002:00011dd0       ??_R1A@?0A@EA@bad_alloc@std@@8 0000000140054dd0     LIBCMTD:throw_bad_alloc.obj
 0002:00011df8       ??_R4bad_array_new_length@std@@6B@ 0000000140054df8     LIBCMTD:throw_bad_alloc.obj
 0002:00011e20       ??_R3bad_array_new_length@std@@8 0000000140054e20     LIBCMTD:throw_bad_alloc.obj
 0002:00011e38       ??_R2bad_array_new_length@std@@8 0000000140054e38     LIBCMTD:throw_bad_alloc.obj
 0002:00011e58       ??_R1A@?0A@EA@bad_array_new_length@std@@8 0000000140054e58     LIBCMTD:throw_bad_alloc.obj
 0002:00011e80       ??_R4type_info@@6B@        0000000140054e80     LIBCMTD:std_type_info_static.obj
 0002:00011ea8       ??_R3type_info@@8          0000000140054ea8     LIBCMTD:std_type_info_static.obj
 0002:00011ec0       ??_R2type_info@@8          0000000140054ec0     LIBCMTD:std_type_info_static.obj
 0002:00011ed0       ??_R1A@?0A@EA@type_info@@8 0000000140054ed0     LIBCMTD:std_type_info_static.obj
 0002:00011ef8       ??_R4bad_exception@std@@6B@ 0000000140054ef8     libvcruntimed:frame.obj
 0002:00011f20       ??_R3bad_exception@std@@8  0000000140054f20     libvcruntimed:frame.obj
 0002:00011f38       ??_R2bad_exception@std@@8  0000000140054f38     libvcruntimed:frame.obj
 0002:00011f50       ??_R1A@?0A@EA@bad_exception@std@@8 0000000140054f50     libvcruntimed:frame.obj
 0002:00011f74       __volatile_metadata        0000000140054f74     <linker-defined>
 0002:00012300       __rtc_iaa                  0000000140055300     LIBCMTD:initsect.obj
 0002:00012308       __rtc_izz                  0000000140055308     LIBCMTD:initsect.obj
 0002:00012310       __rtc_taa                  0000000140055310     LIBCMTD:initsect.obj
 0002:00012318       __rtc_tzz                  0000000140055318     LIBCMTD:initsect.obj
 0002:00013668       _TI2?AVbad_alloc@std@@     0000000140056668     LIBCMTD:throw_bad_alloc.obj
 0002:00013688       _CTA2?AVbad_alloc@std@@    0000000140056688     LIBCMTD:throw_bad_alloc.obj
 0002:000136a0       _CT??_R0?AVbad_alloc@std@@@8??0bad_alloc@std@@QEAA@AEBV01@@Z24 00000001400566a0     LIBCMTD:throw_bad_alloc.obj
 0002:000136c8       _CT??_R0?AVexception@std@@@8??0exception@std@@QEAA@AEBV01@@Z24 00000001400566c8     LIBCMTD:throw_bad_alloc.obj
 0002:000136f0       _TI3?AVbad_array_new_length@std@@ 00000001400566f0     LIBCMTD:throw_bad_alloc.obj
 0002:00013710       _CTA3?AVbad_array_new_length@std@@ 0000000140056710     LIBCMTD:throw_bad_alloc.obj
 0002:00013730       _CT??_R0?AVbad_array_new_length@std@@@8??0bad_array_new_length@std@@QEAA@AEBV01@@Z24 0000000140056730     LIBCMTD:throw_bad_alloc.obj
 0002:00013758       _TI2?AVbad_exception@std@@ 0000000140056758     libvcruntimed:frame.obj
 0002:00013778       _CTA2?AVbad_exception@std@@ 0000000140056778     libvcruntimed:frame.obj
 0002:00013790       _CT??_R0?AVbad_exception@std@@@8??0bad_exception@std@@QEAA@AEBV01@@Z24 0000000140056790     libvcruntimed:frame.obj
 0002:000137b4       __IMPORT_DESCRIPTOR_USER32 00000001400567b4     user32:USER32.dll
 0002:000137c8       __IMPORT_DESCRIPTOR_GDI32  00000001400567c8     gdi32:GDI32.dll
 0002:000137dc       __IMPORT_DESCRIPTOR_WINMM  00000001400567dc     winmm:WINMM.dll
 0002:000137f0       __IMPORT_DESCRIPTOR_KERNEL32 00000001400567f0     kernel32:KERNEL32.dll
 0002:00013804       __NULL_IMPORT_DESCRIPTOR   0000000140056804     user32:USER32.dll
 0003:00000000       ?remangle@@3MA             0000000140058000     Win32_Shah.obj
 0003:00000010       __security_cookie_complement 0000000140058010     LIBCMTD:gs_cookie.obj
 0003:00000018       __security_cookie          0000000140058018     LIBCMTD:gs_cookie.obj
 0003:00000020       _fltused                   0000000140058020     LIBCMTD:fltused.obj
 0003:00000024       __scrt_native_dllmain_reason 0000000140058024     LIBCMTD:utility.obj
 0003:00000028       __scrt_default_matherr     0000000140058028     LIBCMTD:matherr.obj
 0003:00000030       __isa_available            0000000140058030     LIBCMTD:cpu_disp.obj
 0003:00000034       __isa_enabled              0000000140058034     LIBCMTD:cpu_disp.obj
 0003:00000038       __memcpy_nt_iters          0000000140058038     LIBCMTD:cpu_disp.obj
 0003:00000040       __memset_nt_iters          0000000140058040     LIBCMTD:cpu_disp.obj
 0003:00000064       _crtDbgFlag                0000000140058064     libucrtd:debug_heap.obj
 0003:00000068       _crtBreakAlloc             0000000140058068     libucrtd:debug_heap.obj
 0003:00000070       __abort_behavior           0000000140058070     libucrtd:abort.obj
 0003:000000a0       __acrt_initial_multibyte_data 00000001400580a0     libucrtd:mbctype.obj
 0003:000005e0       __acrt_initial_locale_data 00000001400585e0     libucrtd:nlsdata.obj
 0003:00000738       __acrt_initial_locale_pointers 0000000140058738     libucrtd:nlsdata.obj
 0003:00000748       __acrt_wide_c_locale_string 0000000140058748     libucrtd:nlsdata.obj
 0003:00000750       __acrt_lconv_c             0000000140058750     libucrtd:localeconv.obj
 0003:000007e8       __acrt_lconv_static_decimal 00000001400587e8     libucrtd:localeconv.obj
 0003:000007ec       __acrt_lconv_static_W_decimal 00000001400587ec     libucrtd:localeconv.obj
 0003:000007f0       __globallocalestatus       00000001400587f0     libucrtd:glstatus.obj
 0003:000007f8       _pfnAllocHook              00000001400587f8     libucrtd:debug_heap_hook.obj
 0003:00000800       _crtAssertBusy             0000000140058800     libucrtd:dbgrptt.obj
 0003:00000808       _CrtDbgMode                0000000140058808     libucrtd:dbgrptt.obj
 0003:00000818       _CrtDbgFile                0000000140058818     libucrtd:dbgrptt.obj
 0003:00000840       _iob                       0000000140058840     libucrtd:_file.obj
 0003:00000950       _lookuptrailbytes          0000000140058950     libucrtd:read.obj
 0003:00000a60       ??_R0?AVbad_alloc@std@@@8  0000000140058a60     LIBCMTD:throw_bad_alloc.obj
 0003:00000a88       ??_R0?AVexception@std@@@8  0000000140058a88     LIBCMTD:throw_bad_alloc.obj
 0003:00000ab0       ??_R0?AVbad_array_new_length@std@@@8 0000000140058ab0     LIBCMTD:throw_bad_alloc.obj
 0003:00000ae0       ??_R0?AVbad_exception@std@@@8 0000000140058ae0     libvcruntimed:frame.obj
 0003:00000b08       ??_R0?AVtype_info@@@8      0000000140058b08     LIBCMTD:std_type_info_static.obj
 0003:00000b30       ?playerx@@3MA              0000000140058b30     Win32_Shah.obj
 0003:00000b34       ?playery@@3MA              0000000140058b34     Win32_Shah.obj
 0003:000010f0       __scrt_current_native_startup_state 00000001400590f0     LIBCMTD:utility.obj
 0003:000010f8       __scrt_native_startup_lock 00000001400590f8     LIBCMTD:utility.obj
 0003:00001140       ?__type_info_root_node@@3U__type_info_node@@A 0000000140059140     LIBCMTD:tncleanup.obj
 0003:00001150       ?_OptionsStorage@?1??__local_stdio_printf_options@@9@4_KA 0000000140059150     LIBCMTD:default_local_stdio_options.obj
 0003:00001158       ?_OptionsStorage@?1??__local_stdio_scanf_options@@9@4_KA 0000000140059158     LIBCMTD:default_local_stdio_options.obj
 0003:00001160       __scrt_debugger_hook_flag  0000000140059160     LIBCMTD:utility_desktop.obj
 0003:00001168       __castguard_check_failure_os_handled_fptr 0000000140059168     LIBCMTD:guard_support.obj
 0003:00001170       __favor                    0000000140059170     LIBCMTD:cpu_disp.obj
 0003:00001178       ?__WinRTOutOfMemoryExceptionCallback@@3P6APEAXXZEA 0000000140059178     libvcruntimed:ehhelpers.obj
 0003:00001230       ?pArgList@UnDecorator@@0PEAVReplicator@@EA 0000000140059230     libvcruntimed:undname.obj
 0003:00001238       ?pZNameList@UnDecorator@@0PEAVReplicator@@EA 0000000140059238     libvcruntimed:undname.obj
 0003:00001240       ?pTemplateArgList@UnDecorator@@0PEAVReplicator@@EA 0000000140059240     libvcruntimed:undname.obj
 0003:00001248       ?gName@UnDecorator@@0PEBDEB 0000000140059248     libvcruntimed:undname.obj
 0003:00001250       ?name@UnDecorator@@0PEBDEB 0000000140059250     libvcruntimed:undname.obj
 0003:00001258       ?disableFlags@UnDecorator@@0KA 0000000140059258     libvcruntimed:undname.obj
 0003:0000125c       ?fExplicitTemplateParams@UnDecorator@@0_NA 000000014005925c     libvcruntimed:undname.obj
 0003:0000125d       ?fGetTemplateArgumentList@UnDecorator@@0_NA 000000014005925d     libvcruntimed:undname.obj
 0003:00001260       ?m_pGetParameter@UnDecorator@@0P6APEADJ@ZEA 0000000140059260     libvcruntimed:undname.obj
 0003:00001268       ?m_CHPENameOffset@UnDecorator@@0KA 0000000140059268     libvcruntimed:undname.obj
 0003:0000126c       ?m_recursionLevel@UnDecorator@@0KA 000000014005926c     libvcruntimed:undname.obj
 0003:000012d8       __pPurecall                00000001400592d8     libvcruntimed:purevirt_data.obj
 0003:00001a28       _environ_table             0000000140059a28     libucrtd:environment_initialization.obj
 0003:00001a30       _wenviron_table            0000000140059a30     libucrtd:environment_initialization.obj
 0003:00001a38       __dcrt_initial_wide_environment 0000000140059a38     libucrtd:environment_initialization.obj
 0003:00001a40       __dcrt_initial_narrow_environment 0000000140059a40     libucrtd:environment_initialization.obj
 0003:00001a58       ?c_exit_complete@?1???R<lambda_6e4b09c48022b2350581041d5f6b0c4c>@@QEBA@XZ@4_NA 0000000140059a58     libucrtd:exit.obj
 0003:00001a5c       __acrt_locale_changed_data 0000000140059a5c     libucrtd:wsetlocale.obj
 0003:00001a64       _commode                   0000000140059a64     libucrtd:ncommode.obj
 0003:00001a68       __acrt_atexit_table        0000000140059a68     libucrtd:onexit.obj
 0003:00001a80       __acrt_at_quick_exit_table 0000000140059a80     libucrtd:onexit.obj
 0003:00001ac8       _pfnDumpClient             0000000140059ac8     libucrtd:debug_heap.obj
 0003:00001ae0       __fma3_is_available        0000000140059ae0     libucrtd:fma3_available.obj
 0003:00001ae4       __use_fma3_lib             0000000140059ae4     libucrtd:fma3_available.obj
 0003:00001d28       _mbctype                   0000000140059d28     libucrtd:mbctype.obj
 0003:00001d30       _mbcasemap                 0000000140059d30     libucrtd:mbctype.obj
 0003:00001d38       __acrt_current_multibyte_data 0000000140059d38     libucrtd:mbctype.obj
 0003:00001d48       _pgmptr                    0000000140059d48     libucrtd:argv_data.obj
 0003:00001d50       __argc                     0000000140059d50     libucrtd:argv_data.obj
 0003:00001d58       __argv                     0000000140059d58     libucrtd:argv_data.obj
 0003:00001d60       __wargv                    0000000140059d60     libucrtd:argv_data.obj
 0003:00001d68       _acmdln                    0000000140059d68     libucrtd:argv_data.obj
 0003:00001d70       _wcmdln                    0000000140059d70     libucrtd:argv_data.obj
 0003:00001d80       _fmode                     0000000140059d80     libucrtd:txtmode.obj
 0003:00001d90       __pioinfo                  0000000140059d90     libucrtd:ioinit.obj
 0003:00002190       _nhandle                   000000014005a190     libucrtd:ioinit.obj
 0003:00002198       __acrt_current_locale_data 000000014005a198     libucrtd:nlsdata.obj
 0003:00002330       __acrt_lconv_static_null   000000014005a330     libucrtd:localeconv.obj
 0003:00002334       __acrt_lconv_static_W_null 000000014005a334     libucrtd:localeconv.obj
 0003:00002338       __acrt_heap                000000014005a338     libucrtd:heap_handle.obj
 0003:00002360       __acrt_stdout_buffer       000000014005a360     libucrtd:_sftbuf.obj
 0003:00002368       __acrt_stderr_buffer       000000014005a368     libucrtd:_sftbuf.obj
 0003:00002370       _pfnReportHook             000000014005a370     libucrtd:dbgrptt.obj
 0003:00002378       _pReportHookList           000000014005a378     libucrtd:dbgrptt.obj
 0003:00002380       _pReportHookListW          000000014005a380     libucrtd:dbgrptt.obj
 0003:00002390       _nstream                   000000014005a390     libucrtd:_file.obj
 0003:00002398       __piob                     000000014005a398     libucrtd:_file.obj
 0003:000023b8       __scrt_ucrt_dll_is_in_use  000000014005a3b8     <common>
 0003:000023c0       __dyn_tls_dtor_callback    000000014005a3c0     <common>
 0003:000023c8       __dyn_tls_init_callback    000000014005a3c8     <common>

 entry point at        0001:00003df0

 Static symbols

 0000:fff9f000       .debug$S                   0000000140000000     gdi32:GDI32.dll
 0000:fff9f000       .debug$S                   0000000140000000     gdi32:GDI32.dll
 0000:fff9f000       .debug$S                   0000000140000000     kernel32:KERNEL32.dll
 0000:fff9f000       .debug$S                   0000000140000000     kernel32:KERNEL32.dll
 0000:fff9f000       .debug$S                   0000000140000000     kernel32:KERNEL32.dll
 0000:fff9f000       .debug$S                   0000000140000000     kernel32:KERNEL32.dll
 0000:fff9f000       .debug$S                   0000000140000000     kernel32:KERNEL32.dll
 0000:fff9f000       .debug$S                   0000000140000000     kernel32:KERNEL32.dll
 0000:fff9f000       .debug$S                   0000000140000000     kernel32:KERNEL32.dll
 0000:fff9f000       .debug$S                   0000000140000000     kernel32:KERNEL32.dll
 0000:fff9f000       .debug$S                   0000000140000000     kernel32:KERNEL32.dll
 0000:fff9f000       .debug$S                   0000000140000000     kernel32:KERNEL32.dll
 0000:fff9f000       .debug$S                   0000000140000000     kernel32:KERNEL32.dll
 0000:fff9f000       .debug$S                   0000000140000000     kernel32:KERNEL32.dll
 0000:fff9f000       .debug$S                   0000000140000000     kernel32:KERNEL32.dll
 0000:fff9f000       .debug$S                   0000000140000000     kernel32:KERNEL32.dll
 0000:fff9f000       .debug$S                   0000000140000000     kernel32:KERNEL32.dll
 0000:fff9f000       .debug$S                   0000000140000000     kernel32:KERNEL32.dll
 0000:fff9f000       .debug$S                   0000000140000000     kernel32:KERNEL32.dll
 0000:fff9f000       .debug$S                   0000000140000000     kernel32:KERNEL32.dll
 0000:fff9f000       .debug$S                   0000000140000000     kernel32:KERNEL32.dll
 0000:fff9f000       .debug$S                   0000000140000000     kernel32:KERNEL32.dll
 0000:fff9f000       .debug$S                   0000000140000000     kernel32:KERNEL32.dll
 0000:fff9f000       .debug$S                   0000000140000000     kernel32:KERNEL32.dll
 0000:fff9f000       .debug$S                   0000000140000000     kernel32:KERNEL32.dll
 0000:fff9f000       .debug$S                   0000000140000000     kernel32:KERNEL32.dll
 0000:fff9f000       .debug$S                   0000000140000000     kernel32:KERNEL32.dll
 0000:fff9f000       .debug$S                   0000000140000000     kernel32:KERNEL32.dll
 0000:fff9f000       .debug$S                   0000000140000000     kernel32:KERNEL32.dll
 0000:fff9f000       .debug$S                   0000000140000000     kernel32:KERNEL32.dll
 0000:fff9f000       .debug$S                   0000000140000000     kernel32:KERNEL32.dll
 0000:fff9f000       .debug$S                   0000000140000000     kernel32:KERNEL32.dll
 0000:fff9f000       .debug$S                   0000000140000000     kernel32:KERNEL32.dll
 0000:fff9f000       .debug$S                   0000000140000000     kernel32:KERNEL32.dll
 0000:fff9f000       .debug$S                   0000000140000000     kernel32:KERNEL32.dll
 0000:fff9f000       .debug$S                   0000000140000000     kernel32:KERNEL32.dll
 0000:fff9f000       .debug$S                   0000000140000000     kernel32:KERNEL32.dll
 0000:fff9f000       .debug$S                   0000000140000000     kernel32:KERNEL32.dll
 0000:fff9f000       .debug$S                   0000000140000000     kernel32:KERNEL32.dll
 0000:fff9f000       .debug$S                   0000000140000000     kernel32:KERNEL32.dll
 0000:fff9f000       .debug$S                   0000000140000000     kernel32:KERNEL32.dll
 0000:fff9f000       .debug$S                   0000000140000000     kernel32:KERNEL32.dll
 0000:fff9f000       .debug$S                   0000000140000000     kernel32:KERNEL32.dll
 0000:fff9f000       .debug$S                   0000000140000000     kernel32:KERNEL32.dll
 0000:fff9f000       .debug$S                   0000000140000000     kernel32:KERNEL32.dll
 0000:fff9f000       .debug$S                   0000000140000000     kernel32:KERNEL32.dll
 0000:fff9f000       .debug$S                   0000000140000000     kernel32:KERNEL32.dll
 0000:fff9f000       .debug$S                   0000000140000000     kernel32:KERNEL32.dll
 0000:fff9f000       .debug$S                   0000000140000000     kernel32:KERNEL32.dll
 0000:fff9f000       .debug$S                   0000000140000000     kernel32:KERNEL32.dll
 0000:fff9f000       .debug$S                   0000000140000000     kernel32:KERNEL32.dll
 0000:fff9f000       .debug$S                   0000000140000000     kernel32:KERNEL32.dll
 0000:fff9f000       .debug$S                   0000000140000000     kernel32:KERNEL32.dll
 0000:fff9f000       .debug$S                   0000000140000000     kernel32:KERNEL32.dll
 0000:fff9f000       .debug$S                   0000000140000000     kernel32:KERNEL32.dll
 0000:fff9f000       .debug$S                   0000000140000000     kernel32:KERNEL32.dll
 0000:fff9f000       .debug$S                   0000000140000000     kernel32:KERNEL32.dll
 0000:fff9f000       .debug$S                   0000000140000000     kernel32:KERNEL32.dll
 0000:fff9f000       .debug$S                   0000000140000000     kernel32:KERNEL32.dll
 0000:fff9f000       .debug$S                   0000000140000000     kernel32:KERNEL32.dll
 0000:fff9f000       .debug$S                   0000000140000000     kernel32:KERNEL32.dll
 0000:fff9f000       .debug$S                   0000000140000000     kernel32:KERNEL32.dll
 0000:fff9f000       .debug$S                   0000000140000000     kernel32:KERNEL32.dll
 0000:fff9f000       .debug$S                   0000000140000000     kernel32:KERNEL32.dll
 0000:fff9f000       .debug$S                   0000000140000000     kernel32:KERNEL32.dll
 0000:fff9f000       .debug$S                   0000000140000000     kernel32:KERNEL32.dll
 0000:fff9f000       .debug$S                   0000000140000000     kernel32:KERNEL32.dll
 0000:fff9f000       .debug$S                   0000000140000000     kernel32:KERNEL32.dll
 0000:fff9f000       .debug$S                   0000000140000000     kernel32:KERNEL32.dll
 0000:fff9f000       .debug$S                   0000000140000000     kernel32:KERNEL32.dll
 0000:fff9f000       .debug$S                   0000000140000000     kernel32:KERNEL32.dll
 0000:fff9f000       .debug$S                   0000000140000000     kernel32:KERNEL32.dll
 0000:fff9f000       .debug$S                   0000000140000000     kernel32:KERNEL32.dll
 0000:fff9f000       .debug$S                   0000000140000000     kernel32:KERNEL32.dll
 0000:fff9f000       .debug$S                   0000000140000000     kernel32:KERNEL32.dll
 0000:fff9f000       .debug$S                   0000000140000000     kernel32:KERNEL32.dll
 0000:fff9f000       .debug$S                   0000000140000000     kernel32:KERNEL32.dll
 0000:fff9f000       .debug$S                   0000000140000000     kernel32:KERNEL32.dll
 0000:fff9f000       .debug$S                   0000000140000000     kernel32:KERNEL32.dll
 0000:fff9f000       .debug$S                   0000000140000000     kernel32:KERNEL32.dll
 0000:fff9f000       .debug$S                   0000000140000000     kernel32:KERNEL32.dll
 0000:fff9f000       .debug$S                   0000000140000000     kernel32:KERNEL32.dll
 0000:fff9f000       .debug$S                   0000000140000000     kernel32:KERNEL32.dll
 0000:fff9f000       .debug$S                   0000000140000000     kernel32:KERNEL32.dll
 0000:fff9f000       .debug$S                   0000000140000000     kernel32:KERNEL32.dll
 0000:fff9f000       .debug$S                   0000000140000000     kernel32:KERNEL32.dll
 0000:fff9f000       .debug$S                   0000000140000000     kernel32:KERNEL32.dll
 0000:fff9f000       .debug$S                   0000000140000000     kernel32:KERNEL32.dll
 0000:fff9f000       .debug$S                   0000000140000000     kernel32:KERNEL32.dll
 0000:fff9f000       .debug$S                   0000000140000000     kernel32:KERNEL32.dll
 0000:fff9f000       .debug$S                   0000000140000000     kernel32:KERNEL32.dll
 0000:fff9f000       .debug$S                   0000000140000000     kernel32:KERNEL32.dll
 0000:fff9f000       .debug$S                   0000000140000000     kernel32:KERNEL32.dll
 0000:fff9f000       .debug$S                   0000000140000000     kernel32:KERNEL32.dll
 0000:fff9f000       .debug$S                   0000000140000000     kernel32:KERNEL32.dll
 0000:fff9f000       .debug$S                   0000000140000000     kernel32:KERNEL32.dll
 0000:fff9f000       .debug$S                   0000000140000000     kernel32:KERNEL32.dll
 0000:fff9f000       .debug$S                   0000000140000000     kernel32:KERNEL32.dll
 0000:fff9f000       .debug$S                   0000000140000000     user32:USER32.dll
 0000:fff9f000       .debug$S                   0000000140000000     user32:USER32.dll
 0000:fff9f000       .debug$S                   0000000140000000     user32:USER32.dll
 0000:fff9f000       .debug$S                   0000000140000000     user32:USER32.dll
 0000:fff9f000       .debug$S                   0000000140000000     user32:USER32.dll
 0000:fff9f000       .debug$S                   0000000140000000     user32:USER32.dll
 0000:fff9f000       .debug$S                   0000000140000000     user32:USER32.dll
 0000:fff9f000       .debug$S                   0000000140000000     user32:USER32.dll
 0000:fff9f000       .debug$S                   0000000140000000     user32:USER32.dll
 0000:fff9f000       .debug$S                   0000000140000000     user32:USER32.dll
 0000:fff9f000       .debug$S                   0000000140000000     winmm:WINMM.dll
 0001:00003260       ?GameStartup@@YAPEAUGame_State@@XZ 0000000140004260 f   Win32_Shah.obj
 0001:00003a40       $$000000                   0000000140004a40     LIBCMTD:amdsecgs.obj
 0001:00003a70       ?pre_c_initialization@@YAHXZ 0000000140004a70 f   LIBCMTD:exe_winmain.obj
 0001:00003b30       ?post_pgo_initialization@@YAHXZ 0000000140004b30 f   LIBCMTD:exe_winmain.obj
 0001:00003b40       ?pre_cpp_initialization@@YAXXZ 0000000140004b40 f   LIBCMTD:exe_winmain.obj
 0001:00003b60       ?__scrt_common_main@@YAHXZ 0000000140004b60 f   LIBCMTD:exe_winmain.obj
 0001:00003b80       ?__scrt_common_main_seh@@YAHXZ 0000000140004b80 f   LIBCMTD:exe_winmain.obj
 0001:00003d50       ?invoke_main@@YAHXZ        0000000140004d50 f   LIBCMTD:exe_winmain.obj
 0001:000043b0       capture_current_context    00000001400053b0 f   LIBCMTD:gs_report.obj
 0001:000043b0       ?capture_current_context@@YAXQEAU_CONTEXT@@@Z 00000001400053b0 f   libucrtd:invalid_parameter.obj
 0001:00004450       capture_previous_context   0000000140005450 f   LIBCMTD:gs_report.obj
 0001:00004510       ?find_pe_section@@YAPEAU_IMAGE_SECTION_HEADER@@QEAE_K@Z 0000000140005510 f   LIBCMTD:utility.obj
 0001:000045e0       ?is_potentially_valid_image_base@@YA_NQEAX@Z 00000001400055e0 f   LIBCMTD:utility.obj
 0001:00004a10       __get_entropy              0000000140005a10 f   LIBCMTD:gs_support.obj
 0001:00004b70       ?get_invalid_value@environment_strings_traits@?A0x1bf47908@@SAPEA_WXZ 0000000140005b70 f   libucrtd:get_environment_from_os.obj
 0001:00004bb0       initialize_environment     0000000140005bb0 f   libucrtd:initialization.obj
 0001:00004bb0       initialize_global_state_isolation 0000000140005bb0 f   libucrtd:initialization.obj
 0001:00004bc0       init_memcpy_functions      0000000140005bc0 f   libvcruntimed:initialization.obj
 0001:00005a50       ??0?$__crt_unique_handle_t@Uenvironment_strings_traits@?A0x1bf47908@@@@QEAA@QEA_W@Z 0000000140006a50 f i libucrtd:get_environment_from_os.obj
 0001:00005a50       ??0<lambda_8d0ee55de4b1038c4002e0adecdf1839>@@QEAA@AEBQEAU__acrt_ptd@@@Z 0000000140006a50 f i libucrtd:per_thread_data.obj
 0001:00005a50       ??0<lambda_8f455de75cd7d7f24b4096f044d8b9e6>@@QEAA@AEBQEAU__acrt_ptd@@@Z 0000000140006a50 f i libucrtd:per_thread_data.obj
 0001:00005a50       ??0<lambda_e157831efee4ea0afb0a2ace5dd5fd0d>@@QEAA@AEBQEAU__acrt_ptd@@@Z 0000000140006a50 f i libucrtd:per_thread_data.obj
 0001:00005a50       ??0<lambda_3e4146214822e0ea86c47ff907aef2ff>@@QEAA@AEBH@Z 0000000140006a50 f i libucrtd:commit.obj
 0001:00005a50       ??0<lambda_df1553121bfa390f1154bd84936f2730>@@QEAA@AEAV?$__crt_unique_heap_ptr@PEADU__crt_internal_free_policy@@@@@Z 0000000140006a50 f i libucrtd:argv_parsing.obj
 0001:00005a50       ??0<lambda_d121dba8a4adeaf3a9819e48611155df>@@QEAA@AEBQEAU_onexit_table_t@@@Z 0000000140006a50 f i libucrtd:onexit.obj
 0001:00005ae0       ?get@?$__crt_unique_handle_t@Uenvironment_strings_traits@?A0x1bf47908@@@@QEBAPEA_WXZ 0000000140006ae0 f i libucrtd:get_environment_from_os.obj
 0001:00005ae0       ?begin@?$argument_list@D@?A0x5f5c8891@@QEBAPEAPEADXZ 0000000140006ae0 f i libucrtd:argv_wildcards.obj
 0001:00006070       ?_FilterSetCurrentException@@YAKPEAU_EXCEPTION_POINTERS@@E@Z 0000000140007070 f   libvcruntimed:ehhelpers.obj
 0001:000062d0       $$000000                   00000001400072d0     libvcruntimed:notify.obj
 0001:00006380       ??0scoped_get_last_error_reset@?A0xa3727598@@QEAA@XZ 0000000140007380 f   libvcruntimed:per_thread_data.obj
 0001:000063a0       ??1scoped_get_last_error_reset@?A0xa3727598@@QEAA@XZ 00000001400073a0 f   libvcruntimed:per_thread_data.obj
 0001:000063c0       ?store_and_initialize_ptd@@YA_NQEAU__vcrt_ptd@@@Z 00000001400073c0 f   libvcruntimed:per_thread_data.obj
 0001:00006870       ?invalid_function_sentinel@@YAPEAXXZ 0000000140007870 f   libvcruntimed:winapi_downlevel.obj
 0001:00006870       ?invalid_function_sentinel@@YAPEAXXZ 0000000140007870 f   libucrtd:winapi_thunks.obj
 0001:00006880       ?try_get_FlsAlloc@@YAP6AKP6AXPEAX@Z@ZXZ 0000000140007880 f   libvcruntimed:winapi_downlevel.obj
 0001:000068b0       ?try_get_FlsFree@@YAP6AHK@ZXZ 00000001400078b0 f   libvcruntimed:winapi_downlevel.obj
 0001:000068e0       ?try_get_FlsGetValue@@YAP6APEAXK@ZXZ 00000001400078e0 f   libvcruntimed:winapi_downlevel.obj
 0001:00006910       ?try_get_FlsSetValue@@YAP6AHKPEAX@ZXZ 0000000140007910 f   libvcruntimed:winapi_downlevel.obj
 0001:00006940       ?try_get_InitializeCriticalSectionEx@@YAP6AHPEAU_RTL_CRITICAL_SECTION@@KK@ZXZ 0000000140007940 f   libvcruntimed:winapi_downlevel.obj
 0001:00006970       ?try_get_first_available_module@@YAPEAUHINSTANCE__@@QEBW4module_id@?A0xf6f43728@@0@Z 0000000140007970 f   libvcruntimed:winapi_downlevel.obj
 0001:000069d0       ?try_get_function@@YAPEAXW4function_id@?A0xf6f43728@@QEBDQEBW4module_id@2@2@Z 00000001400079d0 f   libvcruntimed:winapi_downlevel.obj
 0001:00006b40       ?try_get_module@@YAPEAUHINSTANCE__@@W4module_id@?A0xf6f43728@@@Z 0000000140007b40 f   libvcruntimed:winapi_downlevel.obj
 0001:00006ca0       ?try_get_proc_address_from_first_available_module@@YAPEAXQEBDQEBW4module_id@?A0xf6f43728@@1@Z 0000000140007ca0 f   libvcruntimed:winapi_downlevel.obj
 0001:00006cf0       ?try_load_library_from_system_directory@@YAPEAUHINSTANCE__@@QEB_W@Z 0000000140007cf0 f   libvcruntimed:winapi_downlevel.obj
 0001:00006f20       $$000000                   0000000140007f20     libvcruntimed:memcpy.obj
 0001:00007630       ??$SehTransFilter@V__FrameHandler3@@@@YAHPEAU_EXCEPTION_POINTERS@@PEAUEHExceptionRecord@@PEA_KPEAU_CONTEXT@@PEAU_xDISPATCHER_CONTEXT@@PEBU_s_FuncInfo@@HPEAH@Z 0000000140008630 f   libvcruntimed:risctrnsctrl.obj
 0001:00008340       ?adjustIp@@YA_KPEAU_xDISPATCHER_CONTEXT@@_K@Z 0000000140009340 f   libvcruntimed:ehstate.obj
 0001:00008350       ??$BuildCatchObjectHelperInternal@V__FrameHandler3@@@@YAHPEAUEHExceptionRecord@@PEAXPEBU_s_HandlerType@@PEBU_s_CatchableType@@@Z 0000000140009350 f   libvcruntimed:frame.obj
 0001:00008730       ??$BuildCatchObjectInternal@V__FrameHandler3@@@@YAXPEAUEHExceptionRecord@@PEAXPEBU_s_HandlerType@@PEBU_s_CatchableType@@@Z 0000000140009730 f   libvcruntimed:frame.obj
 0001:00008880       ??$CatchIt@V__FrameHandler3@@@@YAXPEAUEHExceptionRecord@@PEA_KPEAU_CONTEXT@@PEAU_xDISPATCHER_CONTEXT@@PEBU_s_FuncInfo@@PEBU_s_HandlerType@@PEBU_s_CatchableType@@PEBU_s_TryBlockMapEntry@@H1EE@Z 0000000140009880 f   libvcruntimed:frame.obj
 0001:000089c0       ??$FindHandler@V__FrameHandler3@@@@YAXPEAUEHExceptionRecord@@PEA_KPEAU_CONTEXT@@PEAU_xDISPATCHER_CONTEXT@@PEBU_s_FuncInfo@@EH1@Z 00000001400099c0 f   libvcruntimed:frame.obj
 0001:00009190       ??$FindHandlerForForeignException@V__FrameHandler3@@@@YAXPEAUEHExceptionRecord@@PEA_KPEAU_CONTEXT@@PEAU_xDISPATCHER_CONTEXT@@PEBU_s_FuncInfo@@HH1@Z 000000014000a190 f   libvcruntimed:frame.obj
 0001:00009bb0       ??0<lambda_92619d2358a28f41a33ba319515a20b9>@@QEAA@AEBQEAU__acrt_ptd@@AEBQEAPEAU__crt_locale_data@@@Z 000000014000abb0 f i libucrtd:per_thread_data.obj
 0001:00009bb0       ??0<lambda_af29824b49a67d335554598d6cad2be6>@@QEAA@AEBHAEAV__crt_cached_ptd_host@@@Z 000000014000abb0 f i libucrtd:close.obj
 0001:00009bb0       ??0<lambda_bd5a608237428601b7e45fbdc72b1ae8>@@QEAA@AEBQEAU__acrt_ptd@@AEBQEAPEAU__crt_multibyte_data@@@Z 000000014000abb0 f i libucrtd:mbctype.obj
 0001:00009bb0       ??0<lambda_208ce30acdd7200aa596f2796f4d5154>@@QEAA@AEBQEAU_onexit_table_t@@AEBQ6AHXZ@Z 000000014000abb0 f i libucrtd:onexit.obj
 0001:0000a0c0       ?ExFilterRethrow@@YAHPEAU_EXCEPTION_POINTERS@@PEAUEHExceptionRecord@@PEAH@Z 000000014000b0c0 f   libvcruntimed:frame.obj
 0001:0000a4e0       ?IsInExceptionSpec@@YAEPEAUEHExceptionRecord@@PEBU_s_ESTypeList@@@Z 000000014000b4e0 f   libvcruntimed:frame.obj
 0001:0000a600       ?Is_bad_exception_allowed@@YAEPEBU_s_ESTypeList@@@Z 000000014000b600 f   libvcruntimed:frame.obj
 0001:0000a780       ?__RethrowException@@YAXPEAUEHExceptionRecord@@@Z 000000014000b780 f   libvcruntimed:frame.obj
 0001:0000a960       $$000000                   000000014000b960     libvcruntimed:memset.obj
 0001:0000ab20       $$000000                   000000014000bb20     libvcruntimed:handlers.obj
 0001:0000b500       raise_fpsw_flags           000000014000c500 f   libucrtd:atan2f.obj
 0001:0000b590       scaleDouble_1              000000014000c590 f   libucrtd:atan2f.obj
 0001:0000b5d0       scaleDownDouble            000000014000c5d0 f   libucrtd:atan2f.obj
 0001:0000b700       valf_with_flags            000000014000c700 f   libucrtd:atan2f.obj
 0001:0000b730       $$000000                   000000014000c730     libucrtd:cosf.obj
 0001:0000bc30       $$000000                   000000014000cc30     libucrtd:sinf.obj
 0001:0000c650       ?xcptlookup@@YAPEAU__crt_signal_action_t@@KQEAU1@@Z 000000014000d650 f   libucrtd:exception_filter.obj
 0001:0000c96c       $LN33                      000000014000d96c     libucrtd:exception_filter.obj
 0001:0000c990       ?issue_debug_notification@@YA_NQEB_W@Z 000000014000d990 f   libucrtd:report_runtime_error.obj
 0001:0000c9f0       ?should_write_error_to_console@@YA_NXZ 000000014000d9f0 f   libucrtd:report_runtime_error.obj
 0001:0000ca30       ?write_string_to_console@@YAXQEB_W@Z 000000014000da30 f   libucrtd:report_runtime_error.obj
 0001:0000cfa0       ??$common_configure_argv@D@@YAHW4_crt_argv_mode@@@Z 000000014000dfa0 f   libucrtd:argv_parsing.obj
 0001:0000d370       ??$parse_command_line@D@@YAXPEADPEAPEAD0PEA_K2@Z 000000014000e370 f   libucrtd:argv_parsing.obj
 0001:0000d860       ??R<lambda_df1553121bfa390f1154bd84936f2730>@@QEBAHXZ 000000014000e860 f   libucrtd:argv_parsing.obj
 0001:0000d8c0       ?pre_initialize@@YAXD@Z    000000014000e8c0 f   libucrtd:environment_initialization.obj
 0001:0000d8c0       ?do_locale_initialization@@YAXD@Z 000000014000e8c0 f   libucrtd:argv_parsing.obj
 0001:0000d8c0       ?do_locale_initialization@@YAXE@Z 000000014000e8c0 f   libucrtd:argv_winmain.obj
 0001:0000d8e0       ?expand_argv_wildcards@@YAHQEAPEADQEAPEAPEAD@Z 000000014000e8e0 f   libucrtd:argv_parsing.obj
 0001:0000d910       ?get_argv@@YAAEAPEAPEADD@Z 000000014000e910 f   libucrtd:argv_parsing.obj
 0001:0000d920       ?get_command_line@@YAPEADD@Z 000000014000e920 f   libucrtd:argv_parsing.obj
 0001:0000d920       ?get_command_line@@YAPEAEE@Z 000000014000e920 f   libucrtd:argv_winmain.obj
 0001:0000d930       ?should_copy_another_character@@YA_ND@Z 000000014000e930 f   libucrtd:argv_parsing.obj
 0001:0000dad0       ??$common_initialize_environment_nolock@D@@YAHXZ 000000014000ead0 f   libucrtd:environment_initialization.obj
 0001:0000dbf0       ??$count_variables_in_environment_block@D@@YA?B_KQEAD@Z 000000014000ebf0 f   libucrtd:environment_initialization.obj
 0001:0000dc70       ??$create_environment@D@@YAQEAPEADQEAD@Z 000000014000ec70 f   libucrtd:environment_initialization.obj
 0001:0000de80       ??$free_environment@D@@YAXQEAPEAD@Z 000000014000ee80 f   libucrtd:environment_initialization.obj
 0001:0000de80       ??$free_environment@_W@@YAXQEAPEA_W@Z 000000014000ee80 f   libucrtd:environment_initialization.obj
 0001:0000e050       ??$uninitialize_environment_internal@D@@YAXAEAPEAPEAD@Z 000000014000f050 f   libucrtd:environment_initialization.obj
 0001:0000e090       ??$uninitialize_environment_internal@_W@@YAXAEAPEAPEA_W@Z 000000014000f090 f   libucrtd:environment_initialization.obj
 0001:0000e0d0       ?get_dual_state_environment_nolock@@YAAEAV?$dual_state_global@PEAPEAD@__crt_state_management@@D@Z 000000014000f0d0 f   libucrtd:environment_initialization.obj
 0001:0000e0e0       ?get_environment_nolock@@YAAEAPEAPEADD@Z 000000014000f0e0 f   libucrtd:environment_initialization.obj
 0001:0000e100       ?get_initial_environment@@YAAEAPEAPEADD@Z 000000014000f100 f   libucrtd:environment_initialization.obj
 0001:0000e110       ?get_initial_environment@@YAAEAPEAPEA_W_W@Z 000000014000f110 f   libucrtd:environment_initialization.obj
 0001:0000e180       ??$common_wincmdln@E@@YAPEAEXZ 000000014000f180 f   libucrtd:argv_winmain.obj
 0001:0000e280       ?should_copy_another_character@@YA_NE@Z 000000014000f280 f   libucrtd:argv_winmain.obj
 0001:0000e3e0       ??$?RV<lambda_d80eeec6fff315bfe5c115232f3240e3>@@AEAV<lambda_6e4b09c48022b2350581041d5f6b0c4c>@@V<lambda_2358e3775559c9db80273638284d5e45>@@@?$__crt_seh_guarded_call@X@@QEAAX$$QEAV<lambda_d80eeec6fff315bfe5c115232f3240e3>@@AEAV<lambda_6e4b09c48022b2350581041d5f6b0c4c>@@$$QEAV<lambda_2358e3775559c9db80273638284d5e45>@@@Z 000000014000f3e0 f   libucrtd:exit.obj
 0001:0000e420       ??$__acrt_lock_and_call@V<lambda_6e4b09c48022b2350581041d5f6b0c4c>@@@@YAXW4__acrt_lock_id@@$$QEAV<lambda_6e4b09c48022b2350581041d5f6b0c4c>@@@Z 000000014000f420 f   libucrtd:exit.obj
 0001:0000e4d0       ??0<lambda_04ddeca75b7c13fd67716e8dfcef87ee>@@QEAA@AEBW4__acrt_lock_id@@@Z 000000014000f4d0 f   libucrtd:per_thread_data.obj
 0001:0000e4d0       ??0<lambda_0ae27a3a962d80f24befdcbee591983d>@@QEAA@AEBW4__acrt_lock_id@@@Z 000000014000f4d0 f   libucrtd:per_thread_data.obj
 0001:0000e4d0       ??0<lambda_2d41944a1d46af3157314b8a01080d33>@@QEAA@AEBW4__acrt_lock_id@@@Z 000000014000f4d0 f   libucrtd:per_thread_data.obj
 0001:0000e4d0       ??0<lambda_6992ecaafeb10aed2b74cb1fae11a551>@@QEAA@AEBW4__acrt_lock_id@@@Z 000000014000f4d0 f   libucrtd:per_thread_data.obj
 0001:0000e4d0       ??0<lambda_74a0ef281e44d15e1136f792f539efb3>@@QEAA@AEBW4__acrt_lock_id@@@Z 000000014000f4d0 f   libucrtd:per_thread_data.obj
 0001:0000e4d0       ??0<lambda_aa500f224e6afead328df44964fe2772>@@QEAA@AEBW4__acrt_lock_id@@@Z 000000014000f4d0 f   libucrtd:per_thread_data.obj
 0001:0000e4d0       ??0<lambda_aa87e3671a710a21b5dc78c0bdf72e11>@@QEAA@AEBW4__acrt_lock_id@@@Z 000000014000f4d0 f   libucrtd:per_thread_data.obj
 0001:0000e4d0       ??0<lambda_dc504788e8f1664fe9b84e20bfb512f2>@@QEAA@AEBW4__acrt_lock_id@@@Z 000000014000f4d0 f   libucrtd:per_thread_data.obj
 0001:0000e4d0       ??0<lambda_38119f0e861e05405d8a144b9b982f0a>@@QEAA@AEBW4__acrt_lock_id@@@Z 000000014000f4d0 f   libucrtd:wsetlocale.obj
 0001:0000e4d0       ??0<lambda_410d79af7f07d98d83a3f525b3859a53>@@QEAA@AEBW4__acrt_lock_id@@@Z 000000014000f4d0 f   libucrtd:wsetlocale.obj
 0001:0000e4d0       ??0<lambda_19eaff14c5fe7be5b1b106a862eb1091>@@QEAA@AEBH@Z 000000014000f4d0 f   libucrtd:close.obj
 0001:0000e4d0       ??0<lambda_3ce37f5b621ab310299ea5f68cbdf3bb>@@QEAA@AEBH@Z 000000014000f4d0 f   libucrtd:close.obj
 0001:0000e4d0       ??0<lambda_7d29013d608e9f25a034de83c9b9e983>@@QEAA@AEBH@Z 000000014000f4d0 f   libucrtd:commit.obj
 0001:0000e4d0       ??0<lambda_b869e5a4e1069fcb5c3da79c0d999133>@@QEAA@AEBH@Z 000000014000f4d0 f   libucrtd:commit.obj
 0001:0000e4d0       ??0<lambda_728235dc0fc2b1f82d1fa5b3e7102d8f>@@QEAA@AEBW4__acrt_lock_id@@@Z 000000014000f4d0 f   libucrtd:mbctype.obj
 0001:0000e4d0       ??0<lambda_efa02eb69bf647d2f7ff0dd6f1103f72>@@QEAA@AEBW4__acrt_lock_id@@@Z 000000014000f4d0 f   libucrtd:mbctype.obj
 0001:0000e4d0       ??0<lambda_450d765d439847d4c735a33c368b5fc0>@@QEAA@AEBW4__acrt_lock_id@@@Z 000000014000f4d0 f   libucrtd:signal.obj
 0001:0000e4d0       ??0<lambda_601a2a7da3b7a96e9554ac7215c4b07c>@@QEAA@AEBW4__acrt_lock_id@@@Z 000000014000f4d0 f   libucrtd:signal.obj
 0001:0000e4d0       ??0<lambda_2358e3775559c9db80273638284d5e45>@@QEAA@AEBW4__acrt_lock_id@@@Z 000000014000f4d0 f   libucrtd:exit.obj
 0001:0000e4d0       ??0<lambda_d80eeec6fff315bfe5c115232f3240e3>@@QEAA@AEBW4__acrt_lock_id@@@Z 000000014000f4d0 f   libucrtd:exit.obj
 0001:0000e4d0       ??0<lambda_6a47f4c8fd0152770a780fc1d70204eb>@@QEAA@AEBW4__acrt_lock_id@@@Z 000000014000f4d0 f   libucrtd:onexit.obj
 0001:0000e4d0       ??0<lambda_6aaa2265f5b6a89667e7d7630012e97a>@@QEAA@AEBW4__acrt_lock_id@@@Z 000000014000f4d0 f   libucrtd:onexit.obj
 0001:0000e4d0       ??0<lambda_80060f20ac3990516b753a27f211934c>@@QEAA@AEBW4__acrt_lock_id@@@Z 000000014000f4d0 f   libucrtd:onexit.obj
 0001:0000e4d0       ??0<lambda_fd91b99c0687e8936f1d70d7d9b78e69>@@QEAA@AEBW4__acrt_lock_id@@@Z 000000014000f4d0 f   libucrtd:onexit.obj
 0001:0000e4d0       ??0<lambda_886d6c58226a84441f68b9f2b8217b83>@@QEAA@AEBW4__acrt_lock_id@@@Z 000000014000f4d0 f   libucrtd:fflush.obj
 0001:0000e4d0       ??0<lambda_f7f22ab5edc0698d5f6905b0d3f44752>@@QEAA@AEBW4__acrt_lock_id@@@Z 000000014000f4d0 f   libucrtd:fflush.obj
 0001:0000e4f0       ??0<lambda_6e4b09c48022b2350581041d5f6b0c4c>@@QEAA@AEBW4_crt_exit_cleanup_mode@@AEBW4_crt_exit_return_mode@@AEA_N@Z 000000014000f4f0 f   libucrtd:exit.obj
 0001:0000e4f0       ??0<lambda_ab61a845afdef5b7c387490eaf3616ee>@@QEAA@AEAHAEB_N0@Z 000000014000f4f0 f   libucrtd:fflush.obj
 0001:0000e560       ??R<lambda_04ddeca75b7c13fd67716e8dfcef87ee>@@QEBAXXZ 000000014000f560 f   libucrtd:per_thread_data.obj
 0001:0000e560       ??R<lambda_6992ecaafeb10aed2b74cb1fae11a551>@@QEBAXXZ 000000014000f560 f   libucrtd:per_thread_data.obj
 0001:0000e560       ??R<lambda_aa500f224e6afead328df44964fe2772>@@QEBAXXZ 000000014000f560 f   libucrtd:per_thread_data.obj
 0001:0000e560       ??R<lambda_dc504788e8f1664fe9b84e20bfb512f2>@@QEBAXXZ 000000014000f560 f   libucrtd:per_thread_data.obj
 0001:0000e560       ??R<lambda_38119f0e861e05405d8a144b9b982f0a>@@QEBAXXZ 000000014000f560 f   libucrtd:wsetlocale.obj
 0001:0000e560       ??R<lambda_728235dc0fc2b1f82d1fa5b3e7102d8f>@@QEBAXXZ 000000014000f560 f   libucrtd:mbctype.obj
 0001:0000e560       ??R<lambda_601a2a7da3b7a96e9554ac7215c4b07c>@@QEBAXXZ 000000014000f560 f   libucrtd:signal.obj
 0001:0000e560       ??R<lambda_2358e3775559c9db80273638284d5e45>@@QEBAXXZ 000000014000f560 f   libucrtd:exit.obj
 0001:0000e560       ??R<lambda_6aaa2265f5b6a89667e7d7630012e97a>@@QEBAXXZ 000000014000f560 f   libucrtd:onexit.obj
 0001:0000e560       ??R<lambda_fd91b99c0687e8936f1d70d7d9b78e69>@@QEBAXXZ 000000014000f560 f   libucrtd:onexit.obj
 0001:0000e560       ??R<lambda_f7f22ab5edc0698d5f6905b0d3f44752>@@QEBAXXZ 000000014000f560 f   libucrtd:fflush.obj
 0001:0000e580       ??R<lambda_6e4b09c48022b2350581041d5f6b0c4c>@@QEBA@XZ 000000014000f580 f   libucrtd:exit.obj
 0001:0000e6a0       ??R<lambda_0ae27a3a962d80f24befdcbee591983d>@@QEBAXXZ 000000014000f6a0 f   libucrtd:per_thread_data.obj
 0001:0000e6a0       ??R<lambda_2d41944a1d46af3157314b8a01080d33>@@QEBAXXZ 000000014000f6a0 f   libucrtd:per_thread_data.obj
 0001:0000e6a0       ??R<lambda_74a0ef281e44d15e1136f792f539efb3>@@QEBAXXZ 000000014000f6a0 f   libucrtd:per_thread_data.obj
 0001:0000e6a0       ??R<lambda_aa87e3671a710a21b5dc78c0bdf72e11>@@QEBAXXZ 000000014000f6a0 f   libucrtd:per_thread_data.obj
 0001:0000e6a0       ??R<lambda_410d79af7f07d98d83a3f525b3859a53>@@QEBAXXZ 000000014000f6a0 f   libucrtd:wsetlocale.obj
 0001:0000e6a0       ??R<lambda_efa02eb69bf647d2f7ff0dd6f1103f72>@@QEBAXXZ 000000014000f6a0 f   libucrtd:mbctype.obj
 0001:0000e6a0       ??R<lambda_450d765d439847d4c735a33c368b5fc0>@@QEBAXXZ 000000014000f6a0 f   libucrtd:signal.obj
 0001:0000e6a0       ??R<lambda_d80eeec6fff315bfe5c115232f3240e3>@@QEBAXXZ 000000014000f6a0 f   libucrtd:exit.obj
 0001:0000e6a0       ??R<lambda_6a47f4c8fd0152770a780fc1d70204eb>@@QEBAXXZ 000000014000f6a0 f   libucrtd:onexit.obj
 0001:0000e6a0       ??R<lambda_80060f20ac3990516b753a27f211934c>@@QEBAXXZ 000000014000f6a0 f   libucrtd:onexit.obj
 0001:0000e6a0       ??R<lambda_886d6c58226a84441f68b9f2b8217b83>@@QEBAXXZ 000000014000f6a0 f   libucrtd:fflush.obj
 0001:0000e6f0       ?atexit_exception_filter@@YAHK@Z 000000014000f6f0 f   libucrtd:exit.obj
 0001:0000e790       ?common_exit@@YAXHW4_crt_exit_cleanup_mode@@W4_crt_exit_return_mode@@@Z 000000014000f790 f   libucrtd:exit.obj
 0001:0000e830       ?exit_or_terminate_process@@YAXI@Z 000000014000f830 f   libucrtd:exit.obj
 0001:0000e870       ?is_managed_app@@YA_NXZ    000000014000f870 f   libucrtd:exit.obj
 0001:0000e920       ?should_call_terminate_process@@YA_NXZ 000000014000f920 f   libucrtd:exit.obj
 0001:0000e980       ?try_cor_exit_process@@YAXI@Z 000000014000f980 f   libucrtd:exit.obj
 0001:0000ec30       ??$?RV<lambda_410d79af7f07d98d83a3f525b3859a53>@@AEAV<lambda_3e16ef9562a7dcce91392c22ab16ea36>@@V<lambda_38119f0e861e05405d8a144b9b982f0a>@@@?$__crt_seh_guarded_call@X@@QEAAX$$QEAV<lambda_410d79af7f07d98d83a3f525b3859a53>@@AEAV<lambda_3e16ef9562a7dcce91392c22ab16ea36>@@$$QEAV<lambda_38119f0e861e05405d8a144b9b982f0a>@@@Z 000000014000fc30 f   libucrtd:wsetlocale.obj
 0001:0000ec70       ??$__acrt_lock_and_call@V<lambda_3e16ef9562a7dcce91392c22ab16ea36>@@@@YAXW4__acrt_lock_id@@$$QEAV<lambda_3e16ef9562a7dcce91392c22ab16ea36>@@@Z 000000014000fc70 f   libucrtd:wsetlocale.obj
 0001:0000ecd0       ??$uninitialize@V<lambda_363eea9039da1e8169e2d060c7fe5cbc>@@@?$dual_state_global@PEAU__crt_locale_data@@@__crt_state_management@@QEAAX$$QEAV<lambda_363eea9039da1e8169e2d060c7fe5cbc>@@@Z 000000014000fcd0 f   libucrtd:wsetlocale.obj
 0001:0000ed30       ??R<lambda_363eea9039da1e8169e2d060c7fe5cbc>@@QEBAXAEAPEAU__crt_locale_data@@@Z 000000014000fd30 f   libucrtd:wsetlocale.obj
 0001:0000ed70       ??R<lambda_3e16ef9562a7dcce91392c22ab16ea36>@@QEBA@XZ 000000014000fd70 f   libucrtd:wsetlocale.obj
 0001:0000f0f0       ??$?RV<lambda_6a47f4c8fd0152770a780fc1d70204eb>@@AEAV<lambda_d121dba8a4adeaf3a9819e48611155df>@@V<lambda_6aaa2265f5b6a89667e7d7630012e97a>@@@?$__crt_seh_guarded_call@H@@QEAAH$$QEAV<lambda_6a47f4c8fd0152770a780fc1d70204eb>@@AEAV<lambda_d121dba8a4adeaf3a9819e48611155df>@@$$QEAV<lambda_6aaa2265f5b6a89667e7d7630012e97a>@@@Z 00000001400100f0 f   libucrtd:onexit.obj
 0001:0000f140       ??$?RV<lambda_80060f20ac3990516b753a27f211934c>@@AEAV<lambda_208ce30acdd7200aa596f2796f4d5154>@@V<lambda_fd91b99c0687e8936f1d70d7d9b78e69>@@@?$__crt_seh_guarded_call@H@@QEAAH$$QEAV<lambda_80060f20ac3990516b753a27f211934c>@@AEAV<lambda_208ce30acdd7200aa596f2796f4d5154>@@$$QEAV<lambda_fd91b99c0687e8936f1d70d7d9b78e69>@@@Z 0000000140010140 f   libucrtd:onexit.obj
 0001:0000f190       ??$__acrt_lock_and_call@V<lambda_208ce30acdd7200aa596f2796f4d5154>@@@@YAHW4__acrt_lock_id@@$$QEAV<lambda_208ce30acdd7200aa596f2796f4d5154>@@@Z 0000000140010190 f   libucrtd:onexit.obj
 0001:0000f1f0       ??$__acrt_lock_and_call@V<lambda_d121dba8a4adeaf3a9819e48611155df>@@@@YAHW4__acrt_lock_id@@$$QEAV<lambda_d121dba8a4adeaf3a9819e48611155df>@@@Z 00000001400101f0 f   libucrtd:onexit.obj
 0001:0000f250       ??R<lambda_208ce30acdd7200aa596f2796f4d5154>@@QEBAHXZ 0000000140010250 f   libucrtd:onexit.obj
 0001:0000f590       ??R<lambda_d121dba8a4adeaf3a9819e48611155df>@@QEBAHXZ 0000000140010590 f   libucrtd:onexit.obj
 0001:0000f8f0       initialize_global_variables 00000001400108f0 f   libucrtd:initialization.obj
 0001:0000f910       initialize_c               0000000140010910 f   libucrtd:initialization.obj
 0001:0000f940       uninitialize_c             0000000140010940 f   libucrtd:initialization.obj
 0001:0000f940       uninitialize_global_state_isolation 0000000140010940 f   libucrtd:initialization.obj
 0001:0000f950       uninitialize_environment   0000000140010950 f   libucrtd:initialization.obj
 0001:0000f980       initialize_pointers        0000000140010980 f   libucrtd:initialization.obj
 0001:0000f9e0       uninitialize_vcruntime     00000001400109e0 f   libucrtd:initialization.obj
 0001:0000fa00       uninitialize_allocated_memory 0000000140010a00 f   libucrtd:initialization.obj
 0001:0000fa40       uninitialize_allocated_io_buffers 0000000140010a40 f   libucrtd:initialization.obj
 0001:0000fac0       report_memory_leaks        0000000140010ac0 f   libucrtd:initialization.obj
 0001:0000faf0       ??$uninitialize@V<lambda_af27fe6ede5d83bbdbd622796c194e9c>@@@?$dual_state_global@PEAU__crt_multibyte_data@@@__crt_state_management@@QEAAX$$QEAV<lambda_af27fe6ede5d83bbdbd622796c194e9c>@@@Z 0000000140010af0 f   libucrtd:initialization.obj
 0001:0000fb50       ??R<lambda_af27fe6ede5d83bbdbd622796c194e9c>@@QEBAXAEAPEAU__crt_multibyte_data@@@Z 0000000140010b50 f   libucrtd:initialization.obj
 0001:0000fdc0       ?block_from_header@@YAPEAEQEAU_CrtMemBlockHeader@@@Z 0000000140010dc0 f   libucrtd:debug_heap.obj
 0001:0000fdd0       ?check_block@@YA_NQEAU_CrtMemBlockHeader@@@Z 0000000140010dd0 f   libucrtd:debug_heap.obj
 0001:00010340       ?check_bytes@@YA_NQEBEE_K@Z 0000000140011340 f   libucrtd:debug_heap.obj
 0001:000103b0       ?dump_all_object_since_nolock@@YAXQEBU_CrtMemState@@@Z 00000001400113b0 f   libucrtd:debug_heap.obj
 0001:00010830       ?free_dbg_nolock@@YAXQEAXH@Z 0000000140011830 f   libucrtd:debug_heap.obj
 0001:00010fb0       ?header_from_block@@YAPEAU_CrtMemBlockHeader@@QEBX@Z 0000000140011fb0 f   libucrtd:debug_heap.obj
 0001:00010fc0       ?heap_alloc_dbg@@YAPEAX_KHQEBDH@Z 0000000140011fc0 f   libucrtd:debug_heap.obj
 0001:00011060       ?heap_alloc_dbg_internal@@YAPEAX_KHQEBDH@Z 0000000140012060 f   libucrtd:debug_heap.obj
 0001:000114b0       ?is_bad_read_pointer@@YA_NQEBX_K@Z 00000001400124b0 f   libucrtd:debug_heap.obj
 0001:000115c0       ?is_block_an_aligned_allocation@@YA_NQEBX@Z 00000001400125c0 f   libucrtd:debug_heap.obj
 0001:00011600       ?is_block_type_valid@@YA_NH@Z 0000000140012600 f   libucrtd:debug_heap.obj
 0001:00011650       ?print_block_data@@YAXQEAU__crt_locale_pointers@@QEAU_CrtMemBlockHeader@@@Z 0000000140012650 f   libucrtd:debug_heap.obj
 0001:00011880       ?realloc_dbg_nolock@@YAPEAXQEAXQEA_KHQEBDH_N@Z 0000000140012880 f   libucrtd:debug_heap.obj
 0001:000120c0       ?validate_heap_if_required_nolock@@YAXXZ 00000001400130c0 f   libucrtd:debug_heap.obj
 0001:00012e80       ??$common_message_window@D@@YAHHQEAXQEBD111@Z 0000000140013e80 f   libucrtd:dbgrpt.obj
 0001:00013550       ??$common_message_window@_W@@YAHHQEAXQEB_W111@Z 0000000140014550 f   libucrtd:dbgrpt.obj
 0001:00013d50       ?get_output_message_format@@YAPEB_WD@Z 0000000140014d50 f   libucrtd:dbgrpt.obj
 0001:00013d60       ?get_output_message_format@@YAPEB_W_W@Z 0000000140014d60 f   libucrtd:dbgrpt.obj
 0001:00013d70       ?get_program_name_unknown_text@@YAPEBDD@Z 0000000140014d70 f   libucrtd:dbgrpt.obj
 0001:00013d80       ?get_program_name_unknown_text@@YAPEB_W_W@Z 0000000140014d80 f   libucrtd:dbgrpt.obj
 0001:00014050       ??$common_tcscpy_s@D@@YAHQEAD_KQEBD@Z 0000000140015050 f   libucrtd:strcpy_s.obj
 0001:00014560       $$000000                   0000000140015560     libucrtd:strlen.obj
 0001:00014620       $$000000                   0000000140015620     libucrtd:strcmp.obj
 0001:00015180       ??$common_vsnprintf_s@D@@YAH_KQEAD00QEBDAEAV__crt_cached_ptd_host@@1@Z 0000000140016180 f   libucrtd:output.obj
 0001:00015860       ??$common_vsnprintf_s@_W@@YAH_KQEA_W00QEB_WAEAV__crt_cached_ptd_host@@QEAD@Z 0000000140016860 f   libucrtd:output.obj
 0001:00015f50       ??$common_vsprintf@Vformat_validation_base@__crt_stdio_output@@D@@YAH_KQEAD0QEBDAEAV__crt_cached_ptd_host@@1@Z 0000000140016f50 f   libucrtd:output.obj
 0001:00016410       ??$common_vsprintf@Vformat_validation_base@__crt_stdio_output@@_W@@YAH_KQEA_W0QEB_WAEAV__crt_cached_ptd_host@@QEAD@Z 0000000140017410 f   libucrtd:output.obj
 0001:000168c0       ??$common_vsprintf_s@D@@YAH_KQEAD0QEBDAEAV__crt_cached_ptd_host@@1@Z 00000001400178c0 f   libucrtd:output.obj
 0001:0001bcf4       $LN39                      000000014001ccf4     libucrtd:output.obj
 0001:0001c0b8       $LN39                      000000014001d0b8     libucrtd:output.obj
 0001:0001ccec       $LN54                      000000014001dcec     libucrtd:output.obj
 0001:0001cd14       $LN53                      000000014001dd14     libucrtd:output.obj
 0001:0001d1ac       $LN54                      000000014001e1ac     libucrtd:output.obj
 0001:0001d1d4       $LN53                      000000014001e1d4     libucrtd:output.obj
 0001:0001d668       $LN44                      000000014001e668     libucrtd:output.obj
 0001:0001d698       $LN43                      000000014001e698     libucrtd:output.obj
 0001:0001dbec       $LN44                      000000014001ebec     libucrtd:output.obj
 0001:0001dc1c       $LN43                      000000014001ec1c     libucrtd:output.obj
 0001:0001dea0       $LN19                      000000014001eea0     libucrtd:output.obj
 0001:00020dd0       $$000000                   0000000140021dd0     libucrtd:strncmp.obj
 0001:00021040       _call_matherr              0000000140022040 f   libucrtd:libm_error.obj
 0001:000210d0       _exception_enabled         00000001400220d0 f   libucrtd:libm_error.obj
 0001:000215c0       $$000000                   00000001400225c0     libucrtd:remainder_piby2f_forasm.obj
 0001:00021710       $$000000                   0000000140022710     libucrtd:remainder_piby2_forfma3.obj
 0001:000219b0       _sincosf_special           00000001400229b0 f   libucrtd:sincos_special.obj
 0001:00021ba0       $$000000                   0000000140022ba0     libucrtd:remainder_piby2f_forc.obj
 0001:00021e60       ??$?RV<lambda_0ae27a3a962d80f24befdcbee591983d>@@AEAV<lambda_8d0ee55de4b1038c4002e0adecdf1839>@@V<lambda_dc504788e8f1664fe9b84e20bfb512f2>@@@?$__crt_seh_guarded_call@X@@QEAAX$$QEAV<lambda_0ae27a3a962d80f24befdcbee591983d>@@AEAV<lambda_8d0ee55de4b1038c4002e0adecdf1839>@@$$QEAV<lambda_dc504788e8f1664fe9b84e20bfb512f2>@@@Z 0000000140022e60 f   libucrtd:per_thread_data.obj
 0001:00021ea0       ??$?RV<lambda_2d41944a1d46af3157314b8a01080d33>@@AEAV<lambda_8f455de75cd7d7f24b4096f044d8b9e6>@@V<lambda_aa500f224e6afead328df44964fe2772>@@@?$__crt_seh_guarded_call@X@@QEAAX$$QEAV<lambda_2d41944a1d46af3157314b8a01080d33>@@AEAV<lambda_8f455de75cd7d7f24b4096f044d8b9e6>@@$$QEAV<lambda_aa500f224e6afead328df44964fe2772>@@@Z 0000000140022ea0 f   libucrtd:per_thread_data.obj
 0001:00021ee0       ??$?RV<lambda_74a0ef281e44d15e1136f792f539efb3>@@AEAV<lambda_e157831efee4ea0afb0a2ace5dd5fd0d>@@V<lambda_04ddeca75b7c13fd67716e8dfcef87ee>@@@?$__crt_seh_guarded_call@X@@QEAAX$$QEAV<lambda_74a0ef281e44d15e1136f792f539efb3>@@AEAV<lambda_e157831efee4ea0afb0a2ace5dd5fd0d>@@$$QEAV<lambda_04ddeca75b7c13fd67716e8dfcef87ee>@@@Z 0000000140022ee0 f   libucrtd:per_thread_data.obj
 0001:00021f20       ??$?RV<lambda_aa87e3671a710a21b5dc78c0bdf72e11>@@AEAV<lambda_92619d2358a28f41a33ba319515a20b9>@@V<lambda_6992ecaafeb10aed2b74cb1fae11a551>@@@?$__crt_seh_guarded_call@X@@QEAAX$$QEAV<lambda_aa87e3671a710a21b5dc78c0bdf72e11>@@AEAV<lambda_92619d2358a28f41a33ba319515a20b9>@@$$QEAV<lambda_6992ecaafeb10aed2b74cb1fae11a551>@@@Z 0000000140022f20 f   libucrtd:per_thread_data.obj
 0001:00021f60       ??$__acrt_lock_and_call@V<lambda_8d0ee55de4b1038c4002e0adecdf1839>@@@@YAXW4__acrt_lock_id@@$$QEAV<lambda_8d0ee55de4b1038c4002e0adecdf1839>@@@Z 0000000140022f60 f   libucrtd:per_thread_data.obj
 0001:00021fc0       ??$__acrt_lock_and_call@V<lambda_8f455de75cd7d7f24b4096f044d8b9e6>@@@@YAXW4__acrt_lock_id@@$$QEAV<lambda_8f455de75cd7d7f24b4096f044d8b9e6>@@@Z 0000000140022fc0 f   libucrtd:per_thread_data.obj
 0001:00022020       ??$__acrt_lock_and_call@V<lambda_92619d2358a28f41a33ba319515a20b9>@@@@YAXW4__acrt_lock_id@@$$QEAV<lambda_92619d2358a28f41a33ba319515a20b9>@@@Z 0000000140023020 f   libucrtd:per_thread_data.obj
 0001:00022080       ??$__acrt_lock_and_call@V<lambda_e157831efee4ea0afb0a2ace5dd5fd0d>@@@@YAXW4__acrt_lock_id@@$$QEAV<lambda_e157831efee4ea0afb0a2ace5dd5fd0d>@@@Z 0000000140023080 f   libucrtd:per_thread_data.obj
 0001:000220e0       ??R<lambda_8d0ee55de4b1038c4002e0adecdf1839>@@QEBAXXZ 00000001400230e0 f   libucrtd:per_thread_data.obj
 0001:00022100       ??R<lambda_8f455de75cd7d7f24b4096f044d8b9e6>@@QEBAXXZ 0000000140023100 f   libucrtd:per_thread_data.obj
 0001:00022120       ??R<lambda_92619d2358a28f41a33ba319515a20b9>@@QEBAXXZ 0000000140023120 f   libucrtd:per_thread_data.obj
 0001:00022150       ??R<lambda_e157831efee4ea0afb0a2ace5dd5fd0d>@@QEBAXXZ 0000000140023150 f   libucrtd:per_thread_data.obj
 0001:000221c0       ?construct_ptd@@YAXQEAU__acrt_ptd@@QEAPEAU__crt_locale_data@@@Z 00000001400231c0 f   libucrtd:per_thread_data.obj
 0001:000222a0       ?construct_ptd_array@@YAXQEAU__acrt_ptd@@@Z 00000001400232a0 f   libucrtd:per_thread_data.obj
 0001:00022310       ?destroy_fls@@YAXPEAX@Z    0000000140023310 f   libucrtd:per_thread_data.obj
 0001:00022350       ?destroy_ptd@@YAXQEAU__acrt_ptd@@@Z 0000000140023350 f   libucrtd:per_thread_data.obj
 0001:00022480       ?destroy_ptd_array@@YAXQEAU__acrt_ptd@@@Z 0000000140023480 f   libucrtd:per_thread_data.obj
 0001:000224d0       ?internal_get_ptd_head@@YAPEAU__acrt_ptd@@XZ 00000001400234d0 f   libucrtd:per_thread_data.obj
 0001:00022620       ?internal_getptd_noexit@@YAPEAU__acrt_ptd@@AEBV__crt_scoped_get_last_error_reset@@_K@Z 0000000140023620 f   libucrtd:per_thread_data.obj
 0001:00022660       ?internal_getptd_noexit@@YAPEAU__acrt_ptd@@XZ 0000000140023660 f   libucrtd:per_thread_data.obj
 0001:000226a0       ?replace_current_thread_locale_nolock@@YAXQEAU__acrt_ptd@@QEAU__crt_locale_data@@@Z 00000001400236a0 f   libucrtd:per_thread_data.obj
 0001:00022760       ?try_get_ptd_head@@YAPEAU__acrt_ptd@@XZ 0000000140023760 f   libucrtd:per_thread_data.obj
 0001:000229b0       ??$common_tcscat_s@_W@@YAHQEA_W_KQEB_W@Z 00000001400239b0 f   libucrtd:wcscat_s.obj
 0001:00023070       ??$common_tcscpy_s@_W@@YAHQEA_W_KQEB_W@Z 0000000140024070 f   libucrtd:wcscpy_s.obj
 0001:000235a0       ??$common_tcsncpy_s@_W@@YAHQEA_W_KQEB_W1@Z 00000001400245a0 f   libucrtd:wcsncpy_s.obj
 0001:00023c90       ??$common_strnlen@$00G@@YA_KQEBG_K@Z 0000000140024c90 f   libucrtd:strnlen.obj
 0001:00023cf0       ??$common_strnlen@$0A@E@@YA_KQEBE_K@Z 0000000140024cf0 f   libucrtd:strnlen.obj
 0001:00023d50       ??$common_strnlen@$0A@G@@YA_KQEBG_K@Z 0000000140024d50 f   libucrtd:strnlen.obj
 0001:00023db0       ??$common_strnlen_c@$00G@@YA_KQEBG_K@Z 0000000140024db0 f   libucrtd:strnlen.obj
 0001:00023e30       ??$common_strnlen_c@$0A@E@@YA_KQEBE_K@Z 0000000140024e30 f   libucrtd:strnlen.obj
 0001:00023eb0       ??$common_strnlen_c@$0A@G@@YA_KQEBG_K@Z 0000000140024eb0 f   libucrtd:strnlen.obj
 0001:00023f30       ??$common_strnlen_simd@$00$00G@@YA_KQEBG_K@Z 0000000140024f30 f   libucrtd:strnlen.obj
 0001:000241d0       ??$common_strnlen_simd@$00$0A@G@@YA_KQEBG_K@Z 00000001400251d0 f   libucrtd:strnlen.obj
 0001:000244c0       ??$common_strnlen_simd@$0A@$00E@@YA_KQEBE_K@Z 00000001400254c0 f   libucrtd:strnlen.obj
 0001:00024740       ??$common_strnlen_simd@$0A@$00G@@YA_KQEBG_K@Z 0000000140025740 f   libucrtd:strnlen.obj
 0001:000249e0       ??$common_strnlen_simd@$0A@$0A@E@@YA_KQEBE_K@Z 00000001400259e0 f   libucrtd:strnlen.obj
 0001:00024cb0       ??$common_strnlen_simd@$0A@$0A@G@@YA_KQEBG_K@Z 0000000140025cb0 f   libucrtd:strnlen.obj
 0001:00024fa0       ??$last_reached@$00@@YA_NQEBX0@Z 0000000140025fa0 f   libucrtd:strnlen.obj
 0001:00024fb0       ??$last_reached@$0A@@@YA_NQEBX0@Z 0000000140025fb0 f   libucrtd:strnlen.obj
 0001:000251f0       ??$common_show_message_box@_W@@YAHQEB_W0I@Z 00000001400261f0 f   libucrtd:crtmbox.obj
 0001:00025560       ?<lambda_invoker_cdecl>@<lambda_a1ce4c8ae42411fd470c77163914f50e>@@CAHPEBX0@Z 0000000140026560 f   libucrtd:argv_wildcards.obj
 0001:00025990       ??$common_expand_argv_wildcards@D@@YAHQEAPEADQEAPEAPEAD@Z 0000000140026990 f   libucrtd:argv_wildcards.obj
 0001:00025dc0       ??$copy_and_add_argument_to_buffer@D@@YAHQEBD0_KAEAV?$argument_list@D@?A0x5f5c8891@@@Z 0000000140026dc0 f   libucrtd:argv_wildcards.obj
 0001:00025f70       ??$expand_argument_wildcards@D@@YAHQEAD0AEAV?$argument_list@D@?A0x5f5c8891@@@Z 0000000140026f70 f   libucrtd:argv_wildcards.obj
 0001:00026460       ??0?$argument_list@D@?A0x5f5c8891@@QEAA@XZ 0000000140027460 f   libucrtd:argv_wildcards.obj
 0001:000264f0       ??1?$argument_list@D@?A0x5f5c8891@@QEAA@XZ 00000001400274f0 f   libucrtd:argv_wildcards.obj
 0001:00026560       ??B<lambda_a1ce4c8ae42411fd470c77163914f50e>@@QEBAP6AHPEBX0@ZXZ 0000000140027560 f   libucrtd:argv_wildcards.obj
 0001:000265c0       ??R<lambda_a1ce4c8ae42411fd470c77163914f50e>@@QEBAHPEBX0@Z 00000001400275c0 f   libucrtd:argv_wildcards.obj
 0001:00026600       ??R<lambda_cfae5a0e6efa98e0d1aa03c4cec8f74e>@@QEBA_ND@Z 0000000140027600 f   libucrtd:argv_wildcards.obj
 0001:00026910       ?append@?$argument_list@D@?A0x5f5c8891@@QEAAHQEAD@Z 0000000140027910 f   libucrtd:argv_wildcards.obj
 0001:00026a50       ?end@?$argument_list@D@?A0x5f5c8891@@QEBAPEAPEADXZ 0000000140027a50 f   libucrtd:argv_wildcards.obj
 0001:00026a60       ?expand_if_necessary@?$argument_list@D@?A0x5f5c8891@@AEAAHXZ 0000000140027a60 f   libucrtd:argv_wildcards.obj
 0001:00026c40       ?get_file_name@@YAPEADQEAV?$__crt_win32_buffer@DU__crt_win32_buffer_internal_dynamic_resizing@@@@QEA_W@Z 0000000140027c40 f   libucrtd:argv_wildcards.obj
 0001:00026c90       ?get_wide@@YAPEA_WQEAV?$__crt_win32_buffer@_WU__crt_win32_buffer_internal_dynamic_resizing@@@@QEAD@Z 0000000140027c90 f   libucrtd:argv_wildcards.obj
 0001:00026ce0       ?previous_character@@YAPEADQEAD0@Z 0000000140027ce0 f   libucrtd:argv_wildcards.obj
 0001:00026d70       ?size@?$argument_list@D@?A0x5f5c8891@@QEBA_KXZ 0000000140027d70 f   libucrtd:argv_wildcards.obj
 0001:000272d0       ??$?RV<lambda_efa02eb69bf647d2f7ff0dd6f1103f72>@@AEAV<lambda_bd5a608237428601b7e45fbdc72b1ae8>@@V<lambda_728235dc0fc2b1f82d1fa5b3e7102d8f>@@@?$__crt_seh_guarded_call@X@@QEAAX$$QEAV<lambda_efa02eb69bf647d2f7ff0dd6f1103f72>@@AEAV<lambda_bd5a608237428601b7e45fbdc72b1ae8>@@$$QEAV<lambda_728235dc0fc2b1f82d1fa5b3e7102d8f>@@@Z 00000001400282d0 f   libucrtd:mbctype.obj
 0001:00027310       ??$__acrt_lock_and_call@V<lambda_bd5a608237428601b7e45fbdc72b1ae8>@@@@YAXW4__acrt_lock_id@@$$QEAV<lambda_bd5a608237428601b7e45fbdc72b1ae8>@@@Z 0000000140028310 f   libucrtd:mbctype.obj
 0001:00027450       ??R<lambda_bd5a608237428601b7e45fbdc72b1ae8>@@QEBAXXZ 0000000140028450 f   libucrtd:mbctype.obj
 0001:00027580       ?CPtoLocaleName@@YAPEB_WH@Z 0000000140028580 f   libucrtd:mbctype.obj
 0001:00027620       ?getSystemCP@@YAHH@Z       0000000140028620 f   libucrtd:mbctype.obj
 0001:00027700       ?setSBCS@@YAXPEAU__crt_multibyte_data@@@Z 0000000140028700 f   libucrtd:mbctype.obj
 0001:00027800       ?setSBUpLow@@YAXPEAU__crt_multibyte_data@@@Z 0000000140028800 f   libucrtd:mbctype.obj
 0001:00027bf0       ?setmbcp_internal@@YAHH_NQEAU__acrt_ptd@@QEAPEAU__crt_multibyte_data@@@Z 0000000140028bf0 f   libucrtd:mbctype.obj
 0001:00027e70       ?update_thread_multibyte_data_internal@@YAPEAU__crt_multibyte_data@@QEAU__acrt_ptd@@QEAPEAU1@@Z 0000000140028e70 f   libucrtd:mbctype.obj
 0001:000285c0       memcpy_s                   00000001400295c0 f   libucrtd:cfout.obj
 0001:000285c0       memcpy_s                   00000001400295c0 f   libucrtd:mbctype.obj
 0001:00028700       ?x_ismbbtype_l@@YAHPEAU__crt_locale_pointers@@IHH@Z 0000000140029700 f   libucrtd:ismbbyte.obj
 0001:00028820       ?filter_mbtowcs_flags@@YAKIK@Z 0000000140029820 f   libucrtd:multibytetowidechar.obj
 0001:00028920       ?filter_wcstomb_flags@@YAKIK@Z 0000000140029920 f   libucrtd:widechartomultibyte.obj
 0001:00028af0       ??1?$__crt_unique_handle_t@Uenvironment_strings_traits@?A0x1bf47908@@@@QEAA@XZ 0000000140029af0 f   libucrtd:get_environment_from_os.obj
 0001:00028b10       ?close@?$__crt_unique_handle_t@Uenvironment_strings_traits@?A0x1bf47908@@@@QEAAXXZ 0000000140029b10 f   libucrtd:get_environment_from_os.obj
 0001:00028b50       ?close@environment_strings_traits@?A0x1bf47908@@SA_NPEA_W@Z 0000000140029b50 f   libucrtd:get_environment_from_os.obj
 0001:00028b70       ?find_end_of_double_null_terminated_sequence@@YAPEB_WQEB_W@Z 0000000140029b70 f   libucrtd:get_environment_from_os.obj
 0001:00028bc0       ?is_valid@?$__crt_unique_handle_t@Uenvironment_strings_traits@?A0x1bf47908@@@@QEBA_NXZ 0000000140029bc0 f   libucrtd:get_environment_from_os.obj
 0001:00028e30       ??$get_cached_win_policy@Udeveloper_information_policy_properties@?1??__acrt_get_developer_information_policy@@YA?AW4developer_information_policy@@XZ@@@YA?AW4developer_information_policy@@W4AppPolicyShowDeveloperDiagnostic@@@Z 0000000140029e30 f   libucrtd:win_policies.obj
 0001:00028f00       ??$get_cached_win_policy@Uwindowing_model_policy_properties@?1??__acrt_get_windowing_model_policy@@YA?AW4windowing_model_policy@@XZ@@@YA?AW4windowing_model_policy@@W4AppPolicyWindowingModel@@@Z 0000000140029f00 f   libucrtd:win_policies.obj
 0001:00028fd0       ??$get_win_policy@Uprocess_end_policy_properties@?1??__acrt_get_process_end_policy@@YA?AW4process_end_policy@@XZ@@@YA?AW4process_end_policy@@W4AppPolicyProcessTerminationMethod@@@Z 0000000140029fd0 f   libucrtd:win_policies.obj
 0001:00029020       ?appmodel_get_policy@developer_information_policy_properties@?1??__acrt_get_developer_information_policy@@YA?AW4developer_information_policy@@XZ@SAJPEAW4AppPolicyShowDeveloperDiagnostic@@@Z 000000014002a020 f   libucrtd:win_policies.obj
 0001:00029040       ?appmodel_get_policy@process_end_policy_properties@?1??__acrt_get_process_end_policy@@YA?AW4process_end_policy@@XZ@SAJPEAW4AppPolicyProcessTerminationMethod@@@Z 000000014002a040 f   libucrtd:win_policies.obj
 0001:00029060       ?appmodel_get_policy@windowing_model_policy_properties@?1??__acrt_get_windowing_model_policy@@YA?AW4windowing_model_policy@@XZ@SAJPEAW4AppPolicyWindowingModel@@@Z 000000014002a060 f   libucrtd:win_policies.obj
 0001:00029080       ?appmodel_policy_to_policy_type@developer_information_policy_properties@?1??__acrt_get_developer_information_policy@@YA?AW4developer_information_policy@@XZ@SA?AW43@J@Z 000000014002a080 f   libucrtd:win_policies.obj
 0001:000290a0       ?appmodel_policy_to_policy_type@process_end_policy_properties@?1??__acrt_get_process_end_policy@@YA?AW4process_end_policy@@XZ@SA?AW43@W4AppPolicyProcessTerminationMethod@@@Z 000000014002a0a0 f   libucrtd:win_policies.obj
 0001:000290c0       ?appmodel_policy_to_policy_type@windowing_model_policy_properties@?1??__acrt_get_windowing_model_policy@@YA?AW4windowing_model_policy@@XZ@SA?AW43@J@Z 000000014002a0c0 f   libucrtd:win_policies.obj
 0001:00029910       ?get_std_handle_id@@YAKH@Z 000000014002a910 f   libucrtd:ioinit.obj
 0001:00029960       ?initialize_inherited_file_handles_nolock@@YAXXZ 000000014002a960 f   libucrtd:ioinit.obj
 0001:00029b10       ?initialize_stdio_handles_nolock@@YAXXZ 000000014002ab10 f   libucrtd:ioinit.obj
 0001:0002a070       ??$free_crt_array@D$01@@YAXAEAY01PEAD@Z 000000014002b070 f   libucrtd:inittime.obj
 0001:0002a070       ??$free_crt_array@_W$01@@YAXAEAY01PEA_W@Z 000000014002b070 f   libucrtd:inittime.obj
 0001:0002a090       ??$free_crt_array@D$06@@YAXAEAY06PEAD@Z 000000014002b090 f   libucrtd:inittime.obj
 0001:0002a090       ??$free_crt_array@_W$06@@YAXAEAY06PEA_W@Z 000000014002b090 f   libucrtd:inittime.obj
 0001:0002a0b0       ??$free_crt_array@D$0M@@@YAXAEAY0M@PEAD@Z 000000014002b0b0 f   libucrtd:inittime.obj
 0001:0002a0b0       ??$free_crt_array@_W$0M@@@YAXAEAY0M@PEA_W@Z 000000014002b0b0 f   libucrtd:inittime.obj
 0001:0002a0d0       ?free_crt_array_internal@@YAXQEAPEBX_K@Z 000000014002b0d0 f   libucrtd:inittime.obj
 0001:0002b1b0       ?try_get_AppPolicyGetProcessTerminationMethod@@YAP6AJPEAXPEAW4AppPolicyProcessTerminationMethod@@@ZXZ 000000014002c1b0 f   libucrtd:winapi_thunks.obj
 0001:0002b1e0       ?try_get_AppPolicyGetShowDeveloperDiagnostic@@YAP6AJPEAXPEAW4AppPolicyShowDeveloperDiagnostic@@@ZXZ 000000014002c1e0 f   libucrtd:winapi_thunks.obj
 0001:0002b210       ?try_get_AppPolicyGetWindowingModel@@YAP6AJPEAXPEAW4AppPolicyWindowingModel@@@ZXZ 000000014002c210 f   libucrtd:winapi_thunks.obj
 0001:0002b240       ?try_get_AreFileApisANSI@@YAP6AHXZXZ 000000014002c240 f   libucrtd:winapi_thunks.obj
 0001:0002b270       ?try_get_GetActiveWindow@@YAP6APEAUHWND__@@XZXZ 000000014002c270 f   libucrtd:winapi_thunks.obj
 0001:0002b2a0       ?try_get_GetLastActivePopup@@YAP6APEAUHWND__@@PEAU1@@ZXZ 000000014002c2a0 f   libucrtd:winapi_thunks.obj
 0001:0002b2d0       ?try_get_GetProcessWindowStation@@YAP6APEAUHWINSTA__@@XZXZ 000000014002c2d0 f   libucrtd:winapi_thunks.obj
 0001:0002b300       ?try_get_GetUserObjectInformationW@@YAP6AHPEAXH0KPEAK@ZXZ 000000014002c300 f   libucrtd:winapi_thunks.obj
 0001:0002b330       ?try_get_InitializeCriticalSectionEx@@YAP6AHPEAU_RTL_CRITICAL_SECTION@@KK@ZXZ 000000014002c330 f   libucrtd:winapi_thunks.obj
 0001:0002b360       ?try_get_LCMapStringEx@@YAP6AHPEB_WK0HPEA_WHPEAU_nlsversioninfo@@PEAX_J@ZXZ 000000014002c360 f   libucrtd:winapi_thunks.obj
 0001:0002b390       ?try_get_LocaleNameToLCID@@YAP6AKPEB_WK@ZXZ 000000014002c390 f   libucrtd:winapi_thunks.obj
 0001:0002b3c0       ?try_get_MessageBoxA@@YAP6AHPEAUHWND__@@PEBD1I@ZXZ 000000014002c3c0 f   libucrtd:winapi_thunks.obj
 0001:0002b3f0       ?try_get_MessageBoxW@@YAP6AHPEAUHWND__@@PEB_W1I@ZXZ 000000014002c3f0 f   libucrtd:winapi_thunks.obj
 0001:0002b420       ?try_get_first_available_module@@YAPEAUHINSTANCE__@@QEBW4module_id@?A0x391cf84c@@0@Z 000000014002c420 f   libucrtd:winapi_thunks.obj
 0001:0002b480       ?try_get_function@@YAPEAXW4function_id@?A0x391cf84c@@QEBDQEBW4module_id@2@2@Z 000000014002c480 f   libucrtd:winapi_thunks.obj
 0001:0002b620       ?try_get_module@@YAPEAUHINSTANCE__@@W4module_id@?A0x391cf84c@@@Z 000000014002c620 f   libucrtd:winapi_thunks.obj
 0001:0002b780       ?try_get_proc_address_from_first_available_module@@YAPEAXQEBDQEBW4module_id@?A0x391cf84c@@1@Z 000000014002c780 f   libucrtd:winapi_thunks.obj
 0001:0002b7d0       ?try_load_library_from_system_directory@@YAPEAUHINSTANCE__@@QEB_W@Z 000000014002c7d0 f   libucrtd:winapi_thunks.obj
 0001:0002c1e0       ??$?RV<lambda_450d765d439847d4c735a33c368b5fc0>@@AEAV<lambda_44731a7d0e6d81c3e6aa82d741081786>@@V<lambda_601a2a7da3b7a96e9554ac7215c4b07c>@@@?$__crt_seh_guarded_call@P6AXH@Z@@QEAAP6AXH@Z$$QEAV<lambda_450d765d439847d4c735a33c368b5fc0>@@AEAV<lambda_44731a7d0e6d81c3e6aa82d741081786>@@$$QEAV<lambda_601a2a7da3b7a96e9554ac7215c4b07c>@@@Z 000000014002d1e0 f   libucrtd:signal.obj
 0001:0002c230       ??$__acrt_lock_and_call@V<lambda_44731a7d0e6d81c3e6aa82d741081786>@@@@YAP6AXH@ZW4__acrt_lock_id@@$$QEAV<lambda_44731a7d0e6d81c3e6aa82d741081786>@@@Z 000000014002d230 f   libucrtd:signal.obj
 0001:0002c290       ??R<lambda_44731a7d0e6d81c3e6aa82d741081786>@@QEBAP6AXH@ZXZ 000000014002d290 f   libucrtd:signal.obj
 0001:0002c2c0       ?get_global_action_nolock@@YAPEAP6AXH@ZH@Z 000000014002d2c0 f   libucrtd:signal.obj
 0001:0002c350       ?siglookup@@YAPEAU__crt_signal_action_t@@HQEAU1@@Z 000000014002d350 f   libucrtd:signal.obj
 0001:0002c924       $LN58                      000000014002d924     libucrtd:signal.obj
 0001:0002c930       $LN57                      000000014002d930     libucrtd:signal.obj
 0001:0002ca60       ?select_heap@@YAPEAXQEAX@Z 000000014002da60 f   libucrtd:free_base.obj
 0001:0002cb80       ?is_contraction_possible@@YA_N_K@Z 000000014002db80 f   libucrtd:expand.obj
 0001:0002e810       ?fe_to_nearest@@YA_NQEBN_KF@Z 000000014002f810 f   libucrtd:cvt.obj
 0001:0002e960       ?fp_format_a@@YAHQEBNPEAD_KQEAD2H_NIW4__acrt_rounding_mode@@AEAV__crt_cached_ptd_host@@@Z 000000014002f960 f   libucrtd:cvt.obj
 0001:0002f1b0       ?fp_format_e@@YAHQEBNQEAD_K12H_NIW4__acrt_rounding_mode@@AEAV__crt_cached_ptd_host@@@Z 00000001400301b0 f   libucrtd:cvt.obj
 0001:0002f390       ?fp_format_e_internal@@YAHQEAD_KH_NIQEAU_strflt@@2AEAV__crt_cached_ptd_host@@@Z 0000000140030390 f   libucrtd:cvt.obj
 0001:0002f7c0       ?fp_format_f@@YAHQEBNQEAD_K12HW4__acrt_rounding_mode@@AEAV__crt_cached_ptd_host@@@Z 00000001400307c0 f   libucrtd:cvt.obj
 0001:0002f950       ?fp_format_f_internal@@YAHQEAD_KHQEAU_strflt@@_NAEAV__crt_cached_ptd_host@@@Z 0000000140030950 f   libucrtd:cvt.obj
 0001:0002fb90       ?fp_format_g@@YAHQEBNQEAD_K12H_NIW4__acrt_rounding_mode@@AEAV__crt_cached_ptd_host@@@Z 0000000140030b90 f   libucrtd:cvt.obj
 0001:0002fdf0       ?fp_format_nan_or_infinity@@YAHW4__acrt_fp_class@@_NPEAD_K1@Z 0000000140030df0 f   libucrtd:cvt.obj
 0001:0002ff60       ?shift_bytes@@YAXQEAD_K0H@Z 0000000140030f60 f   libucrtd:cvt.obj
 0001:0002ffb0       ?should_round_up@@YA_NQEBN_KFW4__acrt_rounding_mode@@@Z 0000000140030fb0 f   libucrtd:cvt.obj
 0001:00030778       $LN42                      0000000140031778     libucrtd:cvt.obj
 0001:0003078c       $LN41                      000000014003178c     libucrtd:cvt.obj
 0001:00031520       $$000000                   0000000140032520     libucrtd:fpsr.obj
 0001:00031dd0       ?shortsort@@YAXPEAD0_KP6AHPEBX2@Z@Z 0000000140032dd0 f   libucrtd:qsort.obj
 0001:00031ed0       ?swap@@YAXPEAD0_K@Z        0000000140032ed0 f   libucrtd:qsort.obj
 0001:00032740       ??$common_tcsncpy_s@D@@YAHQEAD_KQEBD1@Z 0000000140033740 f   libucrtd:strncpy_s.obj
 0001:00032e10       fallbackMethod             0000000140033e10 f   libucrtd:strpbrk.obj
 0001:00033774       $LN85                      0000000140034774     libucrtd:strpbrk.obj
 0001:000337b0       $LN84                      00000001400347b0     libucrtd:strpbrk.obj
 0001:000337f0       $LN83                      00000001400347f0     libucrtd:strpbrk.obj
 0001:00033af0       ?__acrt_LCMapStringA_stat@@YAHPEAU__crt_locale_pointers@@PEB_WKPEBDHPEADHHH@Z 0000000140034af0 f   libucrtd:lcmapstringa.obj
 0001:000341a0       ?initialize_multibyte@@YAHXZ 00000001400351a0 f   libucrtd:multibyte_initializer.obj
 0001:000341d0       ??$common_xtox@KD@@YAHKQEAD_KI_N@Z 00000001400351d0 f   libucrtd:xtoa.obj
 0001:00034410       ??$common_xtox@K_W@@YAHKQEA_W_KI_N@Z 0000000140035410 f   libucrtd:xtoa.obj
 0001:00034660       ??$common_xtox_s@KD@@YAHKQEAD_KI_N@Z 0000000140035660 f   libucrtd:xtoa.obj
 0001:00034a10       ??$common_xtox_s@K_W@@YAHKQEA_W_KI_N@Z 0000000140035a10 f   libucrtd:xtoa.obj
 0001:00034f50       ?GetTableIndexFromLocaleName@@YAHPEB_W@Z 0000000140035f50 f   libucrtd:lcidtoname_downlevel.obj
 0001:00035170       ??$?RV<lambda_842d9ff0dc9ef11c61343bbaebe7f885>@@AEAV<lambda_c5860995281e5c4ce005b3de8f5874ee>@@V<lambda_d90129c13df834fdcbf8d2b88dafcf2d>@@@?$__crt_seh_guarded_call@X@@QEAAX$$QEAV<lambda_842d9ff0dc9ef11c61343bbaebe7f885>@@AEAV<lambda_c5860995281e5c4ce005b3de8f5874ee>@@$$QEAV<lambda_d90129c13df834fdcbf8d2b88dafcf2d>@@@Z 0000000140036170 f   libucrtd:fflush.obj
 0001:000351b0       ??$?RV<lambda_886d6c58226a84441f68b9f2b8217b83>@@AEAV<lambda_ab61a845afdef5b7c387490eaf3616ee>@@V<lambda_f7f22ab5edc0698d5f6905b0d3f44752>@@@?$__crt_seh_guarded_call@X@@QEAAX$$QEAV<lambda_886d6c58226a84441f68b9f2b8217b83>@@AEAV<lambda_ab61a845afdef5b7c387490eaf3616ee>@@$$QEAV<lambda_f7f22ab5edc0698d5f6905b0d3f44752>@@@Z 00000001400361b0 f   libucrtd:fflush.obj
 0001:000351f0       ??$__acrt_lock_and_call@V<lambda_ab61a845afdef5b7c387490eaf3616ee>@@@@YAXW4__acrt_lock_id@@$$QEAV<lambda_ab61a845afdef5b7c387490eaf3616ee>@@@Z 00000001400361f0 f   libucrtd:fflush.obj
 0001:00035250       ??$__acrt_lock_stream_and_call@V<lambda_c5860995281e5c4ce005b3de8f5874ee>@@@@YAXQEAU_iobuf@@$$QEAV<lambda_c5860995281e5c4ce005b3de8f5874ee>@@@Z 0000000140036250 f   libucrtd:fflush.obj
 0001:000352b0       ??0<lambda_842d9ff0dc9ef11c61343bbaebe7f885>@@QEAA@AEBQEAU_iobuf@@@Z 00000001400362b0 f   libucrtd:fflush.obj
 0001:000352b0       ??0<lambda_d90129c13df834fdcbf8d2b88dafcf2d>@@QEAA@AEBQEAU_iobuf@@@Z 00000001400362b0 f   libucrtd:fflush.obj
 0001:000352d0       ??0<lambda_c5860995281e5c4ce005b3de8f5874ee>@@QEAA@AEBV__crt_stdio_stream@@AEAHAEB_N1@Z 00000001400362d0 f   libucrtd:fflush.obj
 0001:00035330       ??R<lambda_842d9ff0dc9ef11c61343bbaebe7f885>@@QEBAXXZ 0000000140036330 f   libucrtd:fflush.obj
 0001:00035350       ??R<lambda_ab61a845afdef5b7c387490eaf3616ee>@@QEBA@XZ 0000000140036350 f   libucrtd:fflush.obj
 0001:00035440       ??R<lambda_c5860995281e5c4ce005b3de8f5874ee>@@QEBAXXZ 0000000140036440 f   libucrtd:fflush.obj
 0001:000354f0       ??R<lambda_d90129c13df834fdcbf8d2b88dafcf2d>@@QEBAXXZ 00000001400364f0 f   libucrtd:fflush.obj
 0001:00035560       ?_fflush_nolock_internal@@YAHQEAU_iobuf@@AEAV__crt_cached_ptd_host@@@Z 0000000140036560 f   libucrtd:fflush.obj
 0001:00035600       ?common_flush_all@@YAH_N@Z 0000000140036600 f   libucrtd:fflush.obj
 0001:00035670       ?common_flush_all_should_try_to_flush_stream@@YA_NV__crt_stdio_stream@@QEAH@Z 0000000140036670 f   libucrtd:fflush.obj
 0001:00035720       ?is_stream_allocated@@YA_NJ@Z 0000000140036720 f   libucrtd:fflush.obj
 0001:00035750       ?is_stream_flushable@@YA_NJ@Z 0000000140036750 f   libucrtd:fflush.obj
 0001:00035780       ?is_stream_flushable_or_commitable@@YA_NJ@Z 0000000140036780 f   libucrtd:fflush.obj
 0001:000359d0       ?_mbstowcs_internal@@YAHPEA_KPEA_W_KPEBD2AEAV__crt_cached_ptd_host@@@Z 00000001400369d0 f   libucrtd:mbstowcs.obj
 0001:00035fb0       ?_mbstowcs_l_helper@@YA_KPEA_WPEBD_KAEAV__crt_cached_ptd_host@@@Z 0000000140036fb0 f   libucrtd:mbstowcs.obj
 0001:00036560       ?_wcstombs_internal@@YAHPEA_KPEAD_KPEB_W2AEAV__crt_cached_ptd_host@@@Z 0000000140037560 f   libucrtd:wcstombs.obj
 0001:00036b30       ?_wcstombs_l_helper@@YA_KPEADPEB_W_KAEAV__crt_cached_ptd_host@@@Z 0000000140037b30 f   libucrtd:wcstombs.obj
 0001:000372c0       ?wcsncnt@@YA_KPEB_W_K@Z    00000001400382c0 f   libucrtd:wcstombs.obj
 0001:000373d0       ??$common_tcscat_s@D@@YAHQEAD_KQEBD@Z 00000001400383d0 f   libucrtd:strcat_s.obj
 0001:00037a70       ?check_trailing@@YA_NPEBDW4__acrt_has_trailing_digits@@@Z 0000000140038a70 f   libucrtd:_fptostr.obj
 0001:00037ac0       ?should_round_up@@YA_NQEBD0HW4__acrt_has_trailing_digits@@W4__acrt_rounding_mode@@@Z 0000000140038ac0 f   libucrtd:_fptostr.obj
 0001:00038160       ??$convert_to_fos_high_precision@N@@YA?AW4__acrt_has_trailing_digits@@NIW4__acrt_precision_style@@QEAHQEAD_K@Z 0000000140039160 f   libucrtd:cfout.obj
 0001:00038880       ??0scoped_fp_state_reset@?A0x71ca7cfb@@QEAA@XZ 0000000140039880 f   libucrtd:cfout.obj
 0001:000388d0       ??1scoped_fp_state_reset@?A0x71ca7cfb@@QEAA@XZ 00000001400398d0 f   libucrtd:cfout.obj
 0001:0003a6d0       ??R<lambda_599026849492e2a71b24cce8b46aab16>@@QEBA_KPEBD@Z 000000014003b6d0 f   libucrtd:mbrtowc.obj
 0001:0003adc0       ??$?RV<lambda_7d29013d608e9f25a034de83c9b9e983>@@AEAV<lambda_3e4146214822e0ea86c47ff907aef2ff>@@V<lambda_b869e5a4e1069fcb5c3da79c0d999133>@@@?$__crt_seh_guarded_call@H@@QEAAH$$QEAV<lambda_7d29013d608e9f25a034de83c9b9e983>@@AEAV<lambda_3e4146214822e0ea86c47ff907aef2ff>@@$$QEAV<lambda_b869e5a4e1069fcb5c3da79c0d999133>@@@Z 000000014003bdc0 f   libucrtd:commit.obj
 0001:0003ae10       ??$__acrt_lowio_lock_fh_and_call@V<lambda_3e4146214822e0ea86c47ff907aef2ff>@@@@YAHH$$QEAV<lambda_3e4146214822e0ea86c47ff907aef2ff>@@@Z 000000014003be10 f   libucrtd:commit.obj
 0001:0003ae70       ??R<lambda_3e4146214822e0ea86c47ff907aef2ff>@@QEBAHXZ 000000014003be70 f   libucrtd:commit.obj
 0001:0003af40       ??R<lambda_19eaff14c5fe7be5b1b106a862eb1091>@@QEBAXXZ 000000014003bf40 f   libucrtd:close.obj
 0001:0003af40       ??R<lambda_7d29013d608e9f25a034de83c9b9e983>@@QEBAXXZ 000000014003bf40 f   libucrtd:commit.obj
 0001:0003af60       ??R<lambda_3ce37f5b621ab310299ea5f68cbdf3bb>@@QEBAXXZ 000000014003bf60 f   libucrtd:close.obj
 0001:0003af60       ??R<lambda_b869e5a4e1069fcb5c3da79c0d999133>@@QEBAXXZ 000000014003bf60 f   libucrtd:commit.obj
 0001:0003b160       ?write_binary_nolock@@YA?AUwrite_result@?A0x17268360@@HQEBDI@Z 000000014003c160 f   libucrtd:write.obj
 0001:0003b230       ?write_double_translated_ansi_nolock@@YA?AUwrite_result@?A0x17268360@@HQEBDIAEAV__crt_cached_ptd_host@@@Z 000000014003c230 f   libucrtd:write.obj
 0001:0003bf90       ?write_double_translated_unicode_nolock@@YA?AUwrite_result@?A0x17268360@@QEBDI@Z 000000014003cf90 f   libucrtd:write.obj
 0001:0003c0f0       ?write_requires_double_translation_nolock@@YA_NHAEAV__crt_cached_ptd_host@@@Z 000000014003d0f0 f   libucrtd:write.obj
 0001:0003c200       ?write_text_ansi_nolock@@YA?AUwrite_result@?A0x17268360@@HQEBDI@Z 000000014003d200 f   libucrtd:write.obj
 0001:0003c430       ?write_text_utf16le_nolock@@YA?AUwrite_result@?A0x17268360@@HQEBDI@Z 000000014003d430 f   libucrtd:write.obj
 0001:0003c680       ?write_text_utf8_nolock@@YA?AUwrite_result@?A0x17268360@@HQEBDI@Z 000000014003d680 f   libucrtd:write.obj
 0001:0003d690       $$000000                   000000014003e690     libucrtd:log10.obj
 0001:0003e1d0       ??$to_abstract_status@W4__acrt_fenv_machine_sse_status@@@@YA?AW4__acrt_fenv_abstract_status@@W4__acrt_fenv_machine_sse_status@@@Z 000000014003f1d0 f   libucrtd:_fenvutils.obj
 0001:0003e1f0       ??$translate_control_exception_mask@W4__acrt_fenv_abstract_control@@W4__acrt_fenv_machine_sse_control@@@@YA?AW4__acrt_fenv_abstract_control@@W4__acrt_fenv_machine_sse_control@@@Z 000000014003f1f0 f   libucrtd:_fenvutils.obj
 0001:0003e2e0       ??$translate_control_exception_mask@W4__acrt_fenv_machine_sse_control@@W4__acrt_fenv_abstract_control@@@@YA?AW4__acrt_fenv_machine_sse_control@@W4__acrt_fenv_abstract_control@@@Z 000000014003f2e0 f   libucrtd:_fenvutils.obj
 0001:0003e3d0       ??$translate_control_rounding_control@W4__acrt_fenv_abstract_control@@W4__acrt_fenv_machine_sse_control@@@@YA?AW4__acrt_fenv_abstract_control@@W4__acrt_fenv_machine_sse_control@@@Z 000000014003f3d0 f   libucrtd:_fenvutils.obj
 0001:0003e440       ??$translate_control_rounding_control@W4__acrt_fenv_machine_sse_control@@W4__acrt_fenv_abstract_control@@@@YA?AW4__acrt_fenv_machine_sse_control@@W4__acrt_fenv_abstract_control@@@Z 000000014003f440 f   libucrtd:_fenvutils.obj
 0001:0003e4b0       ??$translate_status@W4__acrt_fenv_abstract_status@@W4__acrt_fenv_machine_sse_status@@@@YA?AW4__acrt_fenv_abstract_status@@W4__acrt_fenv_machine_sse_status@@@Z 000000014003f4b0 f   libucrtd:_fenvutils.obj
 0001:0003e5a0       ??$translate_status@W4__acrt_fenv_machine_sse_status@@W4__acrt_fenv_abstract_status@@@@YA?AW4__acrt_fenv_machine_sse_status@@W4__acrt_fenv_abstract_status@@@Z 000000014003f5a0 f   libucrtd:_fenvutils.obj
 0001:0003e870       ?get_machine_sse_control@@YA?AW4__acrt_fenv_machine_sse_control@@XZ 000000014003f870 f   libucrtd:_fenvutils.obj
 0001:0003e890       ?get_machine_sse_status@@YA?AW4__acrt_fenv_machine_sse_status@@XZ 000000014003f890 f   libucrtd:_fenvutils.obj
 0001:0003e8b0       ?set_machine_sse_control@@YAXW4__acrt_fenv_machine_sse_control@@@Z 000000014003f8b0 f   libucrtd:_fenvutils.obj
 0001:0003e910       ?set_machine_sse_status@@YAXW4__acrt_fenv_machine_sse_status@@@Z 000000014003f910 f   libucrtd:_fenvutils.obj
 0001:0003e960       ?to_abstract_control@@YA?AW4__acrt_fenv_abstract_control@@W4__acrt_fenv_machine_sse_control@@@Z 000000014003f960 f   libucrtd:_fenvutils.obj
 0001:0003e9c0       ?to_machine_sse_control@@YA?AW4__acrt_fenv_machine_sse_control@@W4__acrt_fenv_abstract_control@@@Z 000000014003f9c0 f   libucrtd:_fenvutils.obj
 0001:0003ea30       ?to_machine_sse_status@@YA?AW4__acrt_fenv_machine_sse_status@@W4__acrt_fenv_abstract_status@@@Z 000000014003fa30 f   libucrtd:_fenvutils.obj
 0001:0003ea50       ?translate_control_denormal_control_from_sse@@YA?AW4__acrt_fenv_abstract_control@@W4__acrt_fenv_machine_sse_control@@@Z 000000014003fa50 f   libucrtd:_fenvutils.obj
 0001:0003ead0       ?translate_control_denormal_control_to_sse@@YA?AW4__acrt_fenv_machine_sse_control@@W4__acrt_fenv_abstract_control@@@Z 000000014003fad0 f   libucrtd:_fenvutils.obj
 0001:0003f090       ?_fclose_internal@@YAHQEAU_iobuf@@AEAV__crt_cached_ptd_host@@@Z 0000000140040090 f   libucrtd:fclose.obj
 0001:0003f1f0       ?_fclose_nolock_internal@@YAHQEAU_iobuf@@AEAV__crt_cached_ptd_host@@@Z 00000001400401f0 f   libucrtd:fclose.obj
 0001:0003f3e0       ??$common_lseek_nolock@_J@@YA_JH_JHAEAV__crt_cached_ptd_host@@@Z 00000001400403e0 f   libucrtd:lseek.obj
 0001:0003f510       ?common_lseek_do_seek_nolock@@YA_JQEAX_JHAEAV__crt_cached_ptd_host@@@Z 0000000140040510 f   libucrtd:lseek.obj
 0001:0003f730       ?combine_second_surrogate@?A0xc60ee810@@YA_U_SPEAU_Mbstatet@@@Z 0000000140040730 f   libucrtd:c16rtomb.obj
 0001:0003f750       ?has_surrogate@?A0xc60ee810@@YA_NPEAU_Mbstatet@@@Z 0000000140040750 f   libucrtd:c16rtomb.obj
 0001:0003f780       ?is_first_surrogate@?A0xc60ee810@@YA_N_S@Z 0000000140040780 f   libucrtd:c16rtomb.obj
 0001:0003f7c0       ?is_second_surrogate@?A0xc60ee810@@YA_N_S@Z 00000001400407c0 f   libucrtd:c16rtomb.obj
 0001:0003f800       ?store_first_surrogate@?A0xc60ee810@@YAX_SPEAU_Mbstatet@@@Z 0000000140040800 f   libucrtd:c16rtomb.obj
 0001:0003f890       _log_special_common        0000000140040890 f   libucrtd:log_special.obj
 0001:0003f9b0       _abstract_cw               00000001400409b0 f   libucrtd:ieee.obj
 0001:0003fb00       _abstract_sw               0000000140040b00 f   libucrtd:ieee.obj
 0001:0003fbe0       _hw_cw                     0000000140040be0 f   libucrtd:ieee.obj
 0001:0003fd30       common_control87           0000000140040d30 f   libucrtd:ieee.obj
 0001:0003fe50       ??$?RV<lambda_19eaff14c5fe7be5b1b106a862eb1091>@@AEAV<lambda_af29824b49a67d335554598d6cad2be6>@@V<lambda_3ce37f5b621ab310299ea5f68cbdf3bb>@@@?$__crt_seh_guarded_call@H@@QEAAH$$QEAV<lambda_19eaff14c5fe7be5b1b106a862eb1091>@@AEAV<lambda_af29824b49a67d335554598d6cad2be6>@@$$QEAV<lambda_3ce37f5b621ab310299ea5f68cbdf3bb>@@@Z 0000000140040e50 f   libucrtd:close.obj
 0001:0003fea0       ??$__acrt_lowio_lock_fh_and_call@V<lambda_af29824b49a67d335554598d6cad2be6>@@@@YAHH$$QEAV<lambda_af29824b49a67d335554598d6cad2be6>@@@Z 0000000140040ea0 f   libucrtd:close.obj
 0001:0003ff00       ??R<lambda_af29824b49a67d335554598d6cad2be6>@@QEBAHXZ 0000000140040f00 f   libucrtd:close.obj
 0001:0003ffd0       ?close_os_handle_nolock@@YAKH@Z 0000000140040fd0 f   libucrtd:close.obj
 0001:000404a0       ??$console_output_reopen_and_retry@V<lambda_61c1b8a38cedca4df5fdc542e6ccae6d>@@@@YAHAEBV<lambda_61c1b8a38cedca4df5fdc542e6ccae6d>@@@Z 00000001400414a0 f   libucrtd:initcon.obj
 0001:00040500       ??0<lambda_61c1b8a38cedca4df5fdc542e6ccae6d>@@QEAA@AEBQEBXAEBKAEBQEAK@Z 0000000140041500 f   libucrtd:initcon.obj
 0001:00040550       ??R<lambda_61c1b8a38cedca4df5fdc542e6ccae6d>@@QEBAHXZ 0000000140041550 f   libucrtd:initcon.obj
 0001:00040590       ?__dcrt_lowio_initialize_console_output@@YAXXZ 0000000140041590 f   libucrtd:initcon.obj
 0001:00040900       $$000000                   0000000140041900     LIBCMTD:chkstk.obj
 0001:00040a10       $$000000                   0000000140041a10     libvcruntimed:memcmp.obj
 0001:00040fa0       $$000000                   0000000140041fa0     LIBCMTD:guard_dispatch.obj
 0001:00040fc0       $$000000                   0000000140041fc0     LIBCMTD:guard_xfg_dispatch.obj
 0001:00040fe0       ?filt$0@?0??__scrt_common_main_seh@@YAHXZ@4HA 0000000140041fe0 f   LIBCMTD:exe_winmain.obj
 0001:00041010       __scrt_is_nonwritable_in_current_image$filt$0 0000000140042010 f   LIBCMTD:utility.obj
 0001:00041050       __DestructExceptionObject$filt$0 0000000140042050 f   libvcruntimed:ehhelpers.obj
 0001:00041080       ?filt$0@?0???$_CallSETranslator@V__FrameHandler3@@@@YAHPEAUEHExceptionRecord@@PEA_KPEAU_CONTEXT@@PEAU_xDISPATCHER_CONTEXT@@PEBU_s_FuncInfo@@K1H@Z@4HA 0000000140042080 f   libvcruntimed:risctrnsctrl.obj
 0001:000410f0       ?filt$0@?0???$BuildCatchObjectHelperInternal@V__FrameHandler3@@@@YAHPEAUEHExceptionRecord@@PEAXPEBU_s_HandlerType@@PEBU_s_CatchableType@@@Z@4HA 00000001400420f0 f   libvcruntimed:frame.obj
 0001:000410f0       ?filt$0@?0???$BuildCatchObjectInternal@V__FrameHandler3@@@@YAXPEAUEHExceptionRecord@@PEAXPEBU_s_HandlerType@@PEBU_s_CatchableType@@@Z@4HA 00000001400420f0 f   libvcruntimed:frame.obj
 0001:000410f0       ?filt$0@?0??is_bad_read_pointer@@YA_NQEBX_K@Z@4HA 00000001400420f0 f   libucrtd:debug_heap.obj
 0001:000410f0       terminate$filt$0           00000001400420f0 f   libucrtd:terminate.obj
 0001:00041110       ?filt$0@?0??CxxCallCatchBlock@__FrameHandler3@@SAPEAXPEAU_EXCEPTION_RECORD@@@Z@4HA 0000000140042110 f   libvcruntimed:frame.obj
 0001:00041139       ?fin$1@?0??CxxCallCatchBlock@__FrameHandler3@@SAPEAXPEAU_EXCEPTION_RECORD@@@Z@4HA 0000000140042139 f   libvcruntimed:frame.obj
 0001:000411d0       ?filt$0@?0??FrameUnwindToState@__FrameHandler3@@SAXPEA_KPEAU_xDISPATCHER_CONTEXT@@PEBU_s_FuncInfo@@H@Z@4HA 00000001400421d0 f   libvcruntimed:frame.obj
 0001:000411f1       ?fin$1@?0??FrameUnwindToState@__FrameHandler3@@SAXPEA_KPEAU_xDISPATCHER_CONTEXT@@PEBU_s_FuncInfo@@H@Z@4HA 00000001400421f1 f   libvcruntimed:frame.obj
 0001:00041230       _free_dbg$fin$0            0000000140042230 f   libucrtd:debug_heap.obj
 0001:00041230       _query_new_handler$fin$0   0000000140042230 f   libucrtd:new_handler.obj
 0001:00041250       ?fin$0@?0???$?RV<lambda_0ae27a3a962d80f24befdcbee591983d>@@AEAV<lambda_8d0ee55de4b1038c4002e0adecdf1839>@@V<lambda_dc504788e8f1664fe9b84e20bfb512f2>@@@?$__crt_seh_guarded_call@X@@QEAAX$$QEAV<lambda_0ae27a3a962d80f24befdcbee591983d>@@AEAV<lambda_8d0ee55de4b1038c4002e0adecdf1839>@@$$QEAV<lambda_dc504788e8f1664fe9b84e20bfb512f2>@@@Z@4HA 0000000140042250 f   libucrtd:per_thread_data.obj
 0001:00041250       ?fin$0@?0???$?RV<lambda_2d41944a1d46af3157314b8a01080d33>@@AEAV<lambda_8f455de75cd7d7f24b4096f044d8b9e6>@@V<lambda_aa500f224e6afead328df44964fe2772>@@@?$__crt_seh_guarded_call@X@@QEAAX$$QEAV<lambda_2d41944a1d46af3157314b8a01080d33>@@AEAV<lambda_8f455de75cd7d7f24b4096f044d8b9e6>@@$$QEAV<lambda_aa500f224e6afead328df44964fe2772>@@@Z@4HA 0000000140042250 f   libucrtd:per_thread_data.obj
 0001:00041250       ?fin$0@?0???$?RV<lambda_74a0ef281e44d15e1136f792f539efb3>@@AEAV<lambda_e157831efee4ea0afb0a2ace5dd5fd0d>@@V<lambda_04ddeca75b7c13fd67716e8dfcef87ee>@@@?$__crt_seh_guarded_call@X@@QEAAX$$QEAV<lambda_74a0ef281e44d15e1136f792f539efb3>@@AEAV<lambda_e157831efee4ea0afb0a2ace5dd5fd0d>@@$$QEAV<lambda_04ddeca75b7c13fd67716e8dfcef87ee>@@@Z@4HA 0000000140042250 f   libucrtd:per_thread_data.obj
 0001:00041250       ?fin$0@?0???$?RV<lambda_aa87e3671a710a21b5dc78c0bdf72e11>@@AEAV<lambda_92619d2358a28f41a33ba319515a20b9>@@V<lambda_6992ecaafeb10aed2b74cb1fae11a551>@@@?$__crt_seh_guarded_call@X@@QEAAX$$QEAV<lambda_aa87e3671a710a21b5dc78c0bdf72e11>@@AEAV<lambda_92619d2358a28f41a33ba319515a20b9>@@$$QEAV<lambda_6992ecaafeb10aed2b74cb1fae11a551>@@@Z@4HA 0000000140042250 f   libucrtd:per_thread_data.obj
 0001:00041250       ?fin$0@?0???$?RV<lambda_410d79af7f07d98d83a3f525b3859a53>@@AEAV<lambda_3e16ef9562a7dcce91392c22ab16ea36>@@V<lambda_38119f0e861e05405d8a144b9b982f0a>@@@?$__crt_seh_guarded_call@X@@QEAAX$$QEAV<lambda_410d79af7f07d98d83a3f525b3859a53>@@AEAV<lambda_3e16ef9562a7dcce91392c22ab16ea36>@@$$QEAV<lambda_38119f0e861e05405d8a144b9b982f0a>@@@Z@4HA 0000000140042250 f   libucrtd:wsetlocale.obj
 0001:00041250       ?fin$0@?0???$?RV<lambda_efa02eb69bf647d2f7ff0dd6f1103f72>@@AEAV<lambda_bd5a608237428601b7e45fbdc72b1ae8>@@V<lambda_728235dc0fc2b1f82d1fa5b3e7102d8f>@@@?$__crt_seh_guarded_call@X@@QEAAX$$QEAV<lambda_efa02eb69bf647d2f7ff0dd6f1103f72>@@AEAV<lambda_bd5a608237428601b7e45fbdc72b1ae8>@@$$QEAV<lambda_728235dc0fc2b1f82d1fa5b3e7102d8f>@@@Z@4HA 0000000140042250 f   libucrtd:mbctype.obj
 0001:00041250       ?fin$0@?0???$?RV<lambda_d80eeec6fff315bfe5c115232f3240e3>@@AEAV<lambda_6e4b09c48022b2350581041d5f6b0c4c>@@V<lambda_2358e3775559c9db80273638284d5e45>@@@?$__crt_seh_guarded_call@X@@QEAAX$$QEAV<lambda_d80eeec6fff315bfe5c115232f3240e3>@@AEAV<lambda_6e4b09c48022b2350581041d5f6b0c4c>@@$$QEAV<lambda_2358e3775559c9db80273638284d5e45>@@@Z@4HA 0000000140042250 f   libucrtd:exit.obj
 0001:00041250       ?fin$0@?0???$?RV<lambda_886d6c58226a84441f68b9f2b8217b83>@@AEAV<lambda_ab61a845afdef5b7c387490eaf3616ee>@@V<lambda_f7f22ab5edc0698d5f6905b0d3f44752>@@@?$__crt_seh_guarded_call@X@@QEAAX$$QEAV<lambda_886d6c58226a84441f68b9f2b8217b83>@@AEAV<lambda_ab61a845afdef5b7c387490eaf3616ee>@@$$QEAV<lambda_f7f22ab5edc0698d5f6905b0d3f44752>@@@Z@4HA 0000000140042250 f   libucrtd:fflush.obj
 0001:00041270       ?filt$0@?0???R<lambda_6e4b09c48022b2350581041d5f6b0c4c>@@QEBA@XZ@4HA 0000000140042270 f   libucrtd:exit.obj
 0001:000412a0       ?fin$0@?0???$?RV<lambda_450d765d439847d4c735a33c368b5fc0>@@AEAV<lambda_44731a7d0e6d81c3e6aa82d741081786>@@V<lambda_601a2a7da3b7a96e9554ac7215c4b07c>@@@?$__crt_seh_guarded_call@P6AXH@Z@@QEAAP6AXH@Z$$QEAV<lambda_450d765d439847d4c735a33c368b5fc0>@@AEAV<lambda_44731a7d0e6d81c3e6aa82d741081786>@@$$QEAV<lambda_601a2a7da3b7a96e9554ac7215c4b07c>@@@Z@4HA 00000001400422a0 f   libucrtd:signal.obj
 0001:000412a0       ?fin$0@?0???$?RV<lambda_6a47f4c8fd0152770a780fc1d70204eb>@@AEAV<lambda_d121dba8a4adeaf3a9819e48611155df>@@V<lambda_6aaa2265f5b6a89667e7d7630012e97a>@@@?$__crt_seh_guarded_call@H@@QEAAH$$QEAV<lambda_6a47f4c8fd0152770a780fc1d70204eb>@@AEAV<lambda_d121dba8a4adeaf3a9819e48611155df>@@$$QEAV<lambda_6aaa2265f5b6a89667e7d7630012e97a>@@@Z@4HA 00000001400422a0 f   libucrtd:onexit.obj
 0001:000412a0       ?fin$0@?0???$?RV<lambda_80060f20ac3990516b753a27f211934c>@@AEAV<lambda_208ce30acdd7200aa596f2796f4d5154>@@V<lambda_fd91b99c0687e8936f1d70d7d9b78e69>@@@?$__crt_seh_guarded_call@H@@QEAAH$$QEAV<lambda_80060f20ac3990516b753a27f211934c>@@AEAV<lambda_208ce30acdd7200aa596f2796f4d5154>@@$$QEAV<lambda_fd91b99c0687e8936f1d70d7d9b78e69>@@@Z@4HA 00000001400422a0 f   libucrtd:onexit.obj
 0001:000412c0       ?dtor$0@?0???R<lambda_d121dba8a4adeaf3a9819e48611155df>@@QEBAHXZ@4HA 00000001400422c0 f   libucrtd:onexit.obj
 0001:000412e0       ?fin$0@?0??heap_alloc_dbg_internal@@YAPEAX_KHQEBDH@Z@4HA 00000001400422e0 f   libucrtd:debug_heap.obj
 0001:000412e0       _CrtMemCheckpoint$fin$0    00000001400422e0 f   libucrtd:debug_heap.obj
 0001:00041300       ?fin$0@?0??validate_heap_if_required_nolock@@YAXXZ@4HA 0000000140042300 f   libucrtd:debug_heap.obj
 0001:00041320       _CrtCheckMemory$fin$0      0000000140042320 f   libucrtd:debug_heap.obj
 0001:00041320       _CrtMemDumpAllObjectsSince$fin$0 0000000140042320 f   libucrtd:debug_heap.obj
 0001:00041320       _CrtSetDbgFlag$fin$0       0000000140042320 f   libucrtd:debug_heap.obj
 0001:00041320       _msize_dbg$fin$0           0000000140042320 f   libucrtd:debug_heap.obj
 0001:00041320       _realloc_dbg$fin$0         0000000140042320 f   libucrtd:debug_heap.obj
 0001:00041340       _ctrlfp$filt$0             0000000140042340 f   libucrtd:fpctrl.obj
 0001:00041390       ?fin$0@?0??update_thread_multibyte_data_internal@@YAPEAU__crt_multibyte_data@@QEAU__acrt_ptd@@QEAPEAU1@@Z@4HA 0000000140042390 f   libucrtd:mbctype.obj
 0001:000413b0       __acrt_lowio_ensure_fh_exists$fin$0 00000001400423b0 f   libucrtd:osfinfo.obj
 0001:000413d0       __acrt_initialize_lowio$fin$0 00000001400423d0 f   libucrtd:ioinit.obj
 0001:000413f0       __acrt_update_thread_locale_data$fin$0 00000001400423f0 f   libucrtd:locale_refcounting.obj
 0001:00041410       raise$fin$0                0000000140042410 f   libucrtd:signal.obj
 0001:00041440       _VCrtDbgReportA$fin$0      0000000140042440 f   libucrtd:dbgrptt.obj
 0001:0004145b       _VCrtDbgReportA$fin$1      000000014004245b f   libucrtd:dbgrptt.obj
 0001:00041480       _VCrtDbgReportW$fin$0      0000000140042480 f   libucrtd:dbgrptt.obj
 0001:0004149b       _VCrtDbgReportW$fin$1      000000014004249b f   libucrtd:dbgrptt.obj
 0001:000414c0       ?dtor$0@?0??shortsort@@YAXPEAD0_KP6AHPEBX2@Z@Z@4HA 00000001400424c0 f   libucrtd:qsort.obj
 0001:000414e0       ?fin$0@?0???$?RV<lambda_842d9ff0dc9ef11c61343bbaebe7f885>@@AEAV<lambda_c5860995281e5c4ce005b3de8f5874ee>@@V<lambda_d90129c13df834fdcbf8d2b88dafcf2d>@@@?$__crt_seh_guarded_call@X@@QEAAX$$QEAV<lambda_842d9ff0dc9ef11c61343bbaebe7f885>@@AEAV<lambda_c5860995281e5c4ce005b3de8f5874ee>@@$$QEAV<lambda_d90129c13df834fdcbf8d2b88dafcf2d>@@@Z@4HA 00000001400424e0 f   libucrtd:fflush.obj
 0001:00041500       _fcloseall$fin$0           0000000140042500 f   libucrtd:closeall.obj
 0001:00041520       ?fin$0@?0???$?RV<lambda_19eaff14c5fe7be5b1b106a862eb1091>@@AEAV<lambda_af29824b49a67d335554598d6cad2be6>@@V<lambda_3ce37f5b621ab310299ea5f68cbdf3bb>@@@?$__crt_seh_guarded_call@H@@QEAAH$$QEAV<lambda_19eaff14c5fe7be5b1b106a862eb1091>@@AEAV<lambda_af29824b49a67d335554598d6cad2be6>@@$$QEAV<lambda_3ce37f5b621ab310299ea5f68cbdf3bb>@@@Z@4HA 0000000140042520 f   libucrtd:close.obj
 0001:00041520       ?fin$0@?0???$?RV<lambda_7d29013d608e9f25a034de83c9b9e983>@@AEAV<lambda_3e4146214822e0ea86c47ff907aef2ff>@@V<lambda_b869e5a4e1069fcb5c3da79c0d999133>@@@?$__crt_seh_guarded_call@H@@QEAAH$$QEAV<lambda_7d29013d608e9f25a034de83c9b9e983>@@AEAV<lambda_3e4146214822e0ea86c47ff907aef2ff>@@$$QEAV<lambda_b869e5a4e1069fcb5c3da79c0d999133>@@@Z@4HA 0000000140042520 f   libucrtd:commit.obj
 0001:00041540       _write_internal$fin$0      0000000140042540 f   libucrtd:write.obj
 0001:00041560       ?fin$0@?0??_fclose_internal@@YAHQEAU_iobuf@@AEAV__crt_cached_ptd_host@@@Z@4HA 0000000140042560 f   libucrtd:fclose.obj
 0001:00041590       common_control87$filt$0    0000000140042590 f   libucrtd:ieee.obj
 0001:000415e0       _IsNonwritableInCurrentImage$filt$0 00000001400425e0 f   LIBCMTD:pesect.obj
 0002:00000338       ?pre_cpp_initializer@@3P6AXXZEA 0000000140043338     LIBCMTD:exe_winmain.obj
 0002:00000350       ?pre_c_initializer@@3P6AHXZEA 0000000140043350     LIBCMTD:exe_winmain.obj
 0002:00000358       ?post_pgo_initializer@@3P6AHXZEA 0000000140043358     LIBCMTD:exe_winmain.obj
 0002:000003c0       $SG98380                   00000001400433c0     Win32_Shah.obj
 0002:000003d8       $SG98383                   00000001400433d8     Win32_Shah.obj
 0002:000003e8       $SG98399                   00000001400433e8     Win32_Shah.obj
 0002:000004f8       GS_ExceptionPointers       00000001400434f8     LIBCMTD:gs_report.obj
 0002:00000660       ?tokenTable@@3QBUStringLiteral@@B 0000000140043660     libvcruntimed:undname.obj
 0002:00000760       ?nameTable@@3QBUStringLiteral@@B 0000000140043760     libvcruntimed:undname.obj
 0002:00000c90       ?rttiTable@@3QBUStringLiteral@@B 0000000140043c90     libvcruntimed:undname.obj
 0002:00000ce0       ?IndirectionName@@3QBUStringLiteral@@B 0000000140043ce0     libvcruntimed:undname.obj
 0002:00000d40       ?PrefixName@@3QBUStringLiteral@@B 0000000140043d40     libvcruntimed:undname.obj
 0002:00001420       ?module_names@?A0xf6f43728@@3QBQEB_WB 0000000140044420     libvcruntimed:winapi_downlevel.obj
 0002:00001680       ?candidate_modules@?1??try_get_FlsAlloc@@YAP6AKP6AXPEAX@Z@ZXZ@4QBW4module_id@?A0xf6f43728@@B 0000000140044680     libvcruntimed:winapi_downlevel.obj
 0002:00001698       ?candidate_modules@?1??try_get_FlsFree@@YAP6AHK@ZXZ@4QBW4module_id@?A0xf6f43728@@B 0000000140044698     libvcruntimed:winapi_downlevel.obj
 0002:000016a8       ?candidate_modules@?1??try_get_FlsGetValue@@YAP6APEAXK@ZXZ@4QBW4module_id@?A0xf6f43728@@B 00000001400446a8     libvcruntimed:winapi_downlevel.obj
 0002:000016c0       ?candidate_modules@?1??try_get_FlsSetValue@@YAP6AHKPEAX@ZXZ@4QBW4module_id@?A0xf6f43728@@B 00000001400446c0     libvcruntimed:winapi_downlevel.obj
 0002:000016d8       ?candidate_modules@?1??try_get_InitializeCriticalSectionEx@@YAP6AHPEAU_RTL_CRITICAL_SECTION@@KK@ZXZ@4QBW4module_id@?A0xf6f43728@@B 00000001400446d8     libvcruntimed:winapi_downlevel.obj
 0002:00001700       ?ExceptionTemplate@?1??UnwindNestedFrames@__FrameHandler3@@SAXPEA_KPEAUEHExceptionRecord@@PEAU_CONTEXT@@0PEAXPEBU_s_FuncInfo@@HHPEBU_s_HandlerType@@PEAU_xDISPATCHER_CONTEXT@@E@Z@4U_EXCEPTION_RECORD@@B 0000000140044700     libvcruntimed:risctrnsctrl.obj
 0002:000017c0       ?atan_jby256@?1??atan2f@@9@9 00000001400447c0     libucrtd:atan2f.obj
 0002:00001f48       ?pi@?1??atan2f@@9@9        0000000140044f48     libucrtd:atan2f.obj
 0002:00001f50       ?piby2@?1??atan2f@@9@9     0000000140044f50     libucrtd:atan2f.obj
 0002:00001f58       ?piby4@?1??atan2f@@9@9     0000000140044f58     libucrtd:atan2f.obj
 0002:00001f60       ?three_piby4@?1??atan2f@@9@9 0000000140044f60     libucrtd:atan2f.obj
 0002:00001fc0       L_real_one                 0000000140044fc0     libucrtd:cosf.obj
 0002:00001fd0       L_one_half                 0000000140044fd0     libucrtd:cosf.obj
 0002:00001fe0       L_2bypi                    0000000140044fe0     libucrtd:cosf.obj
 0002:00001ff0       L_one_sixth                0000000140044ff0     libucrtd:cosf.obj
 0002:00002000       L_piby2                    0000000140045000     libucrtd:cosf.obj
 0002:00002010       L_piby2_1                  0000000140045010     libucrtd:cosf.obj
 0002:00002020       L_piby2_1tail              0000000140045020     libucrtd:cosf.obj
 0002:00002030       L_piby2_2                  0000000140045030     libucrtd:cosf.obj
 0002:00002040       L_piby2_2tail              0000000140045040     libucrtd:cosf.obj
 0002:00002050       L_large_x_sse2             0000000140045050     libucrtd:cosf.obj
 0002:00002060       L_large_x_fma3             0000000140045060     libucrtd:cosf.obj
 0002:00002070       L_sign_mask                0000000140045070     libucrtd:cosf.obj
 0002:00002080       L__int_three               0000000140045080     libucrtd:cosf.obj
 0002:00002090       L__min_norm_double         0000000140045090     libucrtd:cosf.obj
 0002:000020a0       L_two_to_neg_7             00000001400450a0     libucrtd:cosf.obj
 0002:000020b0       L_two_to_neg_13            00000001400450b0     libucrtd:cosf.obj
 0002:000020c0       L_two_to_32_float          00000001400450c0     libucrtd:cosf.obj
 0002:000020c8       L_one_float                00000001400450c8     libucrtd:cosf.obj
 0002:000020d0       L_inf_mask_32              00000001400450d0     libucrtd:cosf.obj
 0002:000020e0       L_signbit                  00000001400450e0     libucrtd:sinf.obj
 0002:000020f0       L_sign_mask                00000001400450f0     libucrtd:sinf.obj
 0002:00002100       L_one                      0000000140045100     libucrtd:sinf.obj
 0002:00002110       L_int_three                0000000140045110     libucrtd:sinf.obj
 0002:00002120       L_one_half                 0000000140045120     libucrtd:sinf.obj
 0002:00002130       L_twobypi                  0000000140045130     libucrtd:sinf.obj
 0002:00002140       L_piby2_1                  0000000140045140     libucrtd:sinf.obj
 0002:00002150       L_one_sixth                0000000140045150     libucrtd:sinf.obj
 0002:00002160       L_piby2_1tail              0000000140045160     libucrtd:sinf.obj
 0002:00002170       L_piby2_2                  0000000140045170     libucrtd:sinf.obj
 0002:00002180       L_piby2_2tail              0000000140045180     libucrtd:sinf.obj
 0002:00002190       L_inf_mask_32              0000000140045190     libucrtd:sinf.obj
 0002:000021a0       L_int_two                  00000001400451a0     libucrtd:sinf.obj
 0002:000021b0       L_piby2_lead               00000001400451b0     libucrtd:sinf.obj
 0002:000021c0       L_piby4                    00000001400451c0     libucrtd:sinf.obj
 0002:000021d0       L_mask_3f2                 00000001400451d0     libucrtd:sinf.obj
 0002:000021e0       L_mask_3f8                 00000001400451e0     libucrtd:sinf.obj
 0002:000021f0       L_large_x_fma3             00000001400451f0     libucrtd:sinf.obj
 0002:000021f8       L_large_x_sse2             00000001400451f8     libucrtd:sinf.obj
 0002:00002200       L_near_one                 0000000140045200     libucrtd:sinf.obj
 0002:00002208       L_two_to_32                0000000140045208     libucrtd:sinf.obj
 0002:00002750       $cppxdata$??$common_configure_argv@D@@YAHW4_crt_argv_mode@@@Z 0000000140045750     libucrtd:argv_parsing.obj
 0002:000028f0       $cppxdata$??$uninitialize@A6AXAEAPEAPEAD@_E@?$dual_state_global@PEAPEAD@__crt_state_management@@QEAAXA6AXAEAPEAPEAD@_E@Z 00000001400458f0     libucrtd:environment_initialization.obj
 0002:00002918       $cppxdata$??$uninitialize@A6AXAEAPEAPEA_W@_E@?$dual_state_global@PEAPEA_W@__crt_state_management@@QEAAXA6AXAEAPEAPEA_W@_E@Z 0000000140045918     libucrtd:environment_initialization.obj
 0002:00002ac8       $cppxdata$?try_cor_exit_process@@YAXI@Z 0000000140045ac8     libucrtd:exit.obj
 0002:00002af0       $cppxdata$?common_exit@@YAXHW4_crt_exit_cleanup_mode@@W4_crt_exit_return_mode@@@Z 0000000140045af0     libucrtd:exit.obj
 0002:00002b18       $cppxdata$??$__acrt_lock_and_call@V<lambda_6e4b09c48022b2350581041d5f6b0c4c>@@@@YAXW4__acrt_lock_id@@$$QEAV<lambda_6e4b09c48022b2350581041d5f6b0c4c>@@@Z 0000000140045b18     libucrtd:exit.obj
 0002:00002da0       $cppxdata$??$uninitialize@V<lambda_363eea9039da1e8169e2d060c7fe5cbc>@@@?$dual_state_global@PEAU__crt_locale_data@@@__crt_state_management@@QEAAX$$QEAV<lambda_363eea9039da1e8169e2d060c7fe5cbc>@@@Z 0000000140045da0     libucrtd:wsetlocale.obj
 0002:00002dc8       $cppxdata$??$__acrt_lock_and_call@V<lambda_3e16ef9562a7dcce91392c22ab16ea36>@@@@YAXW4__acrt_lock_id@@$$QEAV<lambda_3e16ef9562a7dcce91392c22ab16ea36>@@@Z 0000000140045dc8     libucrtd:wsetlocale.obj
 0002:00002fa8       $cppxdata$??$__acrt_lock_and_call@V<lambda_208ce30acdd7200aa596f2796f4d5154>@@@@YAHW4__acrt_lock_id@@$$QEAV<lambda_208ce30acdd7200aa596f2796f4d5154>@@@Z 0000000140045fa8     libucrtd:onexit.obj
 0002:00002fd0       $cppxdata$??R<lambda_d121dba8a4adeaf3a9819e48611155df>@@QEBAHXZ 0000000140045fd0     libucrtd:onexit.obj
 0002:00002ff8       $cppxdata$??$__acrt_lock_and_call@V<lambda_d121dba8a4adeaf3a9819e48611155df>@@@@YAHW4__acrt_lock_id@@$$QEAV<lambda_d121dba8a4adeaf3a9819e48611155df>@@@Z 0000000140045ff8     libucrtd:onexit.obj
 0002:00003060       __acrt_initializers        0000000140046060     libucrtd:initialization.obj
 0002:00003160       $cppxdata$??$uninitialize@V<lambda_af27fe6ede5d83bbdbd622796c194e9c>@@@?$dual_state_global@PEAU__crt_multibyte_data@@@__crt_state_management@@QEAAX$$QEAV<lambda_af27fe6ede5d83bbdbd622796c194e9c>@@@Z 0000000140046160     libucrtd:initialization.obj
 0002:00003188       ?block_use_names@@3QBQEBDB 0000000140046188     libucrtd:debug_heap.obj
 0002:000031d8       $cppxdata$?realloc_dbg_nolock@@YAPEAXQEAXQEA_KHQEBDH_N@Z 00000001400461d8     libucrtd:debug_heap.obj
 0002:00003200       $cppxdata$?free_dbg_nolock@@YAXQEAXH@Z 0000000140046200     libucrtd:debug_heap.obj
 0002:00003228       $cppxdata$?dump_all_object_since_nolock@@YAXQEBU_CrtMemState@@@Z 0000000140046228     libucrtd:debug_heap.obj
 0002:000041a0       ?report_type_messages@@3QBQEB_WB 00000001400471a0     libucrtd:dbgrpt.obj
 0002:00004200       ?more_info_string@@3QEB_WEB 0000000140047200     libucrtd:dbgrpt.obj
 0002:0000450e       ?empty_string@?1???$common_message_window@D@@YAHHQEAXQEBD111@Z@4QBDB 000000014004750e     libucrtd:dbgrpt.obj
 0002:00004788       ?empty_string@?1???$common_message_window@_W@@YAHHQEAXQEB_W111@Z@4QB_WB 0000000140047788     libucrtd:dbgrpt.obj
 0002:00004a60       $cppxdata$??0?$output_adapter_data@DV?$string_output_adapter@D@__crt_stdio_output@@@__crt_stdio_output@@IEAA@AEBV?$string_output_adapter@D@1@_KQEBDAEAV__crt_cached_ptd_host@@QEAD@Z 0000000140047a60     libucrtd:output.obj
 0002:00004a88       $cppxdata$??0?$output_adapter_data@_WV?$string_output_adapter@_W@__crt_stdio_output@@@__crt_stdio_output@@IEAA@AEBV?$string_output_adapter@_W@1@_KQEB_WAEAV__crt_cached_ptd_host@@QEAD@Z 0000000140047a88     libucrtd:output.obj
 0002:00004ab0       $cppxdata$?find_next_state@?$output_processor@DV?$string_output_adapter@D@__crt_stdio_output@@V?$format_validation_base@DV?$string_output_adapter@D@__crt_stdio_output@@@2@@__crt_stdio_output@@AEBA?AW4state@2@DW432@@Z 0000000140047ab0     libucrtd:output.obj
 0002:00004ad8       $cppxdata$?find_next_state@?$output_processor@_WV?$string_output_adapter@_W@__crt_stdio_output@@V?$format_validation_base@_WV?$string_output_adapter@_W@__crt_stdio_output@@@2@@__crt_stdio_output@@AEBA?AW4state@2@_WW432@@Z 0000000140047ad8     libucrtd:output.obj
 0002:00006b40       L__piby2                   0000000140049b40     libucrtd:remainder_piby2f_forasm.obj
 0002:00006b50       L_piby2_lead               0000000140049b50     libucrtd:remainder_piby2_forfma3.obj
 0002:00006b60       L_fff800                   0000000140049b60     libucrtd:remainder_piby2_forfma3.obj
 0002:00006b70       L_piby2_part1              0000000140049b70     libucrtd:remainder_piby2_forfma3.obj
 0002:00006b80       L_piby2_part2              0000000140049b80     libucrtd:remainder_piby2_forfma3.obj
 0002:00006b90       L_piby2_part3              0000000140049b90     libucrtd:remainder_piby2_forfma3.obj
 0002:00006ba0       L_piby2_1                  0000000140049ba0     libucrtd:remainder_piby2_forfma3.obj
 0002:00006bb0       L_piby2_2                  0000000140049bb0     libucrtd:remainder_piby2_forfma3.obj
 0002:00006bc0       L_piby2_3                  0000000140049bc0     libucrtd:remainder_piby2_forfma3.obj
 0002:00006bd0       L_piby2_1tail              0000000140049bd0     libucrtd:remainder_piby2_forfma3.obj
 0002:00006be0       L_piby2_2tail              0000000140049be0     libucrtd:remainder_piby2_forfma3.obj
 0002:00006bf0       L_piby2_3tail              0000000140049bf0     libucrtd:remainder_piby2_forfma3.obj
 0002:00006c00       L_sign_mask                0000000140049c00     libucrtd:remainder_piby2_forfma3.obj
 0002:00006c10       L_twobypi                  0000000140049c10     libucrtd:remainder_piby2_forfma3.obj
 0002:00006c20       L_point_five               0000000140049c20     libucrtd:remainder_piby2_forfma3.obj
 0002:00006c30       L_int_three                0000000140049c30     libucrtd:remainder_piby2_forfma3.obj
 0002:00006c40       L_inf_mask_64              0000000140049c40     libucrtd:remainder_piby2_forfma3.obj
 0002:00006c50       L_signbit                  0000000140049c50     libucrtd:remainder_piby2_forfma3.obj
 0002:00006c60       L_r                        0000000140049c60     libucrtd:remainder_piby2_forfma3.obj
 0002:00006c70       L_xc1                      0000000140049c70     libucrtd:remainder_piby2_forfma3.obj
 0002:00006c80       L_xc2                      0000000140049c80     libucrtd:remainder_piby2_forfma3.obj
 0002:00006c90       L_xc3                      0000000140049c90     libucrtd:remainder_piby2_forfma3.obj
 0002:00006ca0       L_sigma                    0000000140049ca0     libucrtd:remainder_piby2_forfma3.obj
 0002:00006db0       L__piby2                   0000000140049db0     libucrtd:remainder_piby2f_forc.obj
 0002:00006dc0       L__2_by_pi_bits            0000000140049dc0     libucrtd:remainder_piby2f_forc.obj
 0002:00006e60       $cppxdata$?construct_ptd@@YAXQEAU__acrt_ptd@@QEAPEAU__crt_locale_data@@@Z 0000000140049e60     libucrtd:per_thread_data.obj
 0002:00006e88       $cppxdata$??$__acrt_lock_and_call@V<lambda_8d0ee55de4b1038c4002e0adecdf1839>@@@@YAXW4__acrt_lock_id@@$$QEAV<lambda_8d0ee55de4b1038c4002e0adecdf1839>@@@Z 0000000140049e88     libucrtd:per_thread_data.obj
 0002:00006eb0       $cppxdata$??$__acrt_lock_and_call@V<lambda_92619d2358a28f41a33ba319515a20b9>@@@@YAXW4__acrt_lock_id@@$$QEAV<lambda_92619d2358a28f41a33ba319515a20b9>@@@Z 0000000140049eb0     libucrtd:per_thread_data.obj
 0002:00006ed8       $cppxdata$?destroy_ptd@@YAXQEAU__acrt_ptd@@@Z 0000000140049ed8     libucrtd:per_thread_data.obj
 0002:00006f00       $cppxdata$??$__acrt_lock_and_call@V<lambda_e157831efee4ea0afb0a2ace5dd5fd0d>@@@@YAXW4__acrt_lock_id@@$$QEAV<lambda_e157831efee4ea0afb0a2ace5dd5fd0d>@@@Z 0000000140049f00     libucrtd:per_thread_data.obj
 0002:00006f28       $cppxdata$??$__acrt_lock_and_call@V<lambda_8f455de75cd7d7f24b4096f044d8b9e6>@@@@YAXW4__acrt_lock_id@@$$QEAV<lambda_8f455de75cd7d7f24b4096f044d8b9e6>@@@Z 0000000140049f28     libucrtd:per_thread_data.obj
 0002:00007140       ?errtable@@3QBUerrentry@?A0x31fdb9ec@@B 000000014004a140     libucrtd:errno.obj
 0002:000072d0       $cppxdata$??1?$__crt_win32_buffer@DU__crt_win32_buffer_internal_dynamic_resizing@@@@QEAA@XZ 000000014004a2d0     libucrtd:argv_wildcards.obj
 0002:000072d0       $cppxdata$??1?$__crt_win32_buffer@_WU__crt_win32_buffer_internal_dynamic_resizing@@@@QEAA@XZ 000000014004a2d0     libucrtd:argv_wildcards.obj
 0002:000072f8       $cppxdata$??$tcspbrk@AEAPEADAEAY02$$CBD@?$__crt_char_traits@D@@SAPEADAEAPEADAEAY02$$CBD@Z 000000014004a2f8     libucrtd:argv_wildcards.obj
 0002:00007320       $cppxdata$??$expand_argument_wildcards@D@@YAHQEAD0AEAV?$argument_list@D@?A0x5f5c8891@@@Z 000000014004a320     libucrtd:argv_wildcards.obj
 0002:00007738       $cppxdata$??1?$__crt_win32_buffer@DU__crt_win32_buffer_no_resizing@@@@QEAA@XZ 000000014004a738     libucrtd:getmodulefilenamea.obj
 0002:00007760       ?_mb_locale_names@@3QBQEB_WB 000000014004a760     libucrtd:mbctype.obj
 0002:000077c0       $cppxdata$?setmbcp_internal@@YAHH_NQEAU__acrt_ptd@@QEAPEAU__crt_multibyte_data@@@Z 000000014004a7c0     libucrtd:mbctype.obj
 0002:000077e8       $cppxdata$??$__acrt_lock_and_call@V<lambda_bd5a608237428601b7e45fbdc72b1ae8>@@@@YAXW4__acrt_lock_id@@$$QEAV<lambda_bd5a608237428601b7e45fbdc72b1ae8>@@@Z 000000014004a7e8     libucrtd:mbctype.obj
 0002:00008bb0       ?module_names@?A0x391cf84c@@3QBQEB_WB 000000014004bbb0     libucrtd:winapi_thunks.obj
 0002:00009134       ?candidate_modules@?1??try_get_AreFileApisANSI@@YAP6AHXZXZ@4QBW4module_id@?A0x391cf84c@@B 000000014004c134     libucrtd:winapi_thunks.obj
 0002:00009148       ?candidate_modules@?1??try_get_GetActiveWindow@@YAP6APEAUHWND__@@XZXZ@4QBW4module_id@?A0x391cf84c@@B 000000014004c148     libucrtd:winapi_thunks.obj
 0002:00009160       ?candidate_modules@?1??try_get_GetLastActivePopup@@YAP6APEAUHWND__@@PEAU2@@ZXZ@4QBW4module_id@?A0x391cf84c@@B 000000014004c160     libucrtd:winapi_thunks.obj
 0002:00009180       ?candidate_modules@?1??try_get_GetProcessWindowStation@@YAP6APEAUHWINSTA__@@XZXZ@4QBW4module_id@?A0x391cf84c@@B 000000014004c180     libucrtd:winapi_thunks.obj
 0002:000091a0       ?candidate_modules@?1??try_get_GetUserObjectInformationW@@YAP6AHPEAXH0KPEAK@ZXZ@4QBW4module_id@?A0x391cf84c@@B 000000014004c1a0     libucrtd:winapi_thunks.obj
 0002:000091c8       ?candidate_modules@?1??try_get_InitializeCriticalSectionEx@@YAP6AHPEAU_RTL_CRITICAL_SECTION@@KK@ZXZ@4QBW4module_id@?A0x391cf84c@@B 000000014004c1c8     libucrtd:winapi_thunks.obj
 0002:000091d0       ?candidate_modules@?1??try_get_LCMapStringEx@@YAP6AHPEB_WK0HPEA_WHPEAU_nlsversioninfo@@PEAX_J@ZXZ@4QBW4module_id@?A0x391cf84c@@B 000000014004c1d0     libucrtd:winapi_thunks.obj
 0002:000091e8       ?candidate_modules@?1??try_get_LocaleNameToLCID@@YAP6AKPEB_WK@ZXZ@4QBW4module_id@?A0x391cf84c@@B 000000014004c1e8     libucrtd:winapi_thunks.obj
 0002:00009208       ?candidate_modules@?1??try_get_MessageBoxA@@YAP6AHPEAUHWND__@@PEBD1I@ZXZ@4QBW4module_id@?A0x391cf84c@@B 000000014004c208     libucrtd:winapi_thunks.obj
 0002:00009220       ?candidate_modules@?1??try_get_MessageBoxW@@YAP6AHPEAUHWND__@@PEB_W1I@ZXZ@4QBW4module_id@?A0x391cf84c@@B 000000014004c220     libucrtd:winapi_thunks.obj
 0002:00009234       ?candidate_modules@?1??try_get_AppPolicyGetProcessTerminationMethod@@YAP6AJPEAXPEAW4AppPolicyProcessTerminationMethod@@@ZXZ@4QBW4module_id@?A0x391cf84c@@B 000000014004c234     libucrtd:winapi_thunks.obj
 0002:00009260       ?candidate_modules@?1??try_get_AppPolicyGetShowDeveloperDiagnostic@@YAP6AJPEAXPEAW4AppPolicyShowDeveloperDiagnostic@@@ZXZ@4QBW4module_id@?A0x391cf84c@@B 000000014004c260     libucrtd:winapi_thunks.obj
 0002:0000928c       ?candidate_modules@?1??try_get_AppPolicyGetWindowingModel@@YAP6AJPEAXPEAW4AppPolicyWindowingModel@@@ZXZ@4QBW4module_id@?A0x391cf84c@@B 000000014004c28c     libucrtd:winapi_thunks.obj
 0002:000092b0       $cppxdata$??$__acrt_lock_and_call@V<lambda_44731a7d0e6d81c3e6aa82d741081786>@@@@YAP6AXH@ZW4__acrt_lock_id@@$$QEAV<lambda_44731a7d0e6d81c3e6aa82d741081786>@@@Z 000000014004c2b0     libucrtd:signal.obj
 0002:0000a220       ?strings@?1??fp_format_nan_or_infinity@@YAHW4__acrt_fp_class@@_NPEAD_K1@Z@4QAY03QEBDA 000000014004d220     libucrtd:cvt.obj
 0002:0000ad00       __real@433fffffffffffff    000000014004dd00     libucrtd:fpsr.obj
 0002:0000ad08       __real@c33fffffffffffff    000000014004dd08     libucrtd:fpsr.obj
 0002:0000ad18       $cppxdata$?shortsort@@YAXPEAD0_KP6AHPEBX2@Z@Z 000000014004dd18     libucrtd:qsort.obj
 0002:0000b100       ?LcidToLocaleNameTable@?A0x881e4c05@@3QBULcidToLocaleName@1@B 000000014004e100     libucrtd:lcidtoname_downlevel.obj
 0002:0000cb50       ?LocaleNameToIndexTable@?A0x881e4c05@@3QBULocaleNameIndex@1@B 000000014004fb50     libucrtd:lcidtoname_downlevel.obj
 0002:0000e460       $cppxdata$?common_flush_all@@YAH_N@Z 0000000140051460     libucrtd:fflush.obj
 0002:0000e488       $cppxdata$??$__acrt_lock_stream_and_call@V<lambda_c5860995281e5c4ce005b3de8f5874ee>@@@@YAXQEAU_iobuf@@$$QEAV<lambda_c5860995281e5c4ce005b3de8f5874ee>@@@Z 0000000140051488     libucrtd:fflush.obj
 0002:0000e4b0       $cppxdata$??$__acrt_lock_and_call@V<lambda_ab61a845afdef5b7c387490eaf3616ee>@@@@YAXW4__acrt_lock_id@@$$QEAV<lambda_ab61a845afdef5b7c387490eaf3616ee>@@@Z 00000001400514b0     libucrtd:fflush.obj
 0002:0000e4d8       $cppxdata$?_mbstowcs_l_helper@@YA_KPEA_WPEBD_KAEAV__crt_cached_ptd_host@@@Z 00000001400514d8     libucrtd:mbstowcs.obj
 0002:0000f9d8       $cppxdata$??$__acrt_lowio_lock_fh_and_call@V<lambda_3e4146214822e0ea86c47ff907aef2ff>@@@@YAHH$$QEAV<lambda_3e4146214822e0ea86c47ff907aef2ff>@@@Z 00000001400529d8     libucrtd:commit.obj
 0002:0000fa70       $cppxdata$?write_double_translated_ansi_nolock@@YA?AUwrite_result@?A0x17268360@@HQEBDIAEAV__crt_cached_ptd_host@@@Z 0000000140052a70     libucrtd:write.obj
 0002:0000fd20       __real_ninf                0000000140052d20     libucrtd:log10.obj
 0002:0000fd30       __real_inf                 0000000140052d30     libucrtd:log10.obj
 0002:0000fd40       __real_neg_qnan            0000000140052d40     libucrtd:log10.obj
 0002:0000fd50       __real_qnanbit             0000000140052d50     libucrtd:log10.obj
 0002:0000fd60       __int_1023                 0000000140052d60     libucrtd:log10.obj
 0002:0000fd70       __mask_001                 0000000140052d70     libucrtd:log10.obj
 0002:0000fd80       __mask_mant                0000000140052d80     libucrtd:log10.obj
 0002:0000fd90       __mask_mant_top8           0000000140052d90     libucrtd:log10.obj
 0002:0000fda0       __mask_mant9               0000000140052da0     libucrtd:log10.obj
 0002:0000fdb0       __real_log10_e             0000000140052db0     libucrtd:log10.obj
 0002:0000fdc0       __real_log10_e_lead        0000000140052dc0     libucrtd:log10.obj
 0002:0000fdd0       __real_log10_e_tail        0000000140052dd0     libucrtd:log10.obj
 0002:0000fde0       __real_log10_2_lead        0000000140052de0     libucrtd:log10.obj
 0002:0000fdf0       __real_log10_2_tail        0000000140052df0     libucrtd:log10.obj
 0002:0000fe00       __real_two                 0000000140052e00     libucrtd:log10.obj
 0002:0000fe10       __real_one                 0000000140052e10     libucrtd:log10.obj
 0002:0000fe20       __real_half                0000000140052e20     libucrtd:log10.obj
 0002:0000fe30       __mask_100                 0000000140052e30     libucrtd:log10.obj
 0002:0000fe40       __real_1_over_512          0000000140052e40     libucrtd:log10.obj
 0002:0000fe50       __real_1_over_2            0000000140052e50     libucrtd:log10.obj
 0002:0000fe60       __real_1_over_3            0000000140052e60     libucrtd:log10.obj
 0002:0000fe70       __real_1_over_4            0000000140052e70     libucrtd:log10.obj
 0002:0000fe80       __real_1_over_5            0000000140052e80     libucrtd:log10.obj
 0002:0000fe90       __real_1_over_6            0000000140052e90     libucrtd:log10.obj
 0002:0000fea0       __real_neg_1023            0000000140052ea0     libucrtd:log10.obj
 0002:0000feb0       __mask_2045                0000000140052eb0     libucrtd:log10.obj
 0002:0000fec0       __real_threshold           0000000140052ec0     libucrtd:log10.obj
 0002:0000fed0       __real_near_one_lt         0000000140052ed0     libucrtd:log10.obj
 0002:0000fee0       __real_near_one_gt         0000000140052ee0     libucrtd:log10.obj
 0002:0000fef0       __real_min_norm            0000000140052ef0     libucrtd:log10.obj
 0002:0000ff00       __real_notsign             0000000140052f00     libucrtd:log10.obj
 0002:0000ff10       __real_ca1                 0000000140052f10     libucrtd:log10.obj
 0002:0000ff20       __real_ca2                 0000000140052f20     libucrtd:log10.obj
 0002:0000ff30       __real_ca3                 0000000140052f30     libucrtd:log10.obj
 0002:0000ff40       __real_ca4                 0000000140052f40     libucrtd:log10.obj
 0002:0000ff50       __mask_lower               0000000140052f50     libucrtd:log10.obj
 0002:0000ff60       __flag_x_zero              0000000140052f60     libucrtd:log10.obj
 0002:0000ff64       __flag_x_neg               0000000140052f64     libucrtd:log10.obj
 0002:0000ff68       __flag_x_nan               0000000140052f68     libucrtd:log10.obj
 0002:00011a78       $cppxdata$??$__acrt_lowio_lock_fh_and_call@V<lambda_af29824b49a67d335554598d6cad2be6>@@@@YAHH$$QEAV<lambda_af29824b49a67d335554598d6cad2be6>@@@Z 0000000140054a78     libucrtd:close.obj
 0002:00011b20       $cppxdata$??$console_output_reopen_and_retry@V<lambda_61c1b8a38cedca4df5fdc542e6ccae6d>@@@@YAHAEBV<lambda_61c1b8a38cedca4df5fdc542e6ccae6d>@@@Z 0000000140054b20     libucrtd:initcon.obj
 0002:00012320       $unwind$WinMain            0000000140055320     Win32_Shah.obj
 0002:00012334       $unwind$?Min@@YAMMMM@Z     0000000140055334     Win32_Shah.obj
 0002:0001233c       $unwind$?Max@@YAMMMM@Z     000000014005533c     Win32_Shah.obj
 0002:00012344       $unwind$?CalcCentroid@@YA?AUVector2f@@U1@00@Z 0000000140055344     Win32_Shah.obj
 0002:0001234c       $unwind$?CalcSizeRelativeToCentroid@@YA?AUVector2f@@U1@0@Z 000000014005534c     Win32_Shah.obj
 0002:00012354       $unwind$?Createrotationmatrix@@YAXMPEAM@Z 0000000140055354     Win32_Shah.obj
 0002:0001235c       $unwind$?matrixmul@@YAXPEAMHH0HH0@Z 000000014005535c     Win32_Shah.obj
 0002:00012364       $unwind$?PlotPixel@@YAXPEAUVideoBuffer@@HHI@Z 0000000140055364     Win32_Shah.obj
 0002:0001236c       $unwind$?GetLogicalWidthAndHeight@@YA?AUVector2f@@PEAUVideoBuffer@@@Z 000000014005536c     Win32_Shah.obj
 0002:00012374       $unwind$?MapToPixel@@YAXPEAUVideoBuffer@@MMPEAH1@Z 0000000140055374     Win32_Shah.obj
 0002:0001237c       $unwind$?MapDistanceToPixel@@YA?AUVector2f@@PEAUVideoBuffer@@M@Z 000000014005537c     Win32_Shah.obj
 0002:00012384       $unwind$?Drawcircle@@YAXPEAUVideoBuffer@@UCircle@@@Z 0000000140055384     Win32_Shah.obj
 0002:0001238c       $unwind$?BresenhamLine@@YAXPEAUVideoBuffer@@MMMM@Z 000000014005538c     Win32_Shah.obj
 0002:00012394       $unwind$?RenderRectInPixels@@YAXIPEAUVideoBuffer@@HHHH@Z 0000000140055394     Win32_Shah.obj
 0002:0001239c       $unwind$?DrawBox@@YAXPEAUVideoBuffer@@MMMMI@Z 000000014005539c     Win32_Shah.obj
 0002:000123a4       $unwind$?drawline@@YAXPEAUVideoBuffer@@MMMMI@Z 00000001400553a4     Win32_Shah.obj
 0002:000123ac       $unwind$?WarpPoints@@YAXPEAUVideoBuffer@@PEAUVector2f@@@Z 00000001400553ac     Win32_Shah.obj
 0002:000123b4       $unwind$?DrawTriangle@@YAXPEAUVideoBuffer@@PEAUPlayerSpaceShip@@@Z 00000001400553b4     Win32_Shah.obj
 0002:000123bc       $unwind$?CreateShipCollider@@YAXUPlayerSpaceShip@@PEAUBox@@@Z 00000001400553bc     Win32_Shah.obj
 0002:000123c4       $unwind$?CreateAsteroidCollider@@YAXPEAUVideoBuffer@@UCircle@@PEAUBox@@@Z 00000001400553c4     Win32_Shah.obj
 0002:000123cc       $unwind$?CheckAABBCollisions@@YAHPEAUVideoBuffer@@UBox@@1@Z 00000001400553cc     Win32_Shah.obj
 0002:000123d4       $unwind$?GameUpdateAndRender@@YAXPEAUGame_Input@@PEAUVideoBuffer@@PEAUGame_State@@@Z 00000001400553d4     Win32_Shah.obj
 0002:000123e8       $unwind$?GameStartup@@YAPEAUGame_State@@XZ 00000001400553e8     Win32_Shah.obj
 0002:000123fc       $unwind$?Win32ResizeDibSection@@YAXPEAUWin32_VideoBuffer@@HH@Z 00000001400553fc     Win32_Shah.obj
 0002:00012410       $unwind$?MainWindowCallBack@@YA_JPEAUHWND__@@I_K_J@Z 0000000140055410     Win32_Shah.obj
 0002:00012420       $unwind$?RenderColor@@YAXIPEAUWin32_VideoBuffer@@@Z 0000000140055420     Win32_Shah.obj
 0002:00012428       $unwind$?atan2@@YAMMM@Z    0000000140055428     Win32_Shah.obj
 0002:00012430       $unwind$?cos@@YAMM@Z       0000000140055430     Win32_Shah.obj
 0002:00012430       $unwind$?sin@@YAMM@Z       0000000140055430     Win32_Shah.obj
 0002:00012430       $unwind$?sqrt@@YAMM@Z      0000000140055430     Win32_Shah.obj
 0002:00012430       $unwind$_cosf_special      0000000140055430     libucrtd:sincos_special.obj
 0002:00012430       $unwind$_sinf_special      0000000140055430     libucrtd:sincos_special.obj
 0002:00012438       $unwind$__report_gsfailure 0000000140055438     LIBCMTD:gs_report.obj
 0002:00012438       $unwind$??2@YAPEAX_K@Z     0000000140055438     LIBCMTD:new_scalar.obj
 0002:00012438       $unwind$atexit             0000000140055438     LIBCMTD:utility.obj
 0002:00012438       $unwind$__scrt_unhandled_exception_filter 0000000140055438     LIBCMTD:utility_desktop.obj
 0002:00012438       $unwind$_IsExceptionObjectToBeDestroyed 0000000140055438     libvcruntimed:ehhelpers.obj
 0002:00012438       $unwind$?getESTypes@__FrameHandler3@@SAPEBU_s_ESTypeList@@PEBU_s_FuncInfo@@@Z 0000000140055438     libvcruntimed:frame.obj
 0002:00012438       $unwind$__except_validate_context_record 0000000140055438     libvcruntimed:jbcxrval.obj
 0002:00012438       $unwind$?release@?$__crt_unique_heap_ptr@U__vcrt_ptd@@U__crt_internal_free_policy@@@@QEAAXXZ 0000000140055438     libvcruntimed:per_thread_data.obj
 0002:00012438       $unwind$_FindAndUnlinkFrame 0000000140055438     libvcruntimed:risctrnsctrl.obj
 0002:00012438       $unwind$?release@?$__crt_unique_heap_ptr@DU__crt_public_free_policy@@@@QEAAXXZ 0000000140055438     libvcruntimed:std_exception.obj
 0002:00012438       $unwind$?release@?$__crt_unique_heap_ptr@DU__crt_internal_free_policy@@@@QEAAXXZ 0000000140055438     libvcruntimed:std_type_info.obj
 0002:00012438       $unwind$?try_load_library_from_system_directory@@YAPEAUHINSTANCE__@@QEB_W@Z 0000000140055438     libvcruntimed:winapi_downlevel.obj
 0002:00012438       $unwind$??R<lambda_61c1b8a38cedca4df5fdc542e6ccae6d>@@QEBAHXZ 0000000140055438     libucrtd:initcon.obj
 0002:00012438       $unwind$_putwch_nolock     0000000140055438     libucrtd:putwch.obj
 0002:00012438       $unwind$??$free_environment@D@@YAXQEAPEAD@Z 0000000140055438     libucrtd:environment_initialization.obj
 0002:00012438       $unwind$??$free_environment@_W@@YAXQEAPEA_W@Z 0000000140055438     libucrtd:environment_initialization.obj
 0002:00012438       $unwind$?find_end_of_double_null_terminated_sequence@@YAPEB_WQEB_W@Z 0000000140055438     libucrtd:get_environment_from_os.obj
 0002:00012438       $unwind$?is_valid@?$__crt_unique_handle_t@Uenvironment_strings_traits@?A0x1bf47908@@@@QEBA_NXZ 0000000140055438     libucrtd:get_environment_from_os.obj
 0002:00012438       $unwind$?is_block_an_aligned_allocation@@YA_NQEBX@Z 0000000140055438     libucrtd:debug_heap.obj
 0002:00012438       $unwind$_CrtIsValidHeapPointer 0000000140055438     libucrtd:debug_heap.obj
 0002:00012438       $unwind$free               0000000140055438     libucrtd:free.obj
 0002:00012438       $unwind$_free_base         0000000140055438     libucrtd:free_base.obj
 0002:00012438       $unwind$?_deallocate@?$__crt_win32_buffer@DU__crt_win32_buffer_no_resizing@@@@AEAAXXZ 0000000140055438     libucrtd:getmodulefilenamea.obj
 0002:00012438       $unwind$??R<lambda_e157831efee4ea0afb0a2ace5dd5fd0d>@@QEBAXXZ 0000000140055438     libucrtd:per_thread_data.obj
 0002:00012438       $unwind$?construct_ptd_array@@YAXQEAU__acrt_ptd@@@Z 0000000140055438     libucrtd:per_thread_data.obj
 0002:00012438       $unwind$?destroy_ptd_array@@YAXQEAU__acrt_ptd@@@Z 0000000140055438     libucrtd:per_thread_data.obj
 0002:00012438       $unwind$?release@?$__crt_unique_heap_ptr@U__acrt_ptd@@U__crt_internal_free_policy@@@@QEAAXXZ 0000000140055438     libucrtd:per_thread_data.obj
 0002:00012438       $unwind$?try_load_library_from_system_directory@@YAPEAUHINSTANCE__@@QEB_W@Z 0000000140055438     libucrtd:winapi_thunks.obj
 0002:00012438       $unwind$__acrt_DownlevelLocaleNameToLCID 0000000140055438     libucrtd:lcidtoname_downlevel.obj
 0002:00012438       $unwind$__acrt_add_locale_ref 0000000140055438     libucrtd:locale_refcounting.obj
 0002:00012438       $unwind$__acrt_release_locale_ref 0000000140055438     libucrtd:locale_refcounting.obj
 0002:00012438       $unwind$?release@?$__crt_unique_heap_ptr@U__crt_multibyte_data@@U__crt_internal_free_policy@@@@QEAAXXZ 0000000140055438     libucrtd:wsetlocale.obj
 0002:00012438       $unwind$?release@?$__crt_unique_heap_ptr@U__crt_lowio_handle_data@@U__crt_internal_free_policy@@@@QEAAXXZ 0000000140055438     libucrtd:osfinfo.obj
 0002:00012438       $unwind$??1__crt_cached_ptd_host@@QEAA@XZ 0000000140055438     libucrtd:invalid_parameter.obj
 0002:00012438       $unwind$?check_synchronize_global_state_index@__crt_cached_ptd_host@@AEAA_KXZ 0000000140055438     libucrtd:invalid_parameter.obj
 0002:00012438       $unwind$__acrt_initialize_invalid_parameter_handler 0000000140055438     libucrtd:invalid_parameter.obj
 0002:00012438       $unwind$??R<lambda_df1553121bfa390f1154bd84936f2730>@@QEBAHXZ 0000000140055438     libucrtd:argv_parsing.obj
 0002:00012438       $unwind$?release@?$__crt_unique_heap_ptr@EU__crt_internal_free_policy@@@@QEAAXXZ 0000000140055438     libucrtd:argv_parsing.obj
 0002:00012438       $unwind$?release@?$__crt_unique_heap_ptr@PEADU__crt_internal_free_policy@@@@QEAAXXZ 0000000140055438     libucrtd:argv_parsing.obj
 0002:00012438       $unwind$??1?$argument_list@D@?A0x5f5c8891@@QEAA@XZ 0000000140055438     libucrtd:argv_wildcards.obj
 0002:00012438       $unwind$?_deallocate@?$__crt_win32_buffer@DU__crt_win32_buffer_internal_dynamic_resizing@@@@AEAAXXZ 0000000140055438     libucrtd:argv_wildcards.obj
 0002:00012438       $unwind$?_deallocate@?$__crt_win32_buffer@_WU__crt_win32_buffer_internal_dynamic_resizing@@@@AEAAXXZ 0000000140055438     libucrtd:argv_wildcards.obj
 0002:00012438       $unwind$?close@__crt_findfile_traits@@SA_NPEAX@Z 0000000140055438     libucrtd:argv_wildcards.obj
 0002:00012438       $unwind$?close@__crt_hmodule_traits@@SA_NPEAUHINSTANCE__@@@Z 0000000140055438     libucrtd:exit.obj
 0002:00012438       $unwind$_register_thread_local_exe_atexit_callback 0000000140055438     libucrtd:exit.obj
 0002:00012438       $unwind$?release@?$__crt_unique_heap_ptr@P6AXXZU__crt_internal_free_policy@@@@QEAAXXZ 0000000140055438     libucrtd:onexit.obj
 0002:00012438       $unwind$_initialize_onexit_table 0000000140055438     libucrtd:onexit.obj
 0002:00012438       $unwind$?release@?$__crt_unique_heap_ptr@PEAU__crt_stdio_stream_data@@U__crt_internal_free_policy@@@@QEAAXXZ 0000000140055438     libucrtd:_file.obj
 0002:00012438       $unwind$_lock_file         0000000140055438     libucrtd:_file.obj
 0002:00012438       $unwind$_unlock_file       0000000140055438     libucrtd:_file.obj
 0002:00012438       $unwind$?is_in_use@__crt_stdio_stream@@QEBA_NXZ 0000000140055438     libucrtd:closeall.obj
 0002:00012438       $unwind$??R<lambda_c5860995281e5c4ce005b3de8f5874ee>@@QEBAXXZ 0000000140055438     libucrtd:fflush.obj
 0002:00012438       $unwind$?__acrt_stdio_reset_buffer@@YAXV__crt_stdio_stream@@@Z 0000000140055438     libucrtd:fflush.obj
 0002:00012438       $unwind$??$scratch_data@D@formatting_buffer@__crt_stdio_output@@QEAAPEADXZ 0000000140055438     libucrtd:output.obj
 0002:00012438       $unwind$??0formatting_buffer@__crt_stdio_output@@QEAA@XZ 0000000140055438     libucrtd:output.obj
 0002:00012438       $unwind$?is_string_backed@__crt_stdio_stream@@QEBA_NXZ 0000000140055438     libucrtd:output.obj
 0002:00012438       $unwind$?parse_digit@__crt_strtox@@YAI_W@Z 0000000140055438     libucrtd:output.obj
 0002:00012438       $unwind$?state_case_flag@?$output_processor@DV?$string_output_adapter@D@__crt_stdio_output@@V?$format_validation_base@DV?$string_output_adapter@D@__crt_stdio_output@@@2@@__crt_stdio_output@@AEAA_NXZ 0000000140055438     libucrtd:output.obj
 0002:00012438       $unwind$?state_case_flag@?$output_processor@_WV?$string_output_adapter@_W@__crt_stdio_output@@V?$format_validation_base@_WV?$string_output_adapter@_W@__crt_stdio_output@@@2@@__crt_stdio_output@@AEAA_NXZ 0000000140055438     libucrtd:output.obj
 0002:00012438       $unwind$?state_case_normal_common@?$output_processor@DV?$string_output_adapter@D@__crt_stdio_output@@V?$format_validation_base@DV?$string_output_adapter@D@__crt_stdio_output@@@2@@__crt_stdio_output@@AEAA_NXZ 0000000140055438     libucrtd:output.obj
 0002:00012438       $unwind$?state_case_normal_common@?$output_processor@_WV?$string_output_adapter@_W@__crt_stdio_output@@V?$format_validation_base@_WV?$string_output_adapter@_W@__crt_stdio_output@@@2@@__crt_stdio_output@@AEAA_NXZ 0000000140055438     libucrtd:output.obj
 0002:00012438       $unwind$?type_case_Z@?$output_processor@DV?$string_output_adapter@D@__crt_stdio_output@@V?$format_validation_base@DV?$string_output_adapter@D@__crt_stdio_output@@@2@@__crt_stdio_output@@AEAA_NXZ 0000000140055438     libucrtd:output.obj
 0002:00012438       $unwind$?type_case_Z@?$output_processor@_WV?$string_output_adapter@_W@__crt_stdio_output@@V?$format_validation_base@_WV?$string_output_adapter@_W@__crt_stdio_output@@@2@@__crt_stdio_output@@AEAA_NXZ 0000000140055438     libucrtd:output.obj
 0002:00012438       $unwind$?type_case_s@?$output_processor@DV?$string_output_adapter@D@__crt_stdio_output@@V?$format_validation_base@DV?$string_output_adapter@D@__crt_stdio_output@@@2@@__crt_stdio_output@@AEAA_NXZ 0000000140055438     libucrtd:output.obj
 0002:00012438       $unwind$?type_case_s@?$output_processor@_WV?$string_output_adapter@_W@__crt_stdio_output@@V?$format_validation_base@_WV?$string_output_adapter@_W@__crt_stdio_output@@@2@@__crt_stdio_output@@AEAA_NXZ 0000000140055438     libucrtd:output.obj
 0002:00012438       $unwind$?update_locale_slow@__crt_cached_ptd_host@@AEAAXXZ 0000000140055438     libucrtd:output.obj
 0002:00012438       $unwind$_set_statfp        0000000140055438     libucrtd:fpctrl.obj
 0002:00012438       $unwind$??$translate_control_exception_mask@W4__acrt_fenv_abstract_control@@W4__acrt_fenv_machine_sse_control@@@@YA?AW4__acrt_fenv_abstract_control@@W4__acrt_fenv_machine_sse_control@@@Z 0000000140055438     libucrtd:_fenvutils.obj
 0002:00012438       $unwind$??$translate_control_rounding_control@W4__acrt_fenv_abstract_control@@W4__acrt_fenv_machine_sse_control@@@@YA?AW4__acrt_fenv_abstract_control@@W4__acrt_fenv_machine_sse_control@@@Z 0000000140055438     libucrtd:_fenvutils.obj
 0002:00012438       $unwind$?set_machine_sse_control@@YAXW4__acrt_fenv_machine_sse_control@@@Z 0000000140055438     libucrtd:_fenvutils.obj
 0002:00012438       $unwind$?to_abstract_control@@YA?AW4__acrt_fenv_abstract_control@@W4__acrt_fenv_machine_sse_control@@@Z 0000000140055438     libucrtd:_fenvutils.obj
 0002:00012438       $unwind$?translate_control_denormal_control_from_sse@@YA?AW4__acrt_fenv_abstract_control@@W4__acrt_fenv_machine_sse_control@@@Z 0000000140055438     libucrtd:_fenvutils.obj
 0002:00012438       $unwind$feholdexcept       0000000140055438     libucrtd:feholdexcept.obj
 0002:00012438       $unwind$__setusermatherr   0000000140055438     libucrtd:matherr.obj
 0002:00012440       $unwind$__GSHandlerCheckCommon 0000000140055440     LIBCMTD:gshandler.obj
 0002:00012440       $unwind$??$ensure_buffer_is_big_enough@D@formatting_buffer@__crt_stdio_output@@QEAA_N_KAEAV__crt_cached_ptd_host@@@Z 0000000140055440     libucrtd:output.obj
 0002:00012440       $unwind$??$ensure_buffer_is_big_enough@_W@formatting_buffer@__crt_stdio_output@@QEAA_N_KAEAV__crt_cached_ptd_host@@@Z 0000000140055440     libucrtd:output.obj
 0002:00012440       $unwind$__ascii_wcsnicmp   0000000140055440     libucrtd:wcsnicmp.obj
 0002:00012448       $unwind$__GSHandlerCheck   0000000140055448     LIBCMTD:gshandler.obj
 0002:00012448       $unwind$?BuildCatchObject@__FrameHandler3@@SAXPEAUEHExceptionRecord@@PEAXPEBU_s_HandlerType@@PEBU_s_CatchableType@@@Z 0000000140055448     libvcruntimed:frame.obj
 0002:00012448       $unwind$?shift_bytes@@YAXQEAD_K0H@Z 0000000140055448     libucrtd:cvt.obj
 0002:00012448       $unwind$??$message_box@$$TAEBQEB_WAEBQEB_WK@?$__crt_char_traits@_W@@SAH$$QEA$$TAEBQEB_W1$$QEAK@Z 0000000140055448     libucrtd:crtmbox.obj
 0002:00012448       $unwind$??$message_box@PEAUHWND__@@AEBQEB_WAEBQEB_WAEBI@?$__crt_char_traits@_W@@SAH$$QEAPEAUHWND__@@AEBQEB_W1AEBI@Z 0000000140055448     libucrtd:crtmbox.obj
 0002:00012448       $unwind$_invoke_watson     0000000140055448     libucrtd:invalid_parameter.obj
 0002:00012448       $unwind$??$tcsncpy_s@AEAPEAD_KAEAPEADAEB_K@?$__crt_char_traits@D@@SAHAEAPEAD$$QEA_K0AEB_K@Z 0000000140055448     libucrtd:argv_wildcards.obj
 0002:00012448       $unwind$??$tcsncpy_s@PEADAEB_KAEBQEBDAEB_K@?$__crt_char_traits@D@@SAH$$QEAPEADAEB_KAEBQEBD1@Z 0000000140055448     libucrtd:argv_wildcards.obj
 0002:00012448       $unwind$??$tcsncpy_s@PEAD_KAEBQEBDAEB_K@?$__crt_char_traits@D@@SAH$$QEAPEAD$$QEA_KAEBQEBDAEB_K@Z 0000000140055448     libucrtd:argv_wildcards.obj
 0002:00012448       $unwind$strncpy_s          0000000140055448     libucrtd:strncpy_s.obj
 0002:00012448       $unwind$wcsncpy_s          0000000140055448     libucrtd:wcsncpy_s.obj
 0002:00012450       $xdatasym                  0000000140055450     LIBCMTD:amdsecgs.obj
 0002:00012454       $unwind$?__scrt_common_main@@YAHXZ 0000000140055454     LIBCMTD:exe_winmain.obj
 0002:00012454       $unwind$?configure_argv@__scrt_narrow_argv_policy@@SAHXZ 0000000140055454     LIBCMTD:exe_winmain.obj
 0002:00012454       $unwind$?initialize_environment@__scrt_narrow_environment_policy@@SAHXZ 0000000140055454     LIBCMTD:exe_winmain.obj
 0002:00012454       $unwind$?post_pgo_initialization@@YAHXZ 0000000140055454     LIBCMTD:exe_winmain.obj
 0002:00012454       $unwind$?pre_c_initialization@@YAHXZ 0000000140055454     LIBCMTD:exe_winmain.obj
 0002:00012454       $unwind$?pre_cpp_initialization@@YAXXZ 0000000140055454     LIBCMTD:exe_winmain.obj
 0002:00012454       $unwind$?set_app_type@__scrt_winmain_policy@@SAXXZ 0000000140055454     LIBCMTD:exe_winmain.obj
 0002:00012454       $unwind$?set_fmode@__scrt_file_policy@@SAXXZ 0000000140055454     LIBCMTD:exe_winmain.obj
 0002:00012454       $unwind$__report_rangecheckfailure 0000000140055454     LIBCMTD:gs_report.obj
 0002:00012454       $unwind$?__scrt_initialize_type_info@@YAXXZ 0000000140055454     LIBCMTD:tncleanup.obj
 0002:00012454       $unwind$__scrt_initialize_mta 0000000140055454     LIBCMTD:utility_desktop.obj
 0002:00012454       $unwind$__scrt_set_unhandled_exception_filter 0000000140055454     LIBCMTD:utility_desktop.obj
 0002:00012454       $unwind$__current_exception 0000000140055454     libvcruntimed:ehhelpers.obj
 0002:00012454       $unwind$__current_exception_context 0000000140055454     libvcruntimed:ehhelpers.obj
 0002:00012454       $unwind$__vcrt_initialize  0000000140055454     libvcruntimed:initialization.obj
 0002:00012454       $unwind$__vcrt_initialize_ptd 0000000140055454     libvcruntimed:per_thread_data.obj
 0002:00012454       $unwind$__vcrt_uninitialize_ptd 0000000140055454     libvcruntimed:per_thread_data.obj
 0002:00012454       $unwind$_GetImageBase      0000000140055454     libvcruntimed:risctrnsctrl.obj
 0002:00012454       $unwind$_GetThrowImageBase 0000000140055454     libvcruntimed:risctrnsctrl.obj
 0002:00012454       $unwind$?try_get_FlsAlloc@@YAP6AKP6AXPEAX@Z@ZXZ 0000000140055454     libvcruntimed:winapi_downlevel.obj
 0002:00012454       $unwind$?try_get_FlsFree@@YAP6AHK@ZXZ 0000000140055454     libvcruntimed:winapi_downlevel.obj
 0002:00012454       $unwind$?try_get_FlsGetValue@@YAP6APEAXK@ZXZ 0000000140055454     libvcruntimed:winapi_downlevel.obj
 0002:00012454       $unwind$?try_get_FlsSetValue@@YAP6AHKPEAX@ZXZ 0000000140055454     libvcruntimed:winapi_downlevel.obj
 0002:00012454       $unwind$?try_get_InitializeCriticalSectionEx@@YAP6AHPEAU_RTL_CRITICAL_SECTION@@KK@ZXZ 0000000140055454     libvcruntimed:winapi_downlevel.obj
 0002:00012454       $unwind$__dcrt_lowio_ensure_console_output_initialized 0000000140055454     libucrtd:initcon.obj
 0002:00012454       $unwind$__dcrt_terminate_console_output 0000000140055454     libucrtd:initcon.obj
 0002:00012454       $unwind$??$get_environment_from_os@$$V@?$__crt_char_traits@D@@SAPEADXZ 0000000140055454     libucrtd:environment_initialization.obj
 0002:00012454       $unwind$__dcrt_uninitialize_environments_nolock 0000000140055454     libucrtd:environment_initialization.obj
 0002:00012454       $unwind$_initialize_narrow_environment 0000000140055454     libucrtd:environment_initialization.obj
 0002:00012454       $unwind$__acrt_initialize_heap 0000000140055454     libucrtd:heap_handle.obj
 0002:00012454       $unwind$_query_new_mode    0000000140055454     libucrtd:new_mode.obj
 0002:00012454       $unwind$__acrt_initialize  0000000140055454     libucrtd:initialization.obj
 0002:00012454       $unwind$initialize_c       0000000140055454     libucrtd:initialization.obj
 0002:00012454       $unwind$initialize_global_variables 0000000140055454     libucrtd:initialization.obj
 0002:00012454       $unwind$__acrt_getptd_noexit 0000000140055454     libucrtd:per_thread_data.obj
 0002:00012454       $unwind$__acrt_initialize_ptd 0000000140055454     libucrtd:per_thread_data.obj
 0002:00012454       $unwind$__acrt_get_developer_information_policy 0000000140055454     libucrtd:win_policies.obj
 0002:00012454       $unwind$__acrt_get_process_end_policy 0000000140055454     libucrtd:win_policies.obj
 0002:00012454       $unwind$__acrt_get_windowing_model_policy 0000000140055454     libucrtd:win_policies.obj
 0002:00012454       $unwind$?try_get_AppPolicyGetProcessTerminationMethod@@YAP6AJPEAXPEAW4AppPolicyProcessTerminationMethod@@@ZXZ 0000000140055454     libucrtd:winapi_thunks.obj
 0002:00012454       $unwind$?try_get_AppPolicyGetShowDeveloperDiagnostic@@YAP6AJPEAXPEAW4AppPolicyShowDeveloperDiagnostic@@@ZXZ 0000000140055454     libucrtd:winapi_thunks.obj
 0002:00012454       $unwind$?try_get_AppPolicyGetWindowingModel@@YAP6AJPEAXPEAW4AppPolicyWindowingModel@@@ZXZ 0000000140055454     libucrtd:winapi_thunks.obj
 0002:00012454       $unwind$?try_get_AreFileApisANSI@@YAP6AHXZXZ 0000000140055454     libucrtd:winapi_thunks.obj
 0002:00012454       $unwind$?try_get_GetActiveWindow@@YAP6APEAUHWND__@@XZXZ 0000000140055454     libucrtd:winapi_thunks.obj
 0002:00012454       $unwind$?try_get_GetLastActivePopup@@YAP6APEAUHWND__@@PEAU1@@ZXZ 0000000140055454     libucrtd:winapi_thunks.obj
 0002:00012454       $unwind$?try_get_GetProcessWindowStation@@YAP6APEAUHWINSTA__@@XZXZ 0000000140055454     libucrtd:winapi_thunks.obj
 0002:00012454       $unwind$?try_get_GetUserObjectInformationW@@YAP6AHPEAXH0KPEAK@ZXZ 0000000140055454     libucrtd:winapi_thunks.obj
 0002:00012454       $unwind$?try_get_InitializeCriticalSectionEx@@YAP6AHPEAU_RTL_CRITICAL_SECTION@@KK@ZXZ 0000000140055454     libucrtd:winapi_thunks.obj
 0002:00012454       $unwind$?try_get_LCMapStringEx@@YAP6AHPEB_WK0HPEA_WHPEAU_nlsversioninfo@@PEAX_J@ZXZ 0000000140055454     libucrtd:winapi_thunks.obj
 0002:00012454       $unwind$?try_get_LocaleNameToLCID@@YAP6AKPEB_WK@ZXZ 0000000140055454     libucrtd:winapi_thunks.obj
 0002:00012454       $unwind$?try_get_MessageBoxA@@YAP6AHPEAUHWND__@@PEBD1I@ZXZ 0000000140055454     libucrtd:winapi_thunks.obj
 0002:00012454       $unwind$?try_get_MessageBoxW@@YAP6AHPEAUHWND__@@PEB_W1I@ZXZ 0000000140055454     libucrtd:winapi_thunks.obj
 0002:00012454       $unwind$__fpecode          0000000140055454     libucrtd:signal.obj
 0002:00012454       $unwind$__acrt_initialize_command_line 0000000140055454     libucrtd:argv_data.obj
 0002:00012454       $unwind$_get_narrow_winmain_command_line 0000000140055454     libucrtd:argv_winmain.obj
 0002:00012454       $unwind$_c_exit            0000000140055454     libucrtd:exit.obj
 0002:00012454       $unwind$_cexit             0000000140055454     libucrtd:exit.obj
 0002:00012454       $unwind$_flushall          0000000140055454     libucrtd:fflush.obj
 0002:00012454       $unwind$fegetround         0000000140055454     libucrtd:fegetround.obj
 0002:0001245c       $unwind$__scrt_initialize_default_local_stdio_options 000000014005545c     LIBCMTD:default_local_stdio_options.obj
 0002:0001245c       $unwind$?invoke_main@@YAHXZ 000000014005545c     LIBCMTD:exe_winmain.obj
 0002:0001245c       $unwind$?set_commode@__scrt_file_policy@@SAXXZ 000000014005545c     LIBCMTD:exe_winmain.obj
 0002:0001245c       $unwind$__security_init_cookie 000000014005545c     LIBCMTD:gs_support.obj
 0002:0001245c       $unwind$_guard_icall_checks_enforced 000000014005545c     LIBCMTD:guard_support.obj
 0002:0001245c       $unwind$__scrt_is_managed_app 000000014005545c     LIBCMTD:utility_desktop.obj
 0002:0001245c       $unwind$__vcrt_initialize_locks 000000014005545c     libvcruntimed:locks.obj
 0002:0001245c       $unwind$__vcrt_uninitialize_locks 000000014005545c     libvcruntimed:locks.obj
 0002:0001245c       $unwind$__vcrt_getptd      000000014005545c     libvcruntimed:per_thread_data.obj
 0002:0001245c       $unwind$?initialize_multibyte@@YAHXZ 000000014005545c     libucrtd:multibyte_initializer.obj
 0002:0001245c       $unwind$initialize_pointers 000000014005545c     libucrtd:initialization.obj
 0002:0001245c       $unwind$__acrt_initialize_locks 000000014005545c     libucrtd:locks.obj
 0002:0001245c       $unwind$?internal_getptd_noexit@@YAPEAU__acrt_ptd@@XZ 000000014005545c     libucrtd:per_thread_data.obj
 0002:0001245c       $unwind$?try_get_ptd_head@@YAPEAU__acrt_ptd@@XZ 000000014005545c     libucrtd:per_thread_data.obj
 0002:0001245c       $unwind$__acrt_getptd      000000014005545c     libucrtd:per_thread_data.obj
 0002:0001245c       $unwind$__acrt_getptd_head 000000014005545c     libucrtd:per_thread_data.obj
 0002:0001245c       $unwind$?should_write_error_to_console@@YA_NXZ 000000014005545c     libucrtd:report_runtime_error.obj
 0002:0001245c       $unwind$__acrt_AreFileApisANSI 000000014005545c     libucrtd:winapi_thunks.obj
 0002:0001245c       $unwind$__acrt_can_show_message_box 000000014005545c     libucrtd:winapi_thunks.obj
 0002:0001245c       $unwind$__acrt_initialize_multibyte 000000014005545c     libucrtd:mbctype.obj
 0002:0001245c       $unwind$__acrt_update_thread_multibyte_data 000000014005545c     libucrtd:mbctype.obj
 0002:0001245c       $unwind$__doserrno         000000014005545c     libucrtd:errno.obj
 0002:0001245c       $unwind$_errno             000000014005545c     libucrtd:errno.obj
 0002:0001245c       $unwind$_invalid_parameter_noinfo 000000014005545c     libucrtd:invalid_parameter.obj
 0002:0001245c       $unwind$abort              000000014005545c     libucrtd:abort.obj
 0002:0001245c       $unwind$?is_managed_app@@YA_NXZ 000000014005545c     libucrtd:exit.obj
 0002:0001245c       $unwind$?should_call_terminate_process@@YA_NXZ 000000014005545c     libucrtd:exit.obj
 0002:0001245c       $unwind$__acrt_uninitialize_stdio 000000014005545c     libucrtd:_file.obj
 0002:0001245c       $unwind$_clrfp             000000014005545c     libucrtd:fpctrl.obj
 0002:0001245c       $unwind$_statfp            000000014005545c     libucrtd:fpctrl.obj
 0002:0001245c       $unwind$_clearfp           000000014005545c     libucrtd:ieee.obj
 0002:0001245c       $unwind$?get_machine_sse_control@@YA?AW4__acrt_fenv_machine_sse_control@@XZ 000000014005545c     libucrtd:_fenvutils.obj
 0002:0001245c       $unwind$?get_machine_sse_status@@YA?AW4__acrt_fenv_machine_sse_status@@XZ 000000014005545c     libucrtd:_fenvutils.obj
 0002:0001245c       $unwind$__acrt_fenv_get_control 000000014005545c     libucrtd:_fenvutils.obj
 0002:0001245c       $unwind$__acrt_fenv_get_status 000000014005545c     libucrtd:_fenvutils.obj
 0002:0001245c       $unwind$__acrt_has_user_matherr 000000014005545c     libucrtd:matherr.obj
 0002:00012464       $unwind$?__scrt_common_main_seh@@YAHXZ 0000000140055464     LIBCMTD:exe_winmain.obj
 0002:00012484       $unwind$?filt$0@?0??__scrt_common_main_seh@@YAHXZ@4HA 0000000140055484     LIBCMTD:exe_winmain.obj
 0002:00012484       $unwind$_IsNonwritableInCurrentImage$filt$0 0000000140055484     LIBCMTD:pesect.obj
 0002:00012484       $unwind$__scrt_is_nonwritable_in_current_image$filt$0 0000000140055484     LIBCMTD:utility.obj
 0002:00012484       $unwind$__DestructExceptionObject$filt$0 0000000140055484     libvcruntimed:ehhelpers.obj
 0002:00012484       $unwind$?filt$0@?0???$BuildCatchObjectHelperInternal@V__FrameHandler3@@@@YAHPEAUEHExceptionRecord@@PEAXPEBU_s_HandlerType@@PEBU_s_CatchableType@@@Z@4HA 0000000140055484     libvcruntimed:frame.obj
 0002:00012484       $unwind$?filt$0@?0???$BuildCatchObjectInternal@V__FrameHandler3@@@@YAXPEAUEHExceptionRecord@@PEAXPEBU_s_HandlerType@@PEBU_s_CatchableType@@@Z@4HA 0000000140055484     libvcruntimed:frame.obj
 0002:00012484       $unwind$?filt$0@?0??CxxCallCatchBlock@__FrameHandler3@@SAPEAXPEAU_EXCEPTION_RECORD@@@Z@4HA 0000000140055484     libvcruntimed:frame.obj
 0002:00012484       $unwind$?filt$0@?0??FrameUnwindToState@__FrameHandler3@@SAXPEA_KPEAU_xDISPATCHER_CONTEXT@@PEBU_s_FuncInfo@@H@Z@4HA 0000000140055484     libvcruntimed:frame.obj
 0002:00012484       $unwind$?fin$1@?0??CxxCallCatchBlock@__FrameHandler3@@SAPEAXPEAU_EXCEPTION_RECORD@@@Z@4HA 0000000140055484     libvcruntimed:frame.obj
 0002:00012484       $unwind$?fin$1@?0??FrameUnwindToState@__FrameHandler3@@SAXPEA_KPEAU_xDISPATCHER_CONTEXT@@PEBU_s_FuncInfo@@H@Z@4HA 0000000140055484     libvcruntimed:frame.obj
 0002:00012484       $unwind$?filt$0@?0??is_bad_read_pointer@@YA_NQEBX_K@Z@4HA 0000000140055484     libucrtd:debug_heap.obj
 0002:00012484       $unwind$_free_dbg$fin$0    0000000140055484     libucrtd:debug_heap.obj
 0002:00012484       $unwind$_query_new_handler$fin$0 0000000140055484     libucrtd:new_handler.obj
 0002:00012484       $unwind$?fin$0@?0???$?RV<lambda_0ae27a3a962d80f24befdcbee591983d>@@AEAV<lambda_8d0ee55de4b1038c4002e0adecdf1839>@@V<lambda_dc504788e8f1664fe9b84e20bfb512f2>@@@?$__crt_seh_guarded_call@X@@QEAAX$$QEAV<lambda_0ae27a3a962d80f24befdcbee591983d>@@AEAV<lambda_8d0ee55de4b1038c4002e0adecdf1839>@@$$QEAV<lambda_dc504788e8f1664fe9b84e20bfb512f2>@@@Z@4HA 0000000140055484     libucrtd:per_thread_data.obj
 0002:00012484       $unwind$?fin$0@?0???$?RV<lambda_2d41944a1d46af3157314b8a01080d33>@@AEAV<lambda_8f455de75cd7d7f24b4096f044d8b9e6>@@V<lambda_aa500f224e6afead328df44964fe2772>@@@?$__crt_seh_guarded_call@X@@QEAAX$$QEAV<lambda_2d41944a1d46af3157314b8a01080d33>@@AEAV<lambda_8f455de75cd7d7f24b4096f044d8b9e6>@@$$QEAV<lambda_aa500f224e6afead328df44964fe2772>@@@Z@4HA 0000000140055484     libucrtd:per_thread_data.obj
 0002:00012484       $unwind$?fin$0@?0???$?RV<lambda_74a0ef281e44d15e1136f792f539efb3>@@AEAV<lambda_e157831efee4ea0afb0a2ace5dd5fd0d>@@V<lambda_04ddeca75b7c13fd67716e8dfcef87ee>@@@?$__crt_seh_guarded_call@X@@QEAAX$$QEAV<lambda_74a0ef281e44d15e1136f792f539efb3>@@AEAV<lambda_e157831efee4ea0afb0a2ace5dd5fd0d>@@$$QEAV<lambda_04ddeca75b7c13fd67716e8dfcef87ee>@@@Z@4HA 0000000140055484     libucrtd:per_thread_data.obj
 0002:00012484       $unwind$?fin$0@?0???$?RV<lambda_aa87e3671a710a21b5dc78c0bdf72e11>@@AEAV<lambda_92619d2358a28f41a33ba319515a20b9>@@V<lambda_6992ecaafeb10aed2b74cb1fae11a551>@@@?$__crt_seh_guarded_call@X@@QEAAX$$QEAV<lambda_aa87e3671a710a21b5dc78c0bdf72e11>@@AEAV<lambda_92619d2358a28f41a33ba319515a20b9>@@$$QEAV<lambda_6992ecaafeb10aed2b74cb1fae11a551>@@@Z@4HA 0000000140055484     libucrtd:per_thread_data.obj
 0002:00012484       $unwind$__acrt_update_thread_locale_data$fin$0 0000000140055484     libucrtd:locale_refcounting.obj
 0002:00012484       $unwind$?fin$0@?0???$?RV<lambda_410d79af7f07d98d83a3f525b3859a53>@@AEAV<lambda_3e16ef9562a7dcce91392c22ab16ea36>@@V<lambda_38119f0e861e05405d8a144b9b982f0a>@@@?$__crt_seh_guarded_call@X@@QEAAX$$QEAV<lambda_410d79af7f07d98d83a3f525b3859a53>@@AEAV<lambda_3e16ef9562a7dcce91392c22ab16ea36>@@$$QEAV<lambda_38119f0e861e05405d8a144b9b982f0a>@@@Z@4HA 0000000140055484     libucrtd:wsetlocale.obj
 0002:00012484       $unwind$?fin$0@?0???$?RV<lambda_19eaff14c5fe7be5b1b106a862eb1091>@@AEAV<lambda_af29824b49a67d335554598d6cad2be6>@@V<lambda_3ce37f5b621ab310299ea5f68cbdf3bb>@@@?$__crt_seh_guarded_call@H@@QEAAH$$QEAV<lambda_19eaff14c5fe7be5b1b106a862eb1091>@@AEAV<lambda_af29824b49a67d335554598d6cad2be6>@@$$QEAV<lambda_3ce37f5b621ab310299ea5f68cbdf3bb>@@@Z@4HA 0000000140055484     libucrtd:close.obj
 0002:00012484       $unwind$?fin$0@?0???$?RV<lambda_7d29013d608e9f25a034de83c9b9e983>@@AEAV<lambda_3e4146214822e0ea86c47ff907aef2ff>@@V<lambda_b869e5a4e1069fcb5c3da79c0d999133>@@@?$__crt_seh_guarded_call@H@@QEAAH$$QEAV<lambda_7d29013d608e9f25a034de83c9b9e983>@@AEAV<lambda_3e4146214822e0ea86c47ff907aef2ff>@@$$QEAV<lambda_b869e5a4e1069fcb5c3da79c0d999133>@@@Z@4HA 0000000140055484     libucrtd:commit.obj
 0002:00012484       $unwind$__acrt_initialize_lowio$fin$0 0000000140055484     libucrtd:ioinit.obj
 0002:00012484       $unwind$?fin$0@?0???$?RV<lambda_efa02eb69bf647d2f7ff0dd6f1103f72>@@AEAV<lambda_bd5a608237428601b7e45fbdc72b1ae8>@@V<lambda_728235dc0fc2b1f82d1fa5b3e7102d8f>@@@?$__crt_seh_guarded_call@X@@QEAAX$$QEAV<lambda_efa02eb69bf647d2f7ff0dd6f1103f72>@@AEAV<lambda_bd5a608237428601b7e45fbdc72b1ae8>@@$$QEAV<lambda_728235dc0fc2b1f82d1fa5b3e7102d8f>@@@Z@4HA 0000000140055484     libucrtd:mbctype.obj
 0002:00012484       $unwind$?fin$0@?0??update_thread_multibyte_data_internal@@YAPEAU__crt_multibyte_data@@QEAU__acrt_ptd@@QEAPEAU1@@Z@4HA 0000000140055484     libucrtd:mbctype.obj
 0002:00012484       $unwind$?fin$0@?0???$?RV<lambda_450d765d439847d4c735a33c368b5fc0>@@AEAV<lambda_44731a7d0e6d81c3e6aa82d741081786>@@V<lambda_601a2a7da3b7a96e9554ac7215c4b07c>@@@?$__crt_seh_guarded_call@P6AXH@Z@@QEAAP6AXH@Z$$QEAV<lambda_450d765d439847d4c735a33c368b5fc0>@@AEAV<lambda_44731a7d0e6d81c3e6aa82d741081786>@@$$QEAV<lambda_601a2a7da3b7a96e9554ac7215c4b07c>@@@Z@4HA 0000000140055484     libucrtd:signal.obj
 0002:00012484       $unwind$terminate$filt$0   0000000140055484     libucrtd:terminate.obj
 0002:00012484       $unwind$?filt$0@?0???R<lambda_6e4b09c48022b2350581041d5f6b0c4c>@@QEBA@XZ@4HA 0000000140055484     libucrtd:exit.obj
 0002:00012484       $unwind$?fin$0@?0???$?RV<lambda_d80eeec6fff315bfe5c115232f3240e3>@@AEAV<lambda_6e4b09c48022b2350581041d5f6b0c4c>@@V<lambda_2358e3775559c9db80273638284d5e45>@@@?$__crt_seh_guarded_call@X@@QEAAX$$QEAV<lambda_d80eeec6fff315bfe5c115232f3240e3>@@AEAV<lambda_6e4b09c48022b2350581041d5f6b0c4c>@@$$QEAV<lambda_2358e3775559c9db80273638284d5e45>@@@Z@4HA 0000000140055484     libucrtd:exit.obj
 0002:00012484       $unwind$?dtor$0@?0???R<lambda_d121dba8a4adeaf3a9819e48611155df>@@QEBAHXZ@4HA 0000000140055484     libucrtd:onexit.obj
 0002:00012484       $unwind$?fin$0@?0???$?RV<lambda_6a47f4c8fd0152770a780fc1d70204eb>@@AEAV<lambda_d121dba8a4adeaf3a9819e48611155df>@@V<lambda_6aaa2265f5b6a89667e7d7630012e97a>@@@?$__crt_seh_guarded_call@H@@QEAAH$$QEAV<lambda_6a47f4c8fd0152770a780fc1d70204eb>@@AEAV<lambda_d121dba8a4adeaf3a9819e48611155df>@@$$QEAV<lambda_6aaa2265f5b6a89667e7d7630012e97a>@@@Z@4HA 0000000140055484     libucrtd:onexit.obj
 0002:00012484       $unwind$?fin$0@?0???$?RV<lambda_80060f20ac3990516b753a27f211934c>@@AEAV<lambda_208ce30acdd7200aa596f2796f4d5154>@@V<lambda_fd91b99c0687e8936f1d70d7d9b78e69>@@@?$__crt_seh_guarded_call@H@@QEAAH$$QEAV<lambda_80060f20ac3990516b753a27f211934c>@@AEAV<lambda_208ce30acdd7200aa596f2796f4d5154>@@$$QEAV<lambda_fd91b99c0687e8936f1d70d7d9b78e69>@@@Z@4HA 0000000140055484     libucrtd:onexit.obj
 0002:00012484       $unwind$_fcloseall$fin$0   0000000140055484     libucrtd:closeall.obj
 0002:00012484       $unwind$?fin$0@?0???$?RV<lambda_842d9ff0dc9ef11c61343bbaebe7f885>@@AEAV<lambda_c5860995281e5c4ce005b3de8f5874ee>@@V<lambda_d90129c13df834fdcbf8d2b88dafcf2d>@@@?$__crt_seh_guarded_call@X@@QEAAX$$QEAV<lambda_842d9ff0dc9ef11c61343bbaebe7f885>@@AEAV<lambda_c5860995281e5c4ce005b3de8f5874ee>@@$$QEAV<lambda_d90129c13df834fdcbf8d2b88dafcf2d>@@@Z@4HA 0000000140055484     libucrtd:fflush.obj
 0002:00012484       $unwind$?fin$0@?0???$?RV<lambda_886d6c58226a84441f68b9f2b8217b83>@@AEAV<lambda_ab61a845afdef5b7c387490eaf3616ee>@@V<lambda_f7f22ab5edc0698d5f6905b0d3f44752>@@@?$__crt_seh_guarded_call@X@@QEAAX$$QEAV<lambda_886d6c58226a84441f68b9f2b8217b83>@@AEAV<lambda_ab61a845afdef5b7c387490eaf3616ee>@@$$QEAV<lambda_f7f22ab5edc0698d5f6905b0d3f44752>@@@Z@4HA 0000000140055484     libucrtd:fflush.obj
 0002:00012484       $unwind$?dtor$0@?0??shortsort@@YAXPEAD0_KP6AHPEBX2@Z@Z@4HA 0000000140055484     libucrtd:qsort.obj
 0002:00012484       $unwind$_ctrlfp$filt$0     0000000140055484     libucrtd:fpctrl.obj
 0002:0001248c       $unwind$??3@YAXPEAX@Z      000000014005548c     LIBCMTD:delete_scalar.obj
 0002:0001248c       $unwind$WinMainCRTStartup  000000014005548c     LIBCMTD:exe_winmain.obj
 0002:0001248c       $unwind$__raise_securityfailure 000000014005548c     LIBCMTD:gs_report.obj
 0002:0001248c       $unwind$ReadPointerNoFence 000000014005548c     LIBCMTD:guard_support.obj
 0002:0001248c       $unwind$_ValidateImageBase 000000014005548c     LIBCMTD:pesect.obj
 0002:0001248c       $unwind$??0bad_alloc@std@@QEAA@XZ 000000014005548c     LIBCMTD:throw_bad_alloc.obj
 0002:0001248c       $unwind$??0bad_array_new_length@std@@QEAA@XZ 000000014005548c     LIBCMTD:throw_bad_alloc.obj
 0002:0001248c       $unwind$??1bad_alloc@std@@UEAA@XZ 000000014005548c     LIBCMTD:throw_bad_alloc.obj
 0002:0001248c       $unwind$??1bad_array_new_length@std@@UEAA@XZ 000000014005548c     LIBCMTD:throw_bad_alloc.obj
 0002:0001248c       $unwind$??1exception@std@@UEAA@XZ 000000014005548c     LIBCMTD:throw_bad_alloc.obj
 0002:0001248c       $unwind$?is_potentially_valid_image_base@@YA_NQEAX@Z 000000014005548c     LIBCMTD:utility.obj
 0002:0001248c       $unwind$??0bad_exception@std@@QEAA@XZ 000000014005548c     libvcruntimed:frame.obj
 0002:0001248c       $unwind$??1bad_exception@std@@UEAA@XZ 000000014005548c     libvcruntimed:frame.obj
 0002:0001248c       $unwind$?__RethrowException@@YAXPEAUEHExceptionRecord@@@Z 000000014005548c     libvcruntimed:frame.obj
 0002:0001248c       $unwind$__vcrt_EncodePointer 000000014005548c     libvcruntimed:frame.obj
 0002:0001248c       $unwind$??0scoped_get_last_error_reset@?A0xa3727598@@QEAA@XZ 000000014005548c     libvcruntimed:per_thread_data.obj
 0002:0001248c       $unwind$??1?$__crt_unique_heap_ptr@U__vcrt_ptd@@U__crt_internal_free_policy@@@@QEAA@XZ 000000014005548c     libvcruntimed:per_thread_data.obj
 0002:0001248c       $unwind$??1scoped_get_last_error_reset@?A0xa3727598@@QEAA@XZ 000000014005548c     libvcruntimed:per_thread_data.obj
 0002:0001248c       $unwind$??B?$__crt_unique_heap_ptr@U__vcrt_ptd@@U__crt_internal_free_policy@@@@QEBA_NXZ 000000014005548c     libvcruntimed:per_thread_data.obj
 0002:0001248c       $unwind$?store_and_initialize_ptd@@YA_NQEAU__vcrt_ptd@@@Z 000000014005548c     libvcruntimed:per_thread_data.obj
 0002:0001248c       $unwind$__vcrt_freefls     000000014005548c     libvcruntimed:per_thread_data.obj
 0002:0001248c       $unwind$_SetImageBase      000000014005548c     libvcruntimed:risctrnsctrl.obj
 0002:0001248c       $unwind$_SetThrowImageBase 000000014005548c     libvcruntimed:risctrnsctrl.obj
 0002:0001248c       $unwind$??1?$__crt_unique_heap_ptr@DU__crt_public_free_policy@@@@QEAA@XZ 000000014005548c     libvcruntimed:std_exception.obj
 0002:0001248c       $unwind$??B?$__crt_unique_heap_ptr@DU__crt_public_free_policy@@@@QEBA_NXZ 000000014005548c     libvcruntimed:std_exception.obj
 0002:0001248c       $unwind$__std_exception_destroy 000000014005548c     libvcruntimed:std_exception.obj
 0002:0001248c       $unwind$??1?$__crt_unique_heap_ptr@DU__crt_internal_free_policy@@@@QEAA@XZ 000000014005548c     libvcruntimed:std_type_info.obj
 0002:0001248c       $unwind$??B?$__crt_unique_heap_ptr@DU__crt_internal_free_policy@@@@QEBA_NXZ 000000014005548c     libvcruntimed:std_type_info.obj
 0002:0001248c       $unwind$??$__crt_interlocked_read_pointer@UHINSTANCE__@@@@YAPEAUHINSTANCE__@@PEDSEAU0@@Z 000000014005548c     libvcruntimed:winapi_downlevel.obj
 0002:0001248c       $unwind$??$__crt_interlocked_read_pointer@X@@YAPEAXPEDSEAX@Z 000000014005548c     libvcruntimed:winapi_downlevel.obj
 0002:0001248c       $unwind$??$tcslen@AEAPEAD@?$__crt_char_traits@D@@SA_KAEAPEAD@Z 000000014005548c     libucrtd:environment_initialization.obj
 0002:0001248c       $unwind$??$uninitialize_environment_internal@D@@YAXAEAPEAPEAD@Z 000000014005548c     libucrtd:environment_initialization.obj
 0002:0001248c       $unwind$??$uninitialize_environment_internal@_W@@YAXAEAPEAPEA_W@Z 000000014005548c     libucrtd:environment_initialization.obj
 0002:0001248c       $unwind$??B?$__crt_unique_heap_ptr@PEADU__crt_internal_free_policy@@@@QEBA_NXZ 000000014005548c     libucrtd:environment_initialization.obj
 0002:0001248c       $unwind$?value@?$dual_state_global@PEAPEAD@__crt_state_management@@QEAAAEAPEAPEADXZ 000000014005548c     libucrtd:environment_initialization.obj
 0002:0001248c       $unwind$??1?$__crt_unique_handle_t@Uenvironment_strings_traits@?A0x1bf47908@@@@QEAA@XZ 000000014005548c     libucrtd:get_environment_from_os.obj
 0002:0001248c       $unwind$?close@?$__crt_unique_handle_t@Uenvironment_strings_traits@?A0x1bf47908@@@@QEAAXXZ 000000014005548c     libucrtd:get_environment_from_os.obj
 0002:0001248c       $unwind$?close@environment_strings_traits@?A0x1bf47908@@SA_NPEA_W@Z 000000014005548c     libucrtd:get_environment_from_os.obj
 0002:0001248c       $unwind$??0big_integer@__crt_strtox@@QEAA@XZ 000000014005548c     libucrtd:cfout.obj
 0002:0001248c       $unwind$??0scoped_fp_state_reset@?A0x71ca7cfb@@QEAA@XZ 000000014005548c     libucrtd:cfout.obj
 0002:0001248c       $unwind$??1scoped_fp_state_reset@?A0x71ca7cfb@@QEAA@XZ 000000014005548c     libucrtd:cfout.obj
 0002:0001248c       $unwind$??1_LocaleUpdate@@QEAA@XZ 000000014005548c     libucrtd:debug_heap.obj
 0002:0001248c       $unwind$malloc             000000014005548c     libucrtd:malloc.obj
 0002:0001248c       $unwind$??$__crt_fast_decode_pointer@P6AH_K@Z@@YAP6AH_K@ZQ6AH0@Z@Z 000000014005548c     libucrtd:new_handler.obj
 0002:0001248c       $unwind$?value@?$dual_state_global@P6AH_K@Z@__crt_state_management@@QEAAAEAP6AH_K@ZXZ 000000014005548c     libucrtd:new_handler.obj
 0002:0001248c       $unwind$__acrt_initialize_new_handler 000000014005548c     libucrtd:new_handler.obj
 0002:0001248c       $unwind$?value@?$dual_state_global@J@__crt_state_management@@QEAAAEAJXZ 000000014005548c     libucrtd:new_mode.obj
 0002:0001248c       $unwind$?set_to_nullptr@?$__crt_win32_buffer@DU__crt_win32_buffer_no_resizing@@@@QEAAXXZ 000000014005548c     libucrtd:getmodulefilenamea.obj
 0002:0001248c       $unwind$??$?BX@__crt_fast_encoded_nullptr_t@@QEBAPEAXXZ 000000014005548c     libucrtd:initialization.obj
 0002:0001248c       $unwind$??$__crt_fast_encode_pointer@PEAX@@YAPEAXQEAX@Z 000000014005548c     libucrtd:initialization.obj
 0002:0001248c       $unwind$??1?$__crt_unique_heap_ptr@U__acrt_ptd@@U__crt_internal_free_policy@@@@QEAA@XZ 000000014005548c     libucrtd:per_thread_data.obj
 0002:0001248c       $unwind$??B?$__crt_unique_heap_ptr@U__acrt_ptd@@U__crt_internal_free_policy@@@@QEBA_NXZ 000000014005548c     libucrtd:per_thread_data.obj
 0002:0001248c       $unwind$??R<lambda_04ddeca75b7c13fd67716e8dfcef87ee>@@QEBAXXZ 000000014005548c     libucrtd:per_thread_data.obj
 0002:0001248c       $unwind$??R<lambda_0ae27a3a962d80f24befdcbee591983d>@@QEBAXXZ 000000014005548c     libucrtd:per_thread_data.obj
 0002:0001248c       $unwind$??R<lambda_2d41944a1d46af3157314b8a01080d33>@@QEBAXXZ 000000014005548c     libucrtd:per_thread_data.obj
 0002:0001248c       $unwind$??R<lambda_6992ecaafeb10aed2b74cb1fae11a551>@@QEBAXXZ 000000014005548c     libucrtd:per_thread_data.obj
 0002:0001248c       $unwind$??R<lambda_74a0ef281e44d15e1136f792f539efb3>@@QEBAXXZ 000000014005548c     libucrtd:per_thread_data.obj
 0002:0001248c       $unwind$??R<lambda_8f455de75cd7d7f24b4096f044d8b9e6>@@QEBAXXZ 000000014005548c     libucrtd:per_thread_data.obj
 0002:0001248c       $unwind$??R<lambda_92619d2358a28f41a33ba319515a20b9>@@QEBAXXZ 000000014005548c     libucrtd:per_thread_data.obj
 0002:0001248c       $unwind$??R<lambda_aa500f224e6afead328df44964fe2772>@@QEBAXXZ 000000014005548c     libucrtd:per_thread_data.obj
 0002:0001248c       $unwind$??R<lambda_aa87e3671a710a21b5dc78c0bdf72e11>@@QEBAXXZ 000000014005548c     libucrtd:per_thread_data.obj
 0002:0001248c       $unwind$??R<lambda_dc504788e8f1664fe9b84e20bfb512f2>@@QEBAXXZ 000000014005548c     libucrtd:per_thread_data.obj
 0002:0001248c       $unwind$?destroy_fls@@YAXPEAX@Z 000000014005548c     libucrtd:per_thread_data.obj
 0002:0001248c       $unwind$?appmodel_get_policy@developer_information_policy_properties@?1??__acrt_get_developer_information_policy@@YA?AW4developer_information_policy@@XZ@SAJPEAW4AppPolicyShowDeveloperDiagnostic@@@Z 000000014005548c     libucrtd:win_policies.obj
 0002:0001248c       $unwind$?appmodel_get_policy@process_end_policy_properties@?1??__acrt_get_process_end_policy@@YA?AW4process_end_policy@@XZ@SAJPEAW4AppPolicyProcessTerminationMethod@@@Z 000000014005548c     libucrtd:win_policies.obj
 0002:0001248c       $unwind$?appmodel_get_policy@windowing_model_policy_properties@?1??__acrt_get_windowing_model_policy@@YA?AW4windowing_model_policy@@XZ@SAJPEAW4AppPolicyWindowingModel@@@Z 000000014005548c     libucrtd:win_policies.obj
 0002:0001248c       $unwind$??$__crt_fast_decode_pointer@PEAX@@YAPEAXQEAX@Z 000000014005548c     libucrtd:winapi_thunks.obj
 0002:0001248c       $unwind$__acrt_FlsAlloc    000000014005548c     libucrtd:winapi_thunks.obj
 0002:0001248c       $unwind$??1?$__crt_scoped_stack_ptr@_W@@QEAA@XZ 000000014005548c     libucrtd:getstringtypea.obj
 0002:0001248c       $unwind$__acrt_locale_free_monetary 000000014005548c     libucrtd:initmon.obj
 0002:0001248c       $unwind$__acrt_locale_free_numeric 000000014005548c     libucrtd:initnum.obj
 0002:0001248c       $unwind$??$free_crt_array@D$01@@YAXAEAY01PEAD@Z 000000014005548c     libucrtd:inittime.obj
 0002:0001248c       $unwind$??$free_crt_array@D$06@@YAXAEAY06PEAD@Z 000000014005548c     libucrtd:inittime.obj
 0002:0001248c       $unwind$??$free_crt_array@D$0M@@@YAXAEAY0M@PEAD@Z 000000014005548c     libucrtd:inittime.obj
 0002:0001248c       $unwind$??$free_crt_array@_W$01@@YAXAEAY01PEA_W@Z 000000014005548c     libucrtd:inittime.obj
 0002:0001248c       $unwind$??$free_crt_array@_W$06@@YAXAEAY06PEA_W@Z 000000014005548c     libucrtd:inittime.obj
 0002:0001248c       $unwind$??$free_crt_array@_W$0M@@@YAXAEAY0M@PEA_W@Z 000000014005548c     libucrtd:inittime.obj
 0002:0001248c       $unwind$__acrt_locale_free_time 000000014005548c     libucrtd:inittime.obj
 0002:0001248c       $unwind$__acrt_locale_free_lc_time_if_unreferenced 000000014005548c     libucrtd:locale_refcounting.obj
 0002:0001248c       $unwind$??1?$__crt_unique_heap_ptr@U__crt_multibyte_data@@U__crt_internal_free_policy@@@@QEAA@XZ 000000014005548c     libucrtd:wsetlocale.obj
 0002:0001248c       $unwind$??B?$__crt_unique_heap_ptr@U__crt_multibyte_data@@U__crt_internal_free_policy@@@@QEBA_NXZ 000000014005548c     libucrtd:wsetlocale.obj
 0002:0001248c       $unwind$??R<lambda_38119f0e861e05405d8a144b9b982f0a>@@QEBAXXZ 000000014005548c     libucrtd:wsetlocale.obj
 0002:0001248c       $unwind$??R<lambda_410d79af7f07d98d83a3f525b3859a53>@@QEBAXXZ 000000014005548c     libucrtd:wsetlocale.obj
 0002:0001248c       $unwind$?value@?$dual_state_global@PEAU__crt_locale_data@@@__crt_state_management@@QEAAAEAPEAU__crt_locale_data@@XZ 000000014005548c     libucrtd:wsetlocale.obj
 0002:0001248c       $unwind$??R<lambda_19eaff14c5fe7be5b1b106a862eb1091>@@QEBAXXZ 000000014005548c     libucrtd:close.obj
 0002:0001248c       $unwind$??R<lambda_3ce37f5b621ab310299ea5f68cbdf3bb>@@QEBAXXZ 000000014005548c     libucrtd:close.obj
 0002:0001248c       $unwind$??R<lambda_7d29013d608e9f25a034de83c9b9e983>@@QEBAXXZ 000000014005548c     libucrtd:commit.obj
 0002:0001248c       $unwind$??R<lambda_b869e5a4e1069fcb5c3da79c0d999133>@@QEBAXXZ 000000014005548c     libucrtd:commit.obj
 0002:0001248c       $unwind$??1?$__crt_unique_heap_ptr@U__crt_lowio_handle_data@@U__crt_internal_free_policy@@@@QEAA@XZ 000000014005548c     libucrtd:osfinfo.obj
 0002:0001248c       $unwind$??B?$__crt_unique_heap_ptr@U__crt_lowio_handle_data@@U__crt_internal_free_policy@@@@QEBA_NXZ 000000014005548c     libucrtd:osfinfo.obj
 0002:0001248c       $unwind$?value@?$dual_state_global@H@__crt_state_management@@QEAAAEAHXZ 000000014005548c     libucrtd:setmode.obj
 0002:0001248c       $unwind$??R<lambda_728235dc0fc2b1f82d1fa5b3e7102d8f>@@QEBAXXZ 000000014005548c     libucrtd:mbctype.obj
 0002:0001248c       $unwind$??R<lambda_efa02eb69bf647d2f7ff0dd6f1103f72>@@QEBAXXZ 000000014005548c     libucrtd:mbctype.obj
 0002:0001248c       $unwind$?value@?$dual_state_global@PEAE@__crt_state_management@@QEAAAEAPEAEXZ 000000014005548c     libucrtd:mbctype.obj
 0002:0001248c       $unwind$?value@?$dual_state_global@PEAU__crt_multibyte_data@@@__crt_state_management@@QEAAAEAPEAU__crt_multibyte_data@@XZ 000000014005548c     libucrtd:mbctype.obj
 0002:0001248c       $unwind$??$output_debug_string@AEBQEB_W@?$__crt_char_traits@_W@@SAXAEBQEB_W@Z 000000014005548c     libucrtd:crtmbox.obj
 0002:0001248c       $unwind$??$tcslen@AEAY0BAF@D@?$__crt_char_traits@D@@SA_KAEAY0BAF@D@Z 000000014005548c     libucrtd:dbgrpt.obj
 0002:0001248c       $unwind$??$tcslen@AEAY0BAF@_W@?$__crt_char_traits@_W@@SA_KAEAY0BAF@_W@Z 000000014005548c     libucrtd:dbgrpt.obj
 0002:0001248c       $unwind$??$tcslen@AEBQEBD@?$__crt_char_traits@D@@SA_KAEBQEBD@Z 000000014005548c     libucrtd:dbgrpt.obj
 0002:0001248c       $unwind$??$tcslen@AEBQEB_W@?$__crt_char_traits@_W@@SA_KAEBQEB_W@Z 000000014005548c     libucrtd:dbgrpt.obj
 0002:0001248c       $unwind$??$__crt_fast_decode_pointer@P6AXPEB_W00I_K@Z@@YAP6AXPEB_W00I_K@ZQ6AX000I1@Z@Z 000000014005548c     libucrtd:invalid_parameter.obj
 0002:0001248c       $unwind$??0__crt_scoped_get_last_error_reset@@QEAA@XZ 000000014005548c     libucrtd:invalid_parameter.obj
 0002:0001248c       $unwind$??1__crt_scoped_get_last_error_reset@@QEAA@XZ 000000014005548c     libucrtd:invalid_parameter.obj
 0002:0001248c       $unwind$?check_synchronize_per_thread_data@__crt_cached_ptd_host@@AEAAPEAU__acrt_ptd@@XZ 000000014005548c     libucrtd:invalid_parameter.obj
 0002:0001248c       $unwind$?get_current_global_state_index@__crt_cached_ptd_host@@QEAA_KXZ 000000014005548c     libucrtd:invalid_parameter.obj
 0002:0001248c       $unwind$?get_raw_ptd@__crt_cached_ptd_host@@QEAAPEAU__acrt_ptd@@XZ 000000014005548c     libucrtd:invalid_parameter.obj
 0002:0001248c       $unwind$?get_raw_ptd_noexit@__crt_cached_ptd_host@@QEAAPEAU__acrt_ptd@@XZ 000000014005548c     libucrtd:invalid_parameter.obj
 0002:0001248c       $unwind$?try_synchronize_per_thread_data@__crt_cached_ptd_host@@AEAAPEAU__acrt_ptd@@XZ 000000014005548c     libucrtd:invalid_parameter.obj
 0002:0001248c       $unwind$??$?B$$A6AXH@Z@__crt_fast_encoded_nullptr_t@@QEBAP6AXH@ZXZ 000000014005548c     libucrtd:signal.obj
 0002:0001248c       $unwind$??$__crt_fast_decode_pointer@P6AXH@Z@@YAP6AXH@ZQ6AXH@Z@Z 000000014005548c     libucrtd:signal.obj
 0002:0001248c       $unwind$??$__crt_fast_encode_pointer@P6AXH@Z@@YAP6AXH@ZQ6AXH@Z@Z 000000014005548c     libucrtd:signal.obj
 0002:0001248c       $unwind$??R<lambda_44731a7d0e6d81c3e6aa82d741081786>@@QEBAP6AXH@ZXZ 000000014005548c     libucrtd:signal.obj
 0002:0001248c       $unwind$??R<lambda_450d765d439847d4c735a33c368b5fc0>@@QEBAXXZ 000000014005548c     libucrtd:signal.obj
 0002:0001248c       $unwind$??R<lambda_601a2a7da3b7a96e9554ac7215c4b07c>@@QEBAXXZ 000000014005548c     libucrtd:signal.obj
 0002:0001248c       $unwind$?value@?$dual_state_global@P6AXH@Z@__crt_state_management@@QEAAAEAP6AXH@ZXZ 000000014005548c     libucrtd:signal.obj
 0002:0001248c       $unwind$__acrt_initialize_signal_handlers 000000014005548c     libucrtd:signal.obj
 0002:0001248c       $unwind$??$set_program_name@PEAD@?$__crt_char_traits@D@@SAX$$QEAPEAD@Z 000000014005548c     libucrtd:argv_parsing.obj
 0002:0001248c       $unwind$??1?$__crt_unique_heap_ptr@EU__crt_internal_free_policy@@@@QEAA@XZ 000000014005548c     libucrtd:argv_parsing.obj
 0002:0001248c       $unwind$??1?$__crt_unique_heap_ptr@PEADU__crt_internal_free_policy@@@@QEAA@XZ 000000014005548c     libucrtd:argv_parsing.obj
 0002:0001248c       $unwind$??B?$__crt_unique_heap_ptr@EU__crt_internal_free_policy@@@@QEBA_NXZ 000000014005548c     libucrtd:argv_parsing.obj
 0002:0001248c       $unwind$??1?$__crt_unique_handle_t@U__crt_findfile_traits@@@@QEAA@XZ 000000014005548c     libucrtd:argv_wildcards.obj
 0002:0001248c       $unwind$?close@?$__crt_unique_handle_t@U__crt_findfile_traits@@@@QEAAXXZ 000000014005548c     libucrtd:argv_wildcards.obj
 0002:0001248c       $unwind$?set_to_nullptr@?$__crt_win32_buffer@DU__crt_win32_buffer_internal_dynamic_resizing@@@@QEAAXXZ 000000014005548c     libucrtd:argv_wildcards.obj
 0002:0001248c       $unwind$?set_to_nullptr@?$__crt_win32_buffer@_WU__crt_win32_buffer_internal_dynamic_resizing@@@@QEAAXXZ 000000014005548c     libucrtd:argv_wildcards.obj
 0002:0001248c       $unwind$??$?B$$A6AXPEAXK0@Z@__crt_fast_encoded_nullptr_t@@QEBAP6AXPEAXK0@ZXZ 000000014005548c     libucrtd:exit.obj
 0002:0001248c       $unwind$??$__crt_fast_decode_pointer@P6AXPEAXK0@Z@@YAP6AXPEAXK0@ZQ6AX0K0@Z@Z 000000014005548c     libucrtd:exit.obj
 0002:0001248c       $unwind$??$__crt_fast_encode_pointer@P6AXPEAXK0@Z@@YAP6AXPEAXK0@ZQ6AX0K0@Z@Z 000000014005548c     libucrtd:exit.obj
 0002:0001248c       $unwind$??$__crt_interlocked_read@J@@YAJPEDJ@Z 000000014005548c     libucrtd:exit.obj
 0002:0001248c       $unwind$??1?$__crt_unique_handle_t@U__crt_hmodule_traits@@@@QEAA@XZ 000000014005548c     libucrtd:exit.obj
 0002:0001248c       $unwind$??R<lambda_2358e3775559c9db80273638284d5e45>@@QEBAXXZ 000000014005548c     libucrtd:exit.obj
 0002:0001248c       $unwind$??R<lambda_d80eeec6fff315bfe5c115232f3240e3>@@QEBAXXZ 000000014005548c     libucrtd:exit.obj
 0002:0001248c       $unwind$?close@?$__crt_unique_handle_t@U__crt_hmodule_traits@@@@QEAAXXZ 000000014005548c     libucrtd:exit.obj
 0002:0001248c       $unwind$??$?B$$A6AXXZ@__crt_fast_encoded_nullptr_t@@QEBAP6AXXZXZ 000000014005548c     libucrtd:onexit.obj
 0002:0001248c       $unwind$??$?BP6AXXZ@__crt_fast_encoded_nullptr_t@@QEBAPEAP6AXXZXZ 000000014005548c     libucrtd:onexit.obj
 0002:0001248c       $unwind$??$__crt_fast_decode_pointer@P6AXXZ@@YAP6AXXZQ6AXXZ@Z 000000014005548c     libucrtd:onexit.obj
 0002:0001248c       $unwind$??$__crt_fast_decode_pointer@PEAP6AXXZ@@YAPEAP6AXXZQEAP6AXXZ@Z 000000014005548c     libucrtd:onexit.obj
 0002:0001248c       $unwind$??$__crt_fast_encode_pointer@P6AHXZ@@YAP6AHXZQ6AHXZ@Z 000000014005548c     libucrtd:onexit.obj
 0002:0001248c       $unwind$??$__crt_fast_encode_pointer@P6AXXZ@@YAP6AXXZQ6AXXZ@Z 000000014005548c     libucrtd:onexit.obj
 0002:0001248c       $unwind$??$__crt_fast_encode_pointer@PEAP6AXXZ@@YAPEAP6AXXZQEAP6AXXZ@Z 000000014005548c     libucrtd:onexit.obj
 0002:0001248c       $unwind$??1?$__crt_unique_heap_ptr@P6AXXZU__crt_internal_free_policy@@@@QEAA@XZ 000000014005548c     libucrtd:onexit.obj
 0002:0001248c       $unwind$??R<lambda_6a47f4c8fd0152770a780fc1d70204eb>@@QEBAXXZ 000000014005548c     libucrtd:onexit.obj
 0002:0001248c       $unwind$??R<lambda_6aaa2265f5b6a89667e7d7630012e97a>@@QEBAXXZ 000000014005548c     libucrtd:onexit.obj
 0002:0001248c       $unwind$??R<lambda_80060f20ac3990516b753a27f211934c>@@QEBAXXZ 000000014005548c     libucrtd:onexit.obj
 0002:0001248c       $unwind$??R<lambda_fd91b99c0687e8936f1d70d7d9b78e69>@@QEBAXXZ 000000014005548c     libucrtd:onexit.obj
 0002:0001248c       $unwind$_crt_atexit        000000014005548c     libucrtd:onexit.obj
 0002:0001248c       $unwind$??1?$__crt_unique_heap_ptr@PEAU__crt_stdio_stream_data@@U__crt_internal_free_policy@@@@QEAA@XZ 000000014005548c     libucrtd:_file.obj
 0002:0001248c       $unwind$?has_crt_buffer@__crt_stdio_stream@@QEBA_NXZ 000000014005548c     libucrtd:_freebuf.obj
 0002:0001248c       $unwind$??R<lambda_842d9ff0dc9ef11c61343bbaebe7f885>@@QEBAXXZ 000000014005548c     libucrtd:fflush.obj
 0002:0001248c       $unwind$??R<lambda_886d6c58226a84441f68b9f2b8217b83>@@QEBAXXZ 000000014005548c     libucrtd:fflush.obj
 0002:0001248c       $unwind$??R<lambda_d90129c13df834fdcbf8d2b88dafcf2d>@@QEBAXXZ 000000014005548c     libucrtd:fflush.obj
 0002:0001248c       $unwind$??R<lambda_f7f22ab5edc0698d5f6905b0d3f44752>@@QEBAXXZ 000000014005548c     libucrtd:fflush.obj
 0002:0001248c       $unwind$?lowio_handle@__crt_stdio_stream@@QEBAHXZ 000000014005548c     libucrtd:fileno.obj
 0002:0001248c       $unwind$??$count@D@formatting_buffer@__crt_stdio_output@@QEBA_KXZ 000000014005548c     libucrtd:output.obj
 0002:0001248c       $unwind$??$count@_W@formatting_buffer@__crt_stdio_output@@QEBA_KXZ 000000014005548c     libucrtd:output.obj
 0002:0001248c       $unwind$??$data@D@formatting_buffer@__crt_stdio_output@@QEAAPEADXZ 000000014005548c     libucrtd:output.obj
 0002:0001248c       $unwind$??$data@_W@formatting_buffer@__crt_stdio_output@@QEAAPEA_WXZ 000000014005548c     libucrtd:output.obj
 0002:0001248c       $unwind$??$scratch_count@D@formatting_buffer@__crt_stdio_output@@QEBA_KXZ 000000014005548c     libucrtd:output.obj
 0002:0001248c       $unwind$??1?$common_data@D@__crt_stdio_output@@QEAA@XZ 000000014005548c     libucrtd:output.obj
 0002:0001248c       $unwind$??1?$common_data@_W@__crt_stdio_output@@QEAA@XZ 000000014005548c     libucrtd:output.obj
 0002:0001248c       $unwind$??1?$format_validation_base@DV?$string_output_adapter@D@__crt_stdio_output@@@__crt_stdio_output@@QEAA@XZ 000000014005548c     libucrtd:output.obj
 0002:0001248c       $unwind$??1?$format_validation_base@_WV?$string_output_adapter@_W@__crt_stdio_output@@@__crt_stdio_output@@QEAA@XZ 000000014005548c     libucrtd:output.obj
 0002:0001248c       $unwind$??1?$output_adapter_data@DV?$string_output_adapter@D@__crt_stdio_output@@@__crt_stdio_output@@QEAA@XZ 000000014005548c     libucrtd:output.obj
 0002:0001248c       $unwind$??1?$output_adapter_data@_WV?$string_output_adapter@_W@__crt_stdio_output@@@__crt_stdio_output@@QEAA@XZ 000000014005548c     libucrtd:output.obj
 0002:0001248c       $unwind$??1?$output_processor@DV?$string_output_adapter@D@__crt_stdio_output@@V?$format_validation_base@DV?$string_output_adapter@D@__crt_stdio_output@@@2@@__crt_stdio_output@@QEAA@XZ 000000014005548c     libucrtd:output.obj
 0002:0001248c       $unwind$??1?$output_processor@_WV?$string_output_adapter@_W@__crt_stdio_output@@V?$format_validation_base@_WV?$string_output_adapter@_W@__crt_stdio_output@@@2@@__crt_stdio_output@@QEAA@XZ 000000014005548c     libucrtd:output.obj
 0002:0001248c       $unwind$??1?$standard_base@DV?$string_output_adapter@D@__crt_stdio_output@@@__crt_stdio_output@@QEAA@XZ 000000014005548c     libucrtd:output.obj
 0002:0001248c       $unwind$??1?$standard_base@_WV?$string_output_adapter@_W@__crt_stdio_output@@@__crt_stdio_output@@QEAA@XZ 000000014005548c     libucrtd:output.obj
 0002:0001248c       $unwind$??1formatting_buffer@__crt_stdio_output@@QEAA@XZ 000000014005548c     libucrtd:output.obj
 0002:0001248c       $unwind$?get_flags@__crt_stdio_stream@@QEBAJXZ 000000014005548c     libucrtd:output.obj
 0002:0001248c       $unwind$?get_locale@__crt_cached_ptd_host@@QEAAPEAU__crt_locale_pointers@@XZ 000000014005548c     libucrtd:output.obj
 0002:0001248c       $unwind$?state_case_precision@?$output_processor@DV?$string_output_adapter@D@__crt_stdio_output@@V?$format_validation_base@DV?$string_output_adapter@D@__crt_stdio_output@@@2@@__crt_stdio_output@@AEAA_NXZ 000000014005548c     libucrtd:output.obj
 0002:0001248c       $unwind$?state_case_precision@?$output_processor@_WV?$string_output_adapter@_W@__crt_stdio_output@@V?$format_validation_base@_WV?$string_output_adapter@_W@__crt_stdio_output@@@2@@__crt_stdio_output@@AEAA_NXZ 000000014005548c     libucrtd:output.obj
 0002:0001248c       $unwind$?state_case_width@?$output_processor@DV?$string_output_adapter@D@__crt_stdio_output@@V?$format_validation_base@DV?$string_output_adapter@D@__crt_stdio_output@@@2@@__crt_stdio_output@@AEAA_NXZ 000000014005548c     libucrtd:output.obj
 0002:0001248c       $unwind$?state_case_width@?$output_processor@_WV?$string_output_adapter@_W@__crt_stdio_output@@V?$format_validation_base@_WV?$string_output_adapter@_W@__crt_stdio_output@@@2@@__crt_stdio_output@@AEAA_NXZ 000000014005548c     libucrtd:output.obj
 0002:0001248c       $unwind$?tchar_string@?$common_data@D@__crt_stdio_output@@IEAAAEAPEADXZ 000000014005548c     libucrtd:output.obj
 0002:0001248c       $unwind$?tchar_string@?$common_data@_W@__crt_stdio_output@@IEAAAEAPEA_WXZ 000000014005548c     libucrtd:output.obj
 0002:0001248c       $unwind$?type_case_X@?$output_processor@DV?$string_output_adapter@D@__crt_stdio_output@@V?$format_validation_base@DV?$string_output_adapter@D@__crt_stdio_output@@@2@@__crt_stdio_output@@AEAA_NXZ 000000014005548c     libucrtd:output.obj
 0002:0001248c       $unwind$?type_case_X@?$output_processor@_WV?$string_output_adapter@_W@__crt_stdio_output@@V?$format_validation_base@_WV?$string_output_adapter@_W@__crt_stdio_output@@@2@@__crt_stdio_output@@AEAA_NXZ 000000014005548c     libucrtd:output.obj
 0002:0001248c       $unwind$?type_case_c@?$output_processor@DV?$string_output_adapter@D@__crt_stdio_output@@V?$format_validation_base@DV?$string_output_adapter@D@__crt_stdio_output@@@2@@__crt_stdio_output@@AEAA_NXZ 000000014005548c     libucrtd:output.obj
 0002:0001248c       $unwind$?type_case_c@?$output_processor@_WV?$string_output_adapter@_W@__crt_stdio_output@@V?$format_validation_base@_WV?$string_output_adapter@_W@__crt_stdio_output@@@2@@__crt_stdio_output@@AEAA_NXZ 000000014005548c     libucrtd:output.obj
 0002:0001248c       $unwind$?type_case_d@?$output_processor@DV?$string_output_adapter@D@__crt_stdio_output@@V?$format_validation_base@DV?$string_output_adapter@D@__crt_stdio_output@@@2@@__crt_stdio_output@@AEAA_NXZ 000000014005548c     libucrtd:output.obj
 0002:0001248c       $unwind$?type_case_d@?$output_processor@_WV?$string_output_adapter@_W@__crt_stdio_output@@V?$format_validation_base@_WV?$string_output_adapter@_W@__crt_stdio_output@@@2@@__crt_stdio_output@@AEAA_NXZ 000000014005548c     libucrtd:output.obj
 0002:0001248c       $unwind$?type_case_o@?$output_processor@DV?$string_output_adapter@D@__crt_stdio_output@@V?$format_validation_base@DV?$string_output_adapter@D@__crt_stdio_output@@@2@@__crt_stdio_output@@AEAA_NXZ 000000014005548c     libucrtd:output.obj
 0002:0001248c       $unwind$?type_case_o@?$output_processor@_WV?$string_output_adapter@_W@__crt_stdio_output@@V?$format_validation_base@_WV?$string_output_adapter@_W@__crt_stdio_output@@@2@@__crt_stdio_output@@AEAA_NXZ 000000014005548c     libucrtd:output.obj
 0002:0001248c       $unwind$?type_case_p@?$output_processor@DV?$string_output_adapter@D@__crt_stdio_output@@V?$format_validation_base@DV?$string_output_adapter@D@__crt_stdio_output@@@2@@__crt_stdio_output@@AEAA_NXZ 000000014005548c     libucrtd:output.obj
 0002:0001248c       $unwind$?type_case_p@?$output_processor@_WV?$string_output_adapter@_W@__crt_stdio_output@@V?$format_validation_base@_WV?$string_output_adapter@_W@__crt_stdio_output@@@2@@__crt_stdio_output@@AEAA_NXZ 000000014005548c     libucrtd:output.obj
 0002:0001248c       $unwind$?type_case_u@?$output_processor@DV?$string_output_adapter@D@__crt_stdio_output@@V?$format_validation_base@DV?$string_output_adapter@D@__crt_stdio_output@@@2@@__crt_stdio_output@@AEAA_NXZ 000000014005548c     libucrtd:output.obj
 0002:0001248c       $unwind$?type_case_u@?$output_processor@_WV?$string_output_adapter@_W@__crt_stdio_output@@V?$format_validation_base@_WV?$string_output_adapter@_W@__crt_stdio_output@@@2@@__crt_stdio_output@@AEAA_NXZ 000000014005548c     libucrtd:output.obj
 0002:0001248c       $unwind$?type_case_x@?$output_processor@DV?$string_output_adapter@D@__crt_stdio_output@@V?$format_validation_base@DV?$string_output_adapter@D@__crt_stdio_output@@@2@@__crt_stdio_output@@AEAA_NXZ 000000014005548c     libucrtd:output.obj
 0002:0001248c       $unwind$?type_case_x@?$output_processor@_WV?$string_output_adapter@_W@__crt_stdio_output@@V?$format_validation_base@_WV?$string_output_adapter@_W@__crt_stdio_output@@@2@@__crt_stdio_output@@AEAA_NXZ 000000014005548c     libucrtd:output.obj
 0002:0001248c       $unwind$?update_field_width@?$standard_base@DV?$string_output_adapter@D@__crt_stdio_output@@@__crt_stdio_output@@IEAA_NXZ 000000014005548c     libucrtd:output.obj
 0002:0001248c       $unwind$?update_field_width@?$standard_base@_WV?$string_output_adapter@_W@__crt_stdio_output@@@__crt_stdio_output@@IEAA_NXZ 000000014005548c     libucrtd:output.obj
 0002:0001248c       $unwind$?update_locale@__crt_cached_ptd_host@@AEAAXXZ 000000014005548c     libucrtd:output.obj
 0002:0001248c       $unwind$?update_precision@?$standard_base@DV?$string_output_adapter@D@__crt_stdio_output@@@__crt_stdio_output@@IEAA_NXZ 000000014005548c     libucrtd:output.obj
 0002:0001248c       $unwind$?update_precision@?$standard_base@_WV?$string_output_adapter@_W@__crt_stdio_output@@@__crt_stdio_output@@IEAA_NXZ 000000014005548c     libucrtd:output.obj
 0002:0001248c       $unwind$?__acrt_stdio_free_stream@@YAXV__crt_stdio_stream@@@Z 000000014005548c     libucrtd:stream.obj
 0002:0001248c       $unwind$wcslen             000000014005548c     libucrtd:strnlen.obj
 0002:0001248c       $unwind$fegetenv           000000014005548c     libucrtd:fegetenv.obj
 0002:0001248c       $unwind$??$__crt_fast_decode_pointer@P6AHPEAU_exception@@@Z@@YAP6AHPEAU_exception@@@ZQ6AH0@Z@Z 000000014005548c     libucrtd:matherr.obj
 0002:0001248c       $unwind$??$__crt_fast_encode_pointer@P6AHPEAU_exception@@@Z@@YAP6AHPEAU_exception@@@ZQ6AH0@Z@Z 000000014005548c     libucrtd:matherr.obj
 0002:0001248c       $unwind$?value@?$dual_state_global@P6AHPEAU_exception@@@Z@__crt_state_management@@QEAAAEAP6AHPEAU_exception@@@ZXZ 000000014005548c     libucrtd:matherr.obj
 0002:0001248c       $unwind$__acrt_initialize_user_matherr 000000014005548c     libucrtd:matherr.obj
 0002:00012494       $unwind$??0exception@std@@QEAA@QEBDH@Z 0000000140055494     LIBCMTD:throw_bad_alloc.obj
 0002:0001249c       $unwind$??0exception@std@@QEAA@AEBV01@@Z 000000014005549c     LIBCMTD:throw_bad_alloc.obj
 0002:000124a4       $unwind$ReadNoFence64      00000001400554a4     LIBCMTD:guard_support.obj
 0002:000124a4       $unwind$?what@exception@std@@UEBAPEBDXZ 00000001400554a4     LIBCMTD:throw_bad_alloc.obj
 0002:000124a4       $unwind$?isEHs@__FrameHandler3@@SA_NPEBU_s_FuncInfo@@@Z 00000001400554a4     libvcruntimed:frame.obj
 0002:000124a4       $unwind$?isNoExcept@__FrameHandler3@@SA_NPEBU_s_FuncInfo@@@Z 00000001400554a4     libvcruntimed:frame.obj
 0002:000124a4       $unwind$?detach@?$__crt_unique_heap_ptr@U__vcrt_ptd@@U__crt_internal_free_policy@@@@QEAAPEAU__vcrt_ptd@@XZ 00000001400554a4     libvcruntimed:per_thread_data.obj
 0002:000124a4       $unwind$?is_valid@?$__crt_unique_heap_ptr@U__vcrt_ptd@@U__crt_internal_free_policy@@@@QEBA_NXZ 00000001400554a4     libvcruntimed:per_thread_data.obj
 0002:000124a4       $unwind$?detach@?$__crt_unique_heap_ptr@DU__crt_public_free_policy@@@@QEAAPEADXZ 00000001400554a4     libvcruntimed:std_exception.obj
 0002:000124a4       $unwind$?is_valid@?$__crt_unique_heap_ptr@DU__crt_public_free_policy@@@@QEBA_NXZ 00000001400554a4     libvcruntimed:std_exception.obj
 0002:000124a4       $unwind$?__crt_interlocked_read_64@@YA_JPED_J@Z 00000001400554a4     libvcruntimed:std_type_info.obj
 0002:000124a4       $unwind$?is_valid@?$__crt_unique_heap_ptr@DU__crt_internal_free_policy@@@@QEBA_NXZ 00000001400554a4     libvcruntimed:std_type_info.obj
 0002:000124a4       $unwind$?detach@?$__crt_unique_heap_ptr@DU__crt_internal_free_policy@@@@QEAAPEADXZ 00000001400554a4     libucrtd:environment_initialization.obj
 0002:000124a4       $unwind$?is_valid@?$__crt_unique_heap_ptr@PEADU__crt_internal_free_policy@@@@QEBA_NXZ 00000001400554a4     libucrtd:environment_initialization.obj
 0002:000124a4       $unwind$?has_surrogate@?A0xc60ee810@@YA_NPEAU_Mbstatet@@@Z 00000001400554a4     libucrtd:c16rtomb.obj
 0002:000124a4       $unwind$?is_first_surrogate@?A0xc60ee810@@YA_N_S@Z 00000001400554a4     libucrtd:c16rtomb.obj
 0002:000124a4       $unwind$?is_second_surrogate@?A0xc60ee810@@YA_N_S@Z 00000001400554a4     libucrtd:c16rtomb.obj
 0002:000124a4       $unwind$?is_zero@__crt_strtox@@YA_NAEBUbig_integer@1@@Z 00000001400554a4     libucrtd:cfout.obj
 0002:000124a4       $unwind$?__acrt_fp_classify@@YA?AW4__acrt_fp_class@@AEBN@Z 00000001400554a4     libucrtd:cvt.obj
 0002:000124a4       $unwind$?__acrt_fp_is_negative@@YA_NAEBN@Z 00000001400554a4     libucrtd:cvt.obj
 0002:000124a4       $unwind$_CrtSetDumpClient  00000001400554a4     libucrtd:debug_heap.obj
 0002:000124a4       $unwind$__acrt_get_locale_data_prefix 00000001400554a4     libucrtd:debug_heap.obj
 0002:000124a4       $unwind$?__crt_fast_encode_pointer@@YA?AU__crt_fast_encoded_nullptr_t@@$$T@Z 00000001400554a4     libucrtd:new_handler.obj
 0002:000124a4       $unwind$?detach@?$__crt_unique_heap_ptr@U__acrt_ptd@@U__crt_internal_free_policy@@@@QEAAPEAU__acrt_ptd@@XZ 00000001400554a4     libucrtd:per_thread_data.obj
 0002:000124a4       $unwind$?is_valid@?$__crt_unique_heap_ptr@U__acrt_ptd@@U__crt_internal_free_policy@@@@QEBA_NXZ 00000001400554a4     libucrtd:per_thread_data.obj
 0002:000124a4       $unwind$_MallocaComputeSize 00000001400554a4     libucrtd:getstringtypea.obj
 0002:000124a4       $unwind$??B?$__crt_scoped_stack_ptr@_W@@QEBA_NXZ 00000001400554a4     libucrtd:lcmapstringa.obj
 0002:000124a4       $unwind$?detach@?$__crt_unique_heap_ptr@U__crt_multibyte_data@@U__crt_internal_free_policy@@@@QEAAPEAU__crt_multibyte_data@@XZ 00000001400554a4     libucrtd:wsetlocale.obj
 0002:000124a4       $unwind$?is_valid@?$__crt_unique_heap_ptr@U__crt_multibyte_data@@U__crt_internal_free_policy@@@@QEBA_NXZ 00000001400554a4     libucrtd:wsetlocale.obj
 0002:000124a4       $unwind$?detach@?$__crt_unique_heap_ptr@U__crt_lowio_handle_data@@U__crt_internal_free_policy@@@@QEAAPEAU__crt_lowio_handle_data@@XZ 00000001400554a4     libucrtd:osfinfo.obj
 0002:000124a4       $unwind$?is_valid@?$__crt_unique_heap_ptr@U__crt_lowio_handle_data@@U__crt_internal_free_policy@@@@QEBA_NXZ 00000001400554a4     libucrtd:osfinfo.obj
 0002:000124a4       $unwind$?setSBCS@@YAXPEAU__crt_multibyte_data@@@Z 00000001400554a4     libucrtd:mbctype.obj
 0002:000124a4       $unwind$__acrt_should_sync_with_global_locale 00000001400554a4     libucrtd:mbctype.obj
 0002:000124a4       $unwind$?detach@?$__crt_unique_heap_ptr@EU__crt_internal_free_policy@@@@QEAAPEAEXZ 00000001400554a4     libucrtd:argv_parsing.obj
 0002:000124a4       $unwind$?detach@?$__crt_unique_heap_ptr@PEADU__crt_internal_free_policy@@@@QEAAPEAPEADXZ 00000001400554a4     libucrtd:argv_parsing.obj
 0002:000124a4       $unwind$?is_valid@?$__crt_unique_heap_ptr@EU__crt_internal_free_policy@@@@QEBA_NXZ 00000001400554a4     libucrtd:argv_parsing.obj
 0002:000124a4       $unwind$?__crt_interlocked_read_32@@YAHPEDH@Z 00000001400554a4     libucrtd:exit.obj
 0002:000124a4       $unwind$?detach@?$__crt_unique_heap_ptr@P6AXXZU__crt_internal_free_policy@@@@QEAAPEAP6AXXZXZ 00000001400554a4     libucrtd:onexit.obj
 0002:000124a4       $unwind$?detach@?$__crt_unique_heap_ptr@PEAU__crt_stdio_stream_data@@U__crt_internal_free_policy@@@@QEAAPEAPEAU__crt_stdio_stream_data@@XZ 00000001400554a4     libucrtd:_file.obj
 0002:000124a4       $unwind$??$read_va_arg@C@__crt_stdio_output@@YACAEAPEAD@Z 00000001400554a4     libucrtd:output.obj
 0002:000124a4       $unwind$??$read_va_arg@E@__crt_stdio_output@@YAEAEAPEAD@Z 00000001400554a4     libucrtd:output.obj
 0002:000124a4       $unwind$??$read_va_arg@F@__crt_stdio_output@@YAFAEAPEAD@Z 00000001400554a4     libucrtd:output.obj
 0002:000124a4       $unwind$??$read_va_arg@G@__crt_stdio_output@@YAGAEAPEAD@Z 00000001400554a4     libucrtd:output.obj
 0002:000124a4       $unwind$??$read_va_arg@H@__crt_stdio_output@@YAHAEAPEAD@Z 00000001400554a4     libucrtd:output.obj
 0002:000124a4       $unwind$??$read_va_arg@I@__crt_stdio_output@@YAIAEAPEAD@Z 00000001400554a4     libucrtd:output.obj
 0002:000124a4       $unwind$??$read_va_arg@PEAD@__crt_stdio_output@@YAPEADAEAPEAD@Z 00000001400554a4     libucrtd:output.obj
 0002:000124a4       $unwind$??$read_va_arg@PEAUansi_string@?1??type_case_Z@?$output_processor@DV?$string_output_adapter@D@__crt_stdio_output@@V?$format_validation_base@DV?$string_output_adapter@D@__crt_stdio_output@@@2@@__crt_stdio_output@@AEAA_NXZ@@__crt_stdio_output@@YAPEAUansi_string@?1??type_case_Z@?$output_processor@DV?$string_output_adapter@D@__crt_stdio_output@@V?$format_validation_base@DV?$string_output_adapter@D@__crt_stdio_output@@@2@@0@AEAA_NXZ@AEAPEAD@Z 00000001400554a4     libucrtd:output.obj
 0002:000124a4       $unwind$??$read_va_arg@PEAUansi_string@?1??type_case_Z@?$output_processor@_WV?$string_output_adapter@_W@__crt_stdio_output@@V?$format_validation_base@_WV?$string_output_adapter@_W@__crt_stdio_output@@@2@@__crt_stdio_output@@AEAA_NXZ@@__crt_stdio_output@@YAPEAUansi_string@?1??type_case_Z@?$output_processor@_WV?$string_output_adapter@_W@__crt_stdio_output@@V?$format_validation_base@_WV?$string_output_adapter@_W@__crt_stdio_output@@@2@@0@AEAA_NXZ@AEAPEAD@Z 00000001400554a4     libucrtd:output.obj
 0002:000124a4       $unwind$??$read_va_arg@PEAX@__crt_stdio_output@@YAPEAXAEAPEAD@Z 00000001400554a4     libucrtd:output.obj
 0002:000124a4       $unwind$??$read_va_arg@U_CRT_DOUBLE@@@__crt_stdio_output@@YA?AU_CRT_DOUBLE@@AEAPEAD@Z 00000001400554a4     libucrtd:output.obj
 0002:000124a4       $unwind$??$read_va_arg@_J@__crt_stdio_output@@YA_JAEAPEAD@Z 00000001400554a4     libucrtd:output.obj
 0002:000124a4       $unwind$??$read_va_arg@_K@__crt_stdio_output@@YA_KAEAPEAD@Z 00000001400554a4     libucrtd:output.obj
 0002:000124a4       $unwind$??$read_va_arg@_W@__crt_stdio_output@@YA_WAEAPEAD@Z 00000001400554a4     libucrtd:output.obj
 0002:000124a4       $unwind$?advance_to_next_pass@?$standard_base@DV?$string_output_adapter@D@__crt_stdio_output@@@__crt_stdio_output@@IEAA_NXZ 00000001400554a4     libucrtd:output.obj
 0002:000124a4       $unwind$?advance_to_next_pass@?$standard_base@_WV?$string_output_adapter@_W@__crt_stdio_output@@@__crt_stdio_output@@IEAA_NXZ 00000001400554a4     libucrtd:output.obj
 0002:000124a4       $unwind$?get@?$c_string_character_source@D@__crt_strtox@@QEAADXZ 00000001400554a4     libucrtd:output.obj
 0002:000124a4       $unwind$?get@?$c_string_character_source@_W@__crt_strtox@@QEAA_WXZ 00000001400554a4     libucrtd:output.obj
 0002:000124a4       $unwind$?valid@__crt_stdio_stream@@QEBA_NXZ 00000001400554a4     libucrtd:output.obj
 0002:000124a4       $unwind$_handle_nan        00000001400554a4     libucrtd:libm_error.obj
 0002:000124ac       $unwind$??_Gtype_info@@UEAAPEAXI@Z 00000001400554ac     LIBCMTD:std_type_info_static.obj
 0002:000124ac       $unwind$??_Gbad_alloc@std@@UEAAPEAXI@Z 00000001400554ac     LIBCMTD:throw_bad_alloc.obj
 0002:000124ac       $unwind$??_Gbad_array_new_length@std@@UEAAPEAXI@Z 00000001400554ac     LIBCMTD:throw_bad_alloc.obj
 0002:000124ac       $unwind$??_Gexception@std@@UEAAPEAXI@Z 00000001400554ac     LIBCMTD:throw_bad_alloc.obj
 0002:000124ac       $unwind$??_Gbad_exception@std@@UEAAPEAXI@Z 00000001400554ac     libvcruntimed:frame.obj
 0002:000124ac       $unwind$?strrchr@@YAPEADQEADH@Z 00000001400554ac     libucrtd:cvt.obj
 0002:000124ac       $unwind$_isleadbyte_fast_internal 00000001400554ac     libucrtd:isctype.obj
 0002:000124ac       $unwind$__acrt_FlsSetValue 00000001400554ac     libucrtd:winapi_thunks.obj
 0002:000124ac       $unwind$?xcptlookup@@YAPEAU__crt_signal_action_t@@KQEAU1@@Z 00000001400554ac     libucrtd:exception_filter.obj
 0002:000124ac       $unwind$__acrt_isleadbyte_l_noupdate 00000001400554ac     libucrtd:output.obj
 0002:000124ac       $unwind$_isdigit_fast_internal 00000001400554ac     libucrtd:output.obj
 0002:000124b4       $unwind$??3@YAXPEAX_K@Z    00000001400554b4     LIBCMTD:delete_scalar_size.obj
 0002:000124b4       $unwind$_FindPESection     00000001400554b4     LIBCMTD:pesect.obj
 0002:000124b4       $unwind$??0bad_alloc@std@@AEAA@QEBD@Z 00000001400554b4     LIBCMTD:throw_bad_alloc.obj
 0002:000124b4       $unwind$??0bad_alloc@std@@QEAA@AEBV01@@Z 00000001400554b4     LIBCMTD:throw_bad_alloc.obj
 0002:000124b4       $unwind$??0bad_array_new_length@std@@QEAA@AEBV01@@Z 00000001400554b4     LIBCMTD:throw_bad_alloc.obj
 0002:000124b4       $unwind$??0bad_exception@std@@QEAA@AEBV01@@Z 00000001400554b4     libvcruntimed:frame.obj
 0002:000124b4       $unwind$?begin@HandlerMap@__FrameHandler3@@QEAA?AViterator@12@XZ 00000001400554b4     libvcruntimed:frame.obj
 0002:000124b4       $unwind$?end@HandlerMap@__FrameHandler3@@QEAA?AViterator@12@XZ 00000001400554b4     libvcruntimed:frame.obj
 0002:000124b4       $unwind$??$?RU__vcrt_ptd@@@__crt_internal_free_policy@@QEBAXQEBU__vcrt_ptd@@@Z 00000001400554b4     libvcruntimed:per_thread_data.obj
 0002:000124b4       $unwind$??$?RD@__crt_public_free_policy@@QEBAXQEBD@Z 00000001400554b4     libvcruntimed:std_exception.obj
 0002:000124b4       $unwind$??$?RD@__crt_internal_free_policy@@QEBAXQEBD@Z 00000001400554b4     libvcruntimed:std_type_info.obj
 0002:000124b4       $unwind$__std_type_info_compare 00000001400554b4     libvcruntimed:std_type_info.obj
 0002:000124b4       $unwind$_mbsdec            00000001400554b4     libucrtd:mbsdec.obj
 0002:000124b4       $unwind$??R<lambda_af27fe6ede5d83bbdbd622796c194e9c>@@QEBAXAEAPEAU__crt_multibyte_data@@@Z 00000001400554b4     libucrtd:initialization.obj
 0002:000124b4       $unwind$??$?RU__acrt_ptd@@@__crt_internal_free_policy@@QEBAXQEBU__acrt_ptd@@@Z 00000001400554b4     libucrtd:per_thread_data.obj
 0002:000124b4       $unwind$?replace_current_thread_locale_nolock@@YAXQEAU__acrt_ptd@@QEAU__crt_locale_data@@@Z 00000001400554b4     libucrtd:per_thread_data.obj
 0002:000124b4       $unwind$__acrt_getptd_noexit_explicit 00000001400554b4     libucrtd:per_thread_data.obj
 0002:000124b4       $unwind$__acrt_update_locale_info 00000001400554b4     libucrtd:locale_update.obj
 0002:000124b4       $unwind$__acrt_update_multibyte_info 00000001400554b4     libucrtd:locale_update.obj
 0002:000124b4       $unwind$??$?RU__crt_multibyte_data@@@__crt_internal_free_policy@@QEBAXQEBU__crt_multibyte_data@@@Z 00000001400554b4     libucrtd:wsetlocale.obj
 0002:000124b4       $unwind$??R<lambda_363eea9039da1e8169e2d060c7fe5cbc>@@QEBAXAEAPEAU__crt_locale_data@@@Z 00000001400554b4     libucrtd:wsetlocale.obj
 0002:000124b4       $unwind$??$?RU__crt_lowio_handle_data@@@__crt_internal_free_policy@@QEBAXQEBU__crt_lowio_handle_data@@@Z 00000001400554b4     libucrtd:osfinfo.obj
 0002:000124b4       $unwind$?check_synchronize_global_state_index@__crt_cached_ptd_host@@AEAA_KAEBV__crt_scoped_get_last_error_reset@@@Z 00000001400554b4     libucrtd:invalid_parameter.obj
 0002:000124b4       $unwind$?force_synchronize_global_state_index@__crt_cached_ptd_host@@AEAA_KAEBV__crt_scoped_get_last_error_reset@@@Z 00000001400554b4     libucrtd:invalid_parameter.obj
 0002:000124b4       $unwind$?value@?$dual_state_global@P6AXPEB_W00I_K@Z@__crt_state_management@@QEAAAEAP6AXPEB_W00I_K@ZAEAV__crt_cached_ptd_host@@@Z 00000001400554b4     libucrtd:invalid_parameter.obj
 0002:000124b4       $unwind$??$?RE@__crt_internal_free_policy@@QEBAXQEBE@Z 00000001400554b4     libucrtd:argv_parsing.obj
 0002:000124b4       $unwind$??$?RPEAD@__crt_internal_free_policy@@QEBAXQEBQEAD@Z 00000001400554b4     libucrtd:argv_parsing.obj
 0002:000124b4       $unwind$?expand_argv_wildcards@@YAHQEAPEADQEAPEAPEAD@Z 00000001400554b4     libucrtd:argv_parsing.obj
 0002:000124b4       $unwind$?<lambda_invoker_cdecl>@<lambda_a1ce4c8ae42411fd470c77163914f50e>@@CAHPEBX0@Z 00000001400554b4     libucrtd:argv_wildcards.obj
 0002:000124b4       $unwind$?deallocate@__crt_win32_buffer_internal_dynamic_resizing@@SAXQEAXAEBV__crt_win32_buffer_empty_debug_info@@@Z 00000001400554b4     libucrtd:argv_wildcards.obj
 0002:000124b4       $unwind$?previous_character@@YAPEADQEAD0@Z 00000001400554b4     libucrtd:argv_wildcards.obj
 0002:000124b4       $unwind$?strpbrk@@YAPEADQEADQEBD@Z 00000001400554b4     libucrtd:argv_wildcards.obj
 0002:000124b4       $unwind$__acrt_expand_narrow_argv_wildcards 00000001400554b4     libucrtd:argv_wildcards.obj
 0002:000124b4       $unwind$??$__crt_get_proc_address@P6AXI@Z@@YAP6AXI@ZQEAUHINSTANCE__@@QEBD@Z 00000001400554b4     libucrtd:exit.obj
 0002:000124b4       $unwind$??$?RP6AXXZ@__crt_internal_free_policy@@QEBAXQEBQ6AXXZ@Z 00000001400554b4     libucrtd:onexit.obj
 0002:000124b4       $unwind$??$?RPEAU__crt_stdio_stream_data@@@__crt_internal_free_policy@@QEBAXQEBQEAU__crt_stdio_stream_data@@@Z 00000001400554b4     libucrtd:_file.obj
 0002:000124b4       $unwind$??$extract_argument_from_va_list@C_J@?$standard_base@DV?$string_output_adapter@D@__crt_stdio_output@@@__crt_stdio_output@@IEAA_NAEA_J@Z 00000001400554b4     libucrtd:output.obj
 0002:000124b4       $unwind$??$extract_argument_from_va_list@C_J@?$standard_base@_WV?$string_output_adapter@_W@__crt_stdio_output@@@__crt_stdio_output@@IEAA_NAEA_J@Z 00000001400554b4     libucrtd:output.obj
 0002:000124b4       $unwind$??$extract_argument_from_va_list@E_J@?$standard_base@DV?$string_output_adapter@D@__crt_stdio_output@@@__crt_stdio_output@@IEAA_NAEA_J@Z 00000001400554b4     libucrtd:output.obj
 0002:000124b4       $unwind$??$extract_argument_from_va_list@E_J@?$standard_base@_WV?$string_output_adapter@_W@__crt_stdio_output@@@__crt_stdio_output@@IEAA_NAEA_J@Z 00000001400554b4     libucrtd:output.obj
 0002:000124b4       $unwind$??$extract_argument_from_va_list@F_J@?$standard_base@DV?$string_output_adapter@D@__crt_stdio_output@@@__crt_stdio_output@@IEAA_NAEA_J@Z 00000001400554b4     libucrtd:output.obj
 0002:000124b4       $unwind$??$extract_argument_from_va_list@F_J@?$standard_base@_WV?$string_output_adapter@_W@__crt_stdio_output@@@__crt_stdio_output@@IEAA_NAEA_J@Z 00000001400554b4     libucrtd:output.obj
 0002:000124b4       $unwind$??$extract_argument_from_va_list@GD@?$standard_base@DV?$string_output_adapter@D@__crt_stdio_output@@@__crt_stdio_output@@IEAA_NAEAD@Z 00000001400554b4     libucrtd:output.obj
 0002:000124b4       $unwind$??$extract_argument_from_va_list@G_J@?$standard_base@DV?$string_output_adapter@D@__crt_stdio_output@@@__crt_stdio_output@@IEAA_NAEA_J@Z 00000001400554b4     libucrtd:output.obj
 0002:000124b4       $unwind$??$extract_argument_from_va_list@G_J@?$standard_base@_WV?$string_output_adapter@_W@__crt_stdio_output@@@__crt_stdio_output@@IEAA_NAEA_J@Z 00000001400554b4     libucrtd:output.obj
 0002:000124b4       $unwind$??$extract_argument_from_va_list@H_J@?$standard_base@DV?$string_output_adapter@D@__crt_stdio_output@@@__crt_stdio_output@@IEAA_NAEA_J@Z 00000001400554b4     libucrtd:output.obj
 0002:000124b4       $unwind$??$extract_argument_from_va_list@H_J@?$standard_base@_WV?$string_output_adapter@_W@__crt_stdio_output@@@__crt_stdio_output@@IEAA_NAEA_J@Z 00000001400554b4     libucrtd:output.obj
 0002:000124b4       $unwind$??$extract_argument_from_va_list@I_J@?$standard_base@DV?$string_output_adapter@D@__crt_stdio_output@@@__crt_stdio_output@@IEAA_NAEA_J@Z 00000001400554b4     libucrtd:output.obj
